
========================================================================

** ELF Header Information

    File Name: .\STM32H750_test\\STM32H750_test.axf

    Machine class: ELFCLASS32 (32-bit)
    Data encoding: ELFDATA2LSB (Little endian)
    Header version: EV_CURRENT (Current version)
    Operating System ABI: none
    ABI Version: 0
    File Type: ET_EXEC (Executable) (2)
    Machine: EM_ARM (ARM)

    Image Entry point: 0x08000299
    Flags: EF_ARM_HASENTRY + EF_ARM_ABI_FLOAT_HARD (0x05000402)

    ARM ELF revision: 5 (ABI version 2)

    Conforms to Hard float procedure-call standard

    Built with
    Component: ARM Compiler 6.16 Tool: armasm [5dfea300]
    Component: ARM Compiler 6.16 Tool: armlink [5dfeaa00]

    Header size: 52 bytes (0x34)
    Program header entry size: 32 bytes (0x20)
    Section header entry size: 40 bytes (0x28)

    Program header entries: 1
    Section header entries: 16

    Program header offset: 388664 (0x0005ee38)
    Section header offset: 388696 (0x0005ee58)

    Section header string table index: 15

========================================================================

** Program header #0 (PT_LOAD) [PF_X + PF_W + PF_R + PF_ARM_ENTRY]
    Size : 52512 bytes (32560 bytes in file)
    Virtual address: 0x08000000 (Alignment 8)


========================================================================

** Section #1 'ER_IROM1' (SHT_PROGBITS) [SHF_ALLOC + SHF_EXECINSTR]
    Size   : 32544 bytes (alignment 8)
    Address: 0x08000000

    $d.realdata
    RESET
    __Vectors
        0x08000000:    24004e00    .N.$    DCD    603999744
        0x08000004:    08000339    9...    DCD    134218553
        0x08000008:    08005d31    1]..    DCD    134241585
        0x0800000c:    08005751    QW..    DCD    134240081
        0x08000010:    08005d29    )]..    DCD    134241577
        0x08000014:    080008e9    ....    DCD    134220009
        0x08000018:    08007041    Ap..    DCD    134246465
        0x0800001c:    00000000    ....    DCD    0
        0x08000020:    00000000    ....    DCD    0
        0x08000024:    00000000    ....    DCD    0
        0x08000028:    00000000    ....    DCD    0
        0x0800002c:    08006171    qa..    DCD    134242673
        0x08000030:    080008f1    ....    DCD    134220017
        0x08000034:    00000000    ....    DCD    0
        0x08000038:    08005d69    i]..    DCD    134241641
        0x0800003c:    080061a9    .a..    DCD    134242729
        0x08000040:    08000353    S...    DCD    134218579
        0x08000044:    08000353    S...    DCD    134218579
        0x08000048:    08000353    S...    DCD    134218579
        0x0800004c:    08000353    S...    DCD    134218579
        0x08000050:    08000353    S...    DCD    134218579
        0x08000054:    08000353    S...    DCD    134218579
        0x08000058:    08000353    S...    DCD    134218579
        0x0800005c:    08000353    S...    DCD    134218579
        0x08000060:    08000353    S...    DCD    134218579
        0x08000064:    08000353    S...    DCD    134218579
        0x08000068:    08000353    S...    DCD    134218579
        0x0800006c:    08000353    S...    DCD    134218579
        0x08000070:    08000353    S...    DCD    134218579
        0x08000074:    08000353    S...    DCD    134218579
        0x08000078:    08000353    S...    DCD    134218579
        0x0800007c:    08000353    S...    DCD    134218579
        0x08000080:    08000353    S...    DCD    134218579
        0x08000084:    08000353    S...    DCD    134218579
        0x08000088:    080008d9    ....    DCD    134219993
        0x0800008c:    08000353    S...    DCD    134218579
        0x08000090:    08000353    S...    DCD    134218579
        0x08000094:    08000353    S...    DCD    134218579
        0x08000098:    08000353    S...    DCD    134218579
        0x0800009c:    08000353    S...    DCD    134218579
        0x080000a0:    08000353    S...    DCD    134218579
        0x080000a4:    08000353    S...    DCD    134218579
        0x080000a8:    08000353    S...    DCD    134218579
        0x080000ac:    08000353    S...    DCD    134218579
        0x080000b0:    08000353    S...    DCD    134218579
        0x080000b4:    08000353    S...    DCD    134218579
        0x080000b8:    08000353    S...    DCD    134218579
        0x080000bc:    08000353    S...    DCD    134218579
        0x080000c0:    08000353    S...    DCD    134218579
        0x080000c4:    08000353    S...    DCD    134218579
        0x080000c8:    08000353    S...    DCD    134218579
        0x080000cc:    08000353    S...    DCD    134218579
        0x080000d0:    08000353    S...    DCD    134218579
        0x080000d4:    08000353    S...    DCD    134218579
        0x080000d8:    08000353    S...    DCD    134218579
        0x080000dc:    08000353    S...    DCD    134218579
        0x080000e0:    08000353    S...    DCD    134218579
        0x080000e4:    08000353    S...    DCD    134218579
        0x080000e8:    00000000    ....    DCD    0
        0x080000ec:    08000353    S...    DCD    134218579
        0x080000f0:    08000353    S...    DCD    134218579
        0x080000f4:    08000353    S...    DCD    134218579
        0x080000f8:    08000353    S...    DCD    134218579
        0x080000fc:    08000353    S...    DCD    134218579
        0x08000100:    08000353    S...    DCD    134218579
        0x08000104:    08000353    S...    DCD    134218579
        0x08000108:    08000353    S...    DCD    134218579
        0x0800010c:    08000353    S...    DCD    134218579
        0x08000110:    08000353    S...    DCD    134218579
        0x08000114:    08000353    S...    DCD    134218579
        0x08000118:    080063a9    .c..    DCD    134243241
        0x0800011c:    08000353    S...    DCD    134218579
        0x08000120:    08000353    S...    DCD    134218579
        0x08000124:    08000353    S...    DCD    134218579
        0x08000128:    08000353    S...    DCD    134218579
        0x0800012c:    08000353    S...    DCD    134218579
        0x08000130:    08000353    S...    DCD    134218579
        0x08000134:    08000353    S...    DCD    134218579
        0x08000138:    08000353    S...    DCD    134218579
        0x0800013c:    08000353    S...    DCD    134218579
        0x08000140:    00000000    ....    DCD    0
        0x08000144:    00000000    ....    DCD    0
        0x08000148:    00000000    ....    DCD    0
        0x0800014c:    00000000    ....    DCD    0
        0x08000150:    08000353    S...    DCD    134218579
        0x08000154:    08000353    S...    DCD    134218579
        0x08000158:    08000353    S...    DCD    134218579
        0x0800015c:    08000353    S...    DCD    134218579
        0x08000160:    08000353    S...    DCD    134218579
        0x08000164:    08000353    S...    DCD    134218579
        0x08000168:    08000353    S...    DCD    134218579
        0x0800016c:    08000353    S...    DCD    134218579
        0x08000170:    08000353    S...    DCD    134218579
        0x08000174:    08000353    S...    DCD    134218579
        0x08000178:    08000353    S...    DCD    134218579
        0x0800017c:    08000353    S...    DCD    134218579
        0x08000180:    08000353    S...    DCD    134218579
        0x08000184:    08000353    S...    DCD    134218579
        0x08000188:    08000353    S...    DCD    134218579
        0x0800018c:    08000353    S...    DCD    134218579
        0x08000190:    08000353    S...    DCD    134218579
        0x08000194:    08000353    S...    DCD    134218579
        0x08000198:    08000353    S...    DCD    134218579
        0x0800019c:    08000353    S...    DCD    134218579
        0x080001a0:    08000353    S...    DCD    134218579
        0x080001a4:    08000353    S...    DCD    134218579
        0x080001a8:    08000353    S...    DCD    134218579
        0x080001ac:    08000353    S...    DCD    134218579
        0x080001b0:    08000353    S...    DCD    134218579
        0x080001b4:    08000353    S...    DCD    134218579
        0x080001b8:    08000353    S...    DCD    134218579
        0x080001bc:    08000353    S...    DCD    134218579
        0x080001c0:    08000353    S...    DCD    134218579
        0x080001c4:    08000353    S...    DCD    134218579
        0x080001c8:    08000353    S...    DCD    134218579
        0x080001cc:    08000353    S...    DCD    134218579
        0x080001d0:    08000353    S...    DCD    134218579
        0x080001d4:    08000353    S...    DCD    134218579
        0x080001d8:    08000353    S...    DCD    134218579
        0x080001dc:    08000353    S...    DCD    134218579
        0x080001e0:    08000353    S...    DCD    134218579
        0x080001e4:    08000353    S...    DCD    134218579
        0x080001e8:    08000353    S...    DCD    134218579
        0x080001ec:    08000353    S...    DCD    134218579
        0x080001f0:    08000353    S...    DCD    134218579
        0x080001f4:    08000353    S...    DCD    134218579
        0x080001f8:    08000353    S...    DCD    134218579
        0x080001fc:    08000353    S...    DCD    134218579
        0x08000200:    08000353    S...    DCD    134218579
        0x08000204:    08000353    S...    DCD    134218579
        0x08000208:    08000353    S...    DCD    134218579
        0x0800020c:    08000353    S...    DCD    134218579
        0x08000210:    08000353    S...    DCD    134218579
        0x08000214:    08000353    S...    DCD    134218579
        0x08000218:    08000353    S...    DCD    134218579
        0x0800021c:    08000353    S...    DCD    134218579
        0x08000220:    08000353    S...    DCD    134218579
        0x08000224:    08000353    S...    DCD    134218579
        0x08000228:    08000353    S...    DCD    134218579
        0x0800022c:    00000000    ....    DCD    0
        0x08000230:    08000353    S...    DCD    134218579
        0x08000234:    08000353    S...    DCD    134218579
        0x08000238:    00000000    ....    DCD    0
        0x0800023c:    08000353    S...    DCD    134218579
        0x08000240:    08000353    S...    DCD    134218579
        0x08000244:    08000353    S...    DCD    134218579
        0x08000248:    08000353    S...    DCD    134218579
        0x0800024c:    08000353    S...    DCD    134218579
        0x08000250:    08000353    S...    DCD    134218579
        0x08000254:    08000353    S...    DCD    134218579
        0x08000258:    08000353    S...    DCD    134218579
        0x0800025c:    08000353    S...    DCD    134218579
        0x08000260:    08000353    S...    DCD    134218579
        0x08000264:    08000353    S...    DCD    134218579
        0x08000268:    08000353    S...    DCD    134218579
        0x0800026c:    08000353    S...    DCD    134218579
        0x08000270:    08000353    S...    DCD    134218579
        0x08000274:    08000353    S...    DCD    134218579
        0x08000278:    08000353    S...    DCD    134218579
        0x0800027c:    00000000    ....    DCD    0
        0x08000280:    08000353    S...    DCD    134218579
        0x08000284:    08000353    S...    DCD    134218579
        0x08000288:    08000353    S...    DCD    134218579
        0x0800028c:    00000000    ....    DCD    0
        0x08000290:    00000000    ....    DCD    0
        0x08000294:    08000353    S...    DCD    134218579
    $t
    !!!main
    __Vectors_End
    __main
        0x08000298:    f000f802    ....    BL       __scatterload ; 0x80002a0
        0x0800029c:    f000f83c    ..<.    BL       __rt_entry ; 0x8000318
    !!!scatter
    __scatterload
    __scatterload_rt2
    __scatterload_rt2_thumb_only
        0x080002a0:    a00a        ..      ADR      r0,{pc}+0x2c ; 0x80002cc
        0x080002a2:    e8900c00    ....    LDM      r0,{r10,r11}
        0x080002a6:    4482        .D      ADD      r10,r10,r0
        0x080002a8:    4483        .D      ADD      r11,r11,r0
        0x080002aa:    f1aa0701    ....    SUB      r7,r10,#1
    __scatterload_null
        0x080002ae:    45da        .E      CMP      r10,r11
        0x080002b0:    d101        ..      BNE      0x80002b6 ; __scatterload_null + 8
        0x080002b2:    f000f831    ..1.    BL       __rt_entry ; 0x8000318
        0x080002b6:    f2af0e09    ....    ADR      lr,{pc}-7 ; 0x80002af
        0x080002ba:    e8ba000f    ....    LDM      r10!,{r0-r3}
        0x080002be:    f0130f01    ....    TST      r3,#1
        0x080002c2:    bf18        ..      IT       NE
        0x080002c4:    1afb        ..      SUBNE    r3,r7,r3
        0x080002c6:    f0430301    C...    ORR      r3,r3,#1
        0x080002ca:    4718        .G      BX       r3
    $d
        0x080002cc:    00007c34    4|..    DCD    31796
        0x080002d0:    00007c54    T|..    DCD    31828
    $t
    !!handler_copy
    __scatterload_copy
        0x080002d4:    3a10        .:      SUBS     r2,r2,#0x10
        0x080002d6:    bf24        $.      ITT      CS
        0x080002d8:    c878        x.      LDMCS    r0!,{r3-r6}
        0x080002da:    c178        x.      STMCS    r1!,{r3-r6}
        0x080002dc:    d8fa        ..      BHI      __scatterload_copy ; 0x80002d4
        0x080002de:    0752        R.      LSLS     r2,r2,#29
        0x080002e0:    bf24        $.      ITT      CS
        0x080002e2:    c830        0.      LDMCS    r0!,{r4,r5}
        0x080002e4:    c130        0.      STMCS    r1!,{r4,r5}
        0x080002e6:    bf44        D.      ITT      MI
        0x080002e8:    6804        .h      LDRMI    r4,[r0,#0]
        0x080002ea:    600c        .`      STRMI    r4,[r1,#0]
        0x080002ec:    4770        pG      BX       lr
        0x080002ee:    0000        ..      MOVS     r0,r0
    !!handler_zi
    __scatterload_zeroinit
        0x080002f0:    2300        .#      MOVS     r3,#0
        0x080002f2:    2400        .$      MOVS     r4,#0
        0x080002f4:    2500        .%      MOVS     r5,#0
        0x080002f6:    2600        .&      MOVS     r6,#0
        0x080002f8:    3a10        .:      SUBS     r2,r2,#0x10
        0x080002fa:    bf28        (.      IT       CS
        0x080002fc:    c178        x.      STMCS    r1!,{r3-r6}
        0x080002fe:    d8fb        ..      BHI      0x80002f8 ; __scatterload_zeroinit + 8
        0x08000300:    0752        R.      LSLS     r2,r2,#29
        0x08000302:    bf28        (.      IT       CS
        0x08000304:    c130        0.      STMCS    r1!,{r4,r5}
        0x08000306:    bf48        H.      IT       MI
        0x08000308:    600b        .`      STRMI    r3,[r1,#0]
        0x0800030a:    4770        pG      BX       lr
    .ARM.Collect$$libinit$$00000000
    __rt_lib_init
        0x0800030c:    b51f        ..      PUSH     {r0-r4,lr}
    .ARM.Collect$$libinit$$00000001
    __rt_lib_init_fp_1
        0x0800030e:    f007fc71    ..q.    BL       _fp_init ; 0x8007bf4
    .ARM.Collect$$libinit$$00000004
    .ARM.Collect$$libinit$$0000000A
    .ARM.Collect$$libinit$$0000000C
    .ARM.Collect$$libinit$$0000000E
    .ARM.Collect$$libinit$$00000011
    .ARM.Collect$$libinit$$00000013
    .ARM.Collect$$libinit$$00000015
    .ARM.Collect$$libinit$$00000017
    .ARM.Collect$$libinit$$00000019
    .ARM.Collect$$libinit$$0000001B
    .ARM.Collect$$libinit$$0000001D
    .ARM.Collect$$libinit$$0000001F
    .ARM.Collect$$libinit$$00000021
    .ARM.Collect$$libinit$$00000023
    .ARM.Collect$$libinit$$00000025
    .ARM.Collect$$libinit$$0000002C
    .ARM.Collect$$libinit$$0000002E
    .ARM.Collect$$libinit$$00000030
    .ARM.Collect$$libinit$$00000032
    .ARM.Collect$$libinit$$00000033
    __rt_lib_init_alloca_1
    __rt_lib_init_argv_1
    __rt_lib_init_atexit_1
    __rt_lib_init_clock_1
    __rt_lib_init_cpp_1
    __rt_lib_init_exceptions_1
    __rt_lib_init_fp_trap_1
    __rt_lib_init_getenv_1
    __rt_lib_init_heap_1
    __rt_lib_init_lc_collate_1
    __rt_lib_init_lc_ctype_1
    __rt_lib_init_lc_monetary_1
    __rt_lib_init_lc_numeric_1
    __rt_lib_init_lc_time_1
    __rt_lib_init_preinit_1
    __rt_lib_init_rand_1
    __rt_lib_init_return
    __rt_lib_init_signal_1
    __rt_lib_init_stdio_1
    __rt_lib_init_user_alloc_1
        0x08000312:    bd1f        ..      POP      {r0-r4,pc}
    .ARM.Collect$$libshutdown$$00000000
    __rt_lib_shutdown
        0x08000314:    b510        ..      PUSH     {r4,lr}
    .ARM.Collect$$libshutdown$$00000002
    .ARM.Collect$$libshutdown$$00000004
    .ARM.Collect$$libshutdown$$00000007
    .ARM.Collect$$libshutdown$$0000000A
    .ARM.Collect$$libshutdown$$0000000C
    .ARM.Collect$$libshutdown$$0000000F
    .ARM.Collect$$libshutdown$$00000010
    __rt_lib_shutdown_cpp_1
    __rt_lib_shutdown_fp_trap_1
    __rt_lib_shutdown_heap_1
    __rt_lib_shutdown_return
    __rt_lib_shutdown_signal_1
    __rt_lib_shutdown_stdio_1
    __rt_lib_shutdown_user_alloc_1
        0x08000316:    bd10        ..      POP      {r4,pc}
    .ARM.Collect$$rtentry$$00000000
    .ARM.Collect$$rtentry$$00000002
    .ARM.Collect$$rtentry$$00000004
    __rt_entry
    __rt_entry_presh_1
    __rt_entry_sh
        0x08000318:    f000f8e9    ....    BL       __user_setup_stackheap ; 0x80004ee
        0x0800031c:    4611        .F      MOV      r1,r2
    .ARM.Collect$$rtentry$$00000009
    .ARM.Collect$$rtentry$$0000000A
    __rt_entry_li
    __rt_entry_postsh_1
        0x0800031e:    f7fffff5    ....    BL       __rt_lib_init ; 0x800030c
    .ARM.Collect$$rtentry$$0000000C
    .ARM.Collect$$rtentry$$0000000D
    __rt_entry_main
    __rt_entry_postli_1
        0x08000322:    f007fb39    ..9.    BL       main ; 0x8007998
        0x08000326:    f000f907    ....    BL       exit ; 0x8000538
    .ARM.Collect$$rtexit$$00000000
    __rt_exit
        0x0800032a:    b403        ..      PUSH     {r0,r1}
    .ARM.Collect$$rtexit$$00000002
    .ARM.Collect$$rtexit$$00000003
    __rt_exit_ls
    __rt_exit_prels_1
        0x0800032c:    f7fffff2    ....    BL       __rt_lib_shutdown ; 0x8000314
    .ARM.Collect$$rtexit$$00000004
    __rt_exit_exit
        0x08000330:    bc03        ..      POP      {r0,r1}
        0x08000332:    f006fec5    ....    BL       _sys_exit ; 0x80070c0
        0x08000336:    0000        ..      MOVS     r0,r0
    .text
    $v0
    Reset_Handler
        0x08000338:    4809        .H      LDR      r0,[pc,#36] ; [0x8000360] = 0x80062d9
        0x0800033a:    4780        .G      BLX      r0
        0x0800033c:    4809        .H      LDR      r0,[pc,#36] ; [0x8000364] = 0x8000299
        0x0800033e:    4700        .G      BX       r0
        0x08000340:    e7fe        ..      B        0x8000340 ; Reset_Handler + 8
        0x08000342:    e7fe        ..      B        0x8000342 ; Reset_Handler + 10
        0x08000344:    e7fe        ..      B        0x8000344 ; Reset_Handler + 12
        0x08000346:    e7fe        ..      B        0x8000346 ; Reset_Handler + 14
        0x08000348:    e7fe        ..      B        0x8000348 ; Reset_Handler + 16
        0x0800034a:    e7fe        ..      B        0x800034a ; Reset_Handler + 18
        0x0800034c:    e7fe        ..      B        0x800034c ; Reset_Handler + 20
        0x0800034e:    e7fe        ..      B        0x800034e ; Reset_Handler + 22
        0x08000350:    e7fe        ..      B        0x8000350 ; Reset_Handler + 24
    ADC3_IRQHandler
    BDMA_Channel0_IRQHandler
    BDMA_Channel1_IRQHandler
    BDMA_Channel2_IRQHandler
    BDMA_Channel3_IRQHandler
    BDMA_Channel4_IRQHandler
    BDMA_Channel5_IRQHandler
    BDMA_Channel6_IRQHandler
    BDMA_Channel7_IRQHandler
    CEC_IRQHandler
    COMP1_IRQHandler
    CRS_IRQHandler
    CRYP_IRQHandler
    DCMI_IRQHandler
    DFSDM1_FLT0_IRQHandler
    DFSDM1_FLT1_IRQHandler
    DFSDM1_FLT2_IRQHandler
    DFSDM1_FLT3_IRQHandler
    DMA1_Stream0_IRQHandler
    DMA1_Stream1_IRQHandler
    DMA1_Stream2_IRQHandler
    DMA1_Stream3_IRQHandler
    DMA1_Stream4_IRQHandler
    DMA1_Stream5_IRQHandler
    DMA1_Stream6_IRQHandler
    DMA1_Stream7_IRQHandler
    DMA2D_IRQHandler
    DMA2_Stream0_IRQHandler
    DMA2_Stream1_IRQHandler
    DMA2_Stream2_IRQHandler
    DMA2_Stream3_IRQHandler
    DMA2_Stream4_IRQHandler
    DMA2_Stream5_IRQHandler
    DMA2_Stream6_IRQHandler
    DMA2_Stream7_IRQHandler
    DMAMUX1_OVR_IRQHandler
    DMAMUX2_OVR_IRQHandler
    ECC_IRQHandler
    ETH_IRQHandler
    ETH_WKUP_IRQHandler
    EXTI0_IRQHandler
    EXTI15_10_IRQHandler
    EXTI1_IRQHandler
    EXTI2_IRQHandler
    EXTI3_IRQHandler
    EXTI4_IRQHandler
    EXTI9_5_IRQHandler
    FDCAN1_IT0_IRQHandler
    FDCAN1_IT1_IRQHandler
    FDCAN2_IT0_IRQHandler
    FDCAN2_IT1_IRQHandler
    FDCAN_CAL_IRQHandler
    FLASH_IRQHandler
    FMC_IRQHandler
    FPU_IRQHandler
    HASH_RNG_IRQHandler
    HRTIM1_FLT_IRQHandler
    HRTIM1_Master_IRQHandler
    HRTIM1_TIMA_IRQHandler
    HRTIM1_TIMB_IRQHandler
    HRTIM1_TIMC_IRQHandler
    HRTIM1_TIMD_IRQHandler
    HRTIM1_TIME_IRQHandler
    HSEM1_IRQHandler
    I2C1_ER_IRQHandler
    I2C1_EV_IRQHandler
    I2C2_ER_IRQHandler
    I2C2_EV_IRQHandler
    I2C3_ER_IRQHandler
    I2C3_EV_IRQHandler
    I2C4_ER_IRQHandler
    I2C4_EV_IRQHandler
    JPEG_IRQHandler
    LPTIM1_IRQHandler
    LPTIM2_IRQHandler
    LPTIM3_IRQHandler
    LPTIM4_IRQHandler
    LPTIM5_IRQHandler
    LPUART1_IRQHandler
    LTDC_ER_IRQHandler
    LTDC_IRQHandler
    MDIOS_IRQHandler
    MDIOS_WKUP_IRQHandler
    MDMA_IRQHandler
    OTG_FS_EP1_IN_IRQHandler
    OTG_FS_EP1_OUT_IRQHandler
    OTG_FS_IRQHandler
    OTG_FS_WKUP_IRQHandler
    OTG_HS_EP1_IN_IRQHandler
    OTG_HS_EP1_OUT_IRQHandler
    OTG_HS_IRQHandler
    OTG_HS_WKUP_IRQHandler
    PVD_AVD_IRQHandler
    QUADSPI_IRQHandler
    RCC_IRQHandler
    RTC_Alarm_IRQHandler
    RTC_WKUP_IRQHandler
    SAI1_IRQHandler
    SAI2_IRQHandler
    SAI3_IRQHandler
    SAI4_IRQHandler
    SDMMC1_IRQHandler
    SDMMC2_IRQHandler
    SPDIF_RX_IRQHandler
    SPI1_IRQHandler
    SPI2_IRQHandler
    SPI3_IRQHandler
    SPI4_IRQHandler
    SPI5_IRQHandler
    SPI6_IRQHandler
    SWPMI1_IRQHandler
    TAMP_STAMP_IRQHandler
    TIM15_IRQHandler
    TIM16_IRQHandler
    TIM17_IRQHandler
    TIM1_BRK_IRQHandler
    TIM1_CC_IRQHandler
    TIM1_TRG_COM_IRQHandler
    TIM1_UP_IRQHandler
    TIM2_IRQHandler
    TIM3_IRQHandler
    TIM4_IRQHandler
    TIM5_IRQHandler
    TIM7_IRQHandler
    TIM8_BRK_TIM12_IRQHandler
    TIM8_CC_IRQHandler
    TIM8_TRG_COM_TIM14_IRQHandler
    TIM8_UP_TIM13_IRQHandler
    UART4_IRQHandler
    UART5_IRQHandler
    UART7_IRQHandler
    UART8_IRQHandler
    USART1_IRQHandler
    USART2_IRQHandler
    USART3_IRQHandler
    USART6_IRQHandler
    WAKEUP_PIN_IRQHandler
    WWDG_IRQHandler
        0x08000352:    e7fe        ..      B        ADC3_IRQHandler ; 0x8000352
    __user_initial_stackheap
        0x08000354:    4804        .H      LDR      r0,[pc,#16] ; [0x8000368] = 0x24000a00
        0x08000356:    4905        .I      LDR      r1,[pc,#20] ; [0x800036c] = 0x24004e00
        0x08000358:    4a05        .J      LDR      r2,[pc,#20] ; [0x8000370] = 0x24000e00
        0x0800035a:    4b06        .K      LDR      r3,[pc,#24] ; [0x8000374] = 0x24000e00
        0x0800035c:    4770        pG      BX       lr
    $d
        0x0800035e:    0000        ..      DCW    0
        0x08000360:    080062d9    .b..    DCD    134243033
        0x08000364:    08000299    ....    DCD    134218393
        0x08000368:    24000a00    ...$    DCD    603982336
        0x0800036c:    24004e00    .N.$    DCD    603999744
        0x08000370:    24000e00    ...$    DCD    603983360
        0x08000374:    24000e00    ...$    DCD    603983360
    $t
    .text
    __use_no_semihosting
        0x08000378:    4770        pG      BX       lr
    .text
    __aeabi_uldivmod
    _ll_udiv
        0x0800037a:    ea530c02    S...    ORRS     r12,r3,r2
        0x0800037e:    f0008069    ..i.    BEQ.W    0x8000454 ; __aeabi_uldivmod + 218
        0x08000382:    e92d4bf0    -..K    PUSH     {r4-r9,r11,lr}
        0x08000386:    f04f0600    O...    MOV      r6,#0
        0x0800038a:    2b00        .+      CMP      r3,#0
        0x0800038c:    bf1f        ..      ITTTT    NE
        0x0800038e:    fab3f583    ....    CLZNE    r5,r3
        0x08000392:    fa03f405    ....    LSLNE    r4,r3,r5
        0x08000396:    fa24f605    $...    LSRNE    r6,r4,r5
        0x0800039a:    405e        ^@      EORNE    r6,r6,r3
        0x0800039c:    bf12        ..      ITEE     NE
        0x0800039e:    4316        .C      ORRNE    r6,r6,r2
        0x080003a0:    fab2f582    ....    CLZEQ    r5,r2
        0x080003a4:    fa02f405    ....    LSLEQ    r4,r2,r5
        0x080003a8:    f1c50520    .. .    RSB      r5,r5,#0x20
        0x080003ac:    bf1e        ..      ITTT     NE
        0x080003ae:    fa22fc05    "...    LSRNE    r12,r2,r5
        0x080003b2:    ea44040c    D...    ORRNE    r4,r4,r12
        0x080003b6:    3520         5      ADDNE    r5,r5,#0x20
        0x080003b8:    ea564c04    V..L    ORRS     r12,r6,r4,LSL #16
        0x080003bc:    ea4f4414    O..D    LSR      r4,r4,#16
        0x080003c0:    bf18        ..      IT       NE
        0x080003c2:    1c64        d.      ADDNE    r4,r4,#1
        0x080003c4:    f04f0800    O...    MOV      r8,#0
        0x080003c8:    f04f0900    O...    MOV      r9,#0
        0x080003cc:    4290        .B      CMP      r0,r2
        0x080003ce:    eb710c03    q...    SBCS     r12,r1,r3
        0x080003d2:    d339        9.      BCC      0x8000448 ; __aeabi_uldivmod + 206
        0x080003d4:    2900        .)      CMP      r1,#0
        0x080003d6:    bf19        ..      ITTEE    NE
        0x080003d8:    fab1f781    ....    CLZNE    r7,r1
        0x080003dc:    fa01f607    ....    LSLNE    r6,r1,r7
        0x080003e0:    fab0f780    ....    CLZEQ    r7,r0
        0x080003e4:    fa00f607    ....    LSLEQ    r6,r0,r7
        0x080003e8:    f1c70720    .. .    RSB      r7,r7,#0x20
        0x080003ec:    bf1e        ..      ITTT     NE
        0x080003ee:    fa20fc07     ...    LSRNE    r12,r0,r7
        0x080003f2:    ea46060c    F...    ORRNE    r6,r6,r12
        0x080003f6:    3720         7      ADDNE    r7,r7,#0x20
        0x080003f8:    fbb6fcf4    ....    UDIV     r12,r6,r4
        0x080003fc:    eba70705    ....    SUB      r7,r7,r5
        0x08000400:    3f10        .?      SUBS     r7,r7,#0x10
        0x08000402:    f0070b1f    ....    AND      r11,r7,#0x1f
        0x08000406:    f1cb0620    .. .    RSB      r6,r11,#0x20
        0x0800040a:    fa2cf606    ,...    LSR      r6,r12,r6
        0x0800040e:    fa0cfb0b    ....    LSL      r11,r12,r11
        0x08000412:    bf44        D.      ITT      MI
        0x08000414:    46b3        .F      MOVMI    r11,r6
        0x08000416:    2600        .&      MOVMI    r6,#0
        0x08000418:    2f20         /      CMP      r7,#0x20
        0x0800041a:    bfa4        ..      ITT      GE
        0x0800041c:    465e        ^F      MOVGE    r6,r11
        0x0800041e:    f04f0b00    O...    MOVGE    r11,#0
        0x08000422:    ea5b0c06    [...    ORRS     r12,r11,r6
        0x08000426:    bf08        ..      IT       EQ
        0x08000428:    f04f0b01    O...    MOVEQ    r11,#1
        0x0800042c:    eb19090b    ....    ADDS     r9,r9,r11
        0x08000430:    eb480806    H...    ADC      r8,r8,r6
        0x08000434:    fbab7c02    ...|    UMULL    r7,r12,r11,r2
        0x08000438:    fb06cc02    ....    MLA      r12,r6,r2,r12
        0x0800043c:    fb0bcc03    ....    MLA      r12,r11,r3,r12
        0x08000440:    1bc0        ..      SUBS     r0,r0,r7
        0x08000442:    eb71010c    q...    SBCS     r1,r1,r12
        0x08000446:    e7c1        ..      B        0x80003cc ; __aeabi_uldivmod + 82
        0x08000448:    460b        .F      MOV      r3,r1
        0x0800044a:    4602        .F      MOV      r2,r0
        0x0800044c:    4641        AF      MOV      r1,r8
        0x0800044e:    4648        HF      MOV      r0,r9
        0x08000450:    e8bd8bf0    ....    POP      {r4-r9,r11,pc}
        0x08000454:    b513        ..      PUSH     {r0,r1,r4,lr}
        0x08000456:    4308        .C      ORRS     r0,r0,r1
        0x08000458:    bf18        ..      IT       NE
        0x0800045a:    f04f30ff    O..0    MOVNE    r0,#0xffffffff
        0x0800045e:    4601        .F      MOV      r1,r0
        0x08000460:    f3af8000    ....    NOP.W    
        0x08000464:    e8bd401c    ...@    POP      {r2-r4,lr}
        0x08000468:    4770        pG      BX       lr
        0x0800046a:    0000        ..      MOVS     r0,r0
    .text
    puts
        0x0800046c:    b510        ..      PUSH     {r4,lr}
        0x0800046e:    4604        .F      MOV      r4,r0
        0x08000470:    e003        ..      B        0x800047a ; puts + 14
        0x08000472:    f006fe2d    ..-.    BL       fputc ; 0x80070d0
        0x08000476:    1c40        @.      ADDS     r0,r0,#1
        0x08000478:    d009        ..      BEQ      0x800048e ; puts + 34
        0x0800047a:    f8140b01    ....    LDRB     r0,[r4],#1
        0x0800047e:    4905        .I      LDR      r1,[pc,#20] ; [0x8000494] = 0x24000078
        0x08000480:    2800        .(      CMP      r0,#0
        0x08000482:    d1f6        ..      BNE      0x8000472 ; puts + 6
        0x08000484:    e8bd4010    ...@    POP      {r4,lr}
        0x08000488:    200a        .       MOVS     r0,#0xa
        0x0800048a:    f006be21    ..!.    B.W      fputc ; 0x80070d0
        0x0800048e:    f04f30ff    O..0    MOV      r0,#0xffffffff
        0x08000492:    bd10        ..      POP      {r4,pc}
    $d
        0x08000494:    24000078    x..$    DCD    603979896
    $t
    .text
    __aeabi_memclr4
    __aeabi_memclr8
    __rt_memclr_w
        0x08000498:    f04f0200    O...    MOV      r2,#0
    _memset_w
        0x0800049c:    b500        ..      PUSH     {lr}
        0x0800049e:    4613        .F      MOV      r3,r2
        0x080004a0:    4694        .F      MOV      r12,r2
        0x080004a2:    4696        .F      MOV      lr,r2
        0x080004a4:    3920         9      SUBS     r1,r1,#0x20
        0x080004a6:    bf22        ".      ITTT     CS
        0x080004a8:    e8a0500c    ...P    STMCS    r0!,{r2,r3,r12,lr}
        0x080004ac:    e8a0500c    ...P    STMCS    r0!,{r2,r3,r12,lr}
        0x080004b0:    f1b10120    .. .    SUBSCS   r1,r1,#0x20
        0x080004b4:    f4bfaff7    ....    BCS.W    0x80004a6 ; _memset_w + 10
        0x080004b8:    0709        ..      LSLS     r1,r1,#28
        0x080004ba:    bf28        (.      IT       CS
        0x080004bc:    e8a0500c    ...P    STMCS    r0!,{r2,r3,r12,lr}
        0x080004c0:    bf48        H.      IT       MI
        0x080004c2:    c00c        ..      STMMI    r0!,{r2,r3}
        0x080004c4:    f85deb04    ]...    POP      {lr}
        0x080004c8:    0089        ..      LSLS     r1,r1,#2
        0x080004ca:    bf28        (.      IT       CS
        0x080004cc:    f8402b04    @..+    STRCS    r2,[r0],#4
        0x080004d0:    bf08        ..      IT       EQ
        0x080004d2:    4770        pG      BXEQ     lr
        0x080004d4:    bf48        H.      IT       MI
        0x080004d6:    f8202b02     ..+    STRHMI   r2,[r0],#2
        0x080004da:    f0114f80    ...O    TST      r1,#0x40000000
        0x080004de:    bf18        ..      IT       NE
        0x080004e0:    f8002b01    ...+    STRBNE   r2,[r0],#1
        0x080004e4:    4770        pG      BX       lr
    .text
    __use_two_region_memory
        0x080004e6:    4770        pG      BX       lr
    __rt_heap_escrow$2region
        0x080004e8:    4770        pG      BX       lr
    __rt_heap_expand$2region
        0x080004ea:    4770        pG      BX       lr
    .text
    __I$use$semihosting
    __use_no_semihosting_swi
        0x080004ec:    4770        pG      BX       lr
    .text
    __user_setup_stackheap
        0x080004ee:    4675        uF      MOV      r5,lr
        0x080004f0:    f000f82c    ..,.    BL       __user_libspace ; 0x800054c
        0x080004f4:    46ae        .F      MOV      lr,r5
        0x080004f6:    0005        ..      MOVS     r5,r0
        0x080004f8:    4669        iF      MOV      r1,sp
        0x080004fa:    4653        SF      MOV      r3,r10
        0x080004fc:    f0200007     ...    BIC      r0,r0,#7
        0x08000500:    4685        .F      MOV      sp,r0
        0x08000502:    b018        ..      ADD      sp,sp,#0x60
        0x08000504:    b520         .      PUSH     {r5,lr}
        0x08000506:    f7ffff25    ..%.    BL       __user_initial_stackheap ; 0x8000354
        0x0800050a:    e8bd4020    .. @    POP      {r5,lr}
        0x0800050e:    f04f0600    O...    MOV      r6,#0
        0x08000512:    f04f0700    O...    MOV      r7,#0
        0x08000516:    f04f0800    O...    MOV      r8,#0
        0x0800051a:    f04f0b00    O...    MOV      r11,#0
        0x0800051e:    46ac        .F      MOV      r12,r5
        0x08000520:    e8ac09c0    ....    STM      r12!,{r6-r8,r11}
        0x08000524:    e8ac09c0    ....    STM      r12!,{r6-r8,r11}
        0x08000528:    e8ac09c0    ....    STM      r12!,{r6-r8,r11}
        0x0800052c:    e8ac09c0    ....    STM      r12!,{r6-r8,r11}
        0x08000530:    f0210107    !...    BIC      r1,r1,#7
        0x08000534:    468d        .F      MOV      sp,r1
        0x08000536:    4770        pG      BX       lr
    .text
    exit
        0x08000538:    b510        ..      PUSH     {r4,lr}
        0x0800053a:    4604        .F      MOV      r4,r0
        0x0800053c:    f3af8000    ....    NOP.W    
        0x08000540:    4620         F      MOV      r0,r4
        0x08000542:    e8bd4010    ...@    POP      {r4,lr}
        0x08000546:    f7ffbef0    ....    B.W      __rt_exit ; 0x800032a
        0x0800054a:    0000        ..      MOVS     r0,r0
    .text
    __user_libspace
    __user_perproc_libspace
    __user_perthread_libspace
        0x0800054c:    4800        .H      LDR      r0,[pc,#0] ; [0x8000550] = 0x24000010
        0x0800054e:    4770        pG      BX       lr
    $d
        0x08000550:    24000010    ...$    DCD    603979792
        0x08000554:    00000000    ....    DCD    0
    $t.10
    ADC_ConfigureBoostMode
        0x08000558:    b5b0        ..      PUSH     {r4,r5,r7,lr}
        0x0800055a:    4604        .F      MOV      r4,r0
        0x0800055c:    6800        .h      LDR      r0,[r0,#0]
        0x0800055e:    f2421100    B...    MOVW     r1,#0x2100
        0x08000562:    f4407080    @..p    ORR      r0,r0,#0x100
        0x08000566:    f2c40102    ....    MOVT     r1,#0x4002
        0x0800056a:    4288        .B      CMP      r0,r1
        0x0800056c:    d104        ..      BNE      0x8000578 ; ADC_ConfigureBoostMode + 32
        0x0800056e:    f2423008    B..0    MOV      r0,#0x2308
        0x08000572:    f2c40002    ....    MOVT     r0,#0x4002
        0x08000576:    e003        ..      B        0x8000580 ; ADC_ConfigureBoostMode + 40
        0x08000578:    f2463008    F..0    MOV      r0,#0x6308
        0x0800057c:    f6c50002    ....    MOVT     r0,#0x5802
        0x08000580:    6800        .h      LDR      r0,[r0,#0]
        0x08000582:    f4103f40    ..@?    TST      r0,#0x30000
        0x08000586:    d010        ..      BEQ      0x80005aa ; ADC_ConfigureBoostMode + 82
        0x08000588:    f003fc66    ..f.    BL       HAL_RCC_GetHCLKFreq ; 0x8003e58
        0x0800058c:    6861        ah      LDR      r1,[r4,#4]
        0x0800058e:    4605        .F      MOV      r5,r0
        0x08000590:    f5b13f80    ...?    CMP      r1,#0x10000
        0x08000594:    d005        ..      BEQ      0x80005a2 ; ADC_ConfigureBoostMode + 74
        0x08000596:    f5b13f40    ..@?    CMP      r1,#0x30000
        0x0800059a:    d022        ".      BEQ      0x80005e2 ; ADC_ConfigureBoostMode + 138
        0x0800059c:    f5b13f00    ...?    CMP      r1,#0x20000
        0x080005a0:    d120         .      BNE      0x80005e4 ; ADC_ConfigureBoostMode + 140
        0x080005a2:    0c08        ..      LSRS     r0,r1,#16
        0x080005a4:    fbb5f5f0    ....    UDIV     r5,r5,r0
        0x080005a8:    e01c        ..      B        0x80005e4 ; ADC_ConfigureBoostMode + 140
        0x080005aa:    f44f2000    O..     MOV      r0,#0x80000
        0x080005ae:    2100        .!      MOVS     r1,#0
        0x080005b0:    f002f8ce    ....    BL       HAL_RCCEx_GetPeriphCLKFreq ; 0x8002750
        0x080005b4:    6861        ah      LDR      r1,[r4,#4]
        0x080005b6:    4605        .F      MOV      r5,r0
        0x080005b8:    f5a12280    ..."    SUB      r2,r1,#0x40000
        0x080005bc:    ea4f42b2    O..B    ROR      r2,r2,#18
        0x080005c0:    2a0a        .*      CMP      r2,#0xa
        0x080005c2:    d80f        ..      BHI      0x80005e4 ; ADC_ConfigureBoostMode + 140
        0x080005c4:    e8dff002    ....    TBB      [pc,r2]
    $d.11
        0x080005c8:    06060606    ....    DCD    101058054
        0x080005cc:    4b490606    ..IK    DCD    1263076870
        0x080005d0:    00514f4d    MOQ.    DCD    5328717
    $t.12
        0x080005d4:    f06f0001    o...    MVN      r0,#1
        0x080005d8:    ea004051    ..Q@    AND      r0,r0,r1,LSR #17
        0x080005dc:    fbb5f5f0    ....    UDIV     r5,r5,r0
        0x080005e0:    e000        ..      B        0x80005e4 ; ADC_ConfigureBoostMode + 140
        0x080005e2:    08ad        ..      LSRS     r5,r5,#2
        0x080005e4:    f001fde0    ....    BL       HAL_GetREVID ; 0x80021a8
        0x080005e8:    f2410103    A...    MOV      r1,#0x1003
        0x080005ec:    4288        .B      CMP      r0,r1
        0x080005ee:    d80d        ..      BHI      0x800060c ; ADC_ConfigureBoostMode + 180
        0x080005f0:    6820         h      LDR      r0,[r4,#0]
        0x080005f2:    f6425101    B..Q    MOV      r1,#0x2d01
        0x080005f6:    f2c01131    ..1.    MOVT     r1,#0x131
        0x080005fa:    428d        .B      CMP      r5,r1
        0x080005fc:    6881        .h      LDR      r1,[r0,#8]
        0x080005fe:    bf2c        ,.      ITE      CS
        0x08000600:    f4417180    A..q    ORRCS    r1,r1,#0x100
        0x08000604:    f4217180    !..q    BICCC    r1,r1,#0x100
        0x08000608:    6081        .`      STR      r1,[r0,#8]
        0x0800060a:    bdb0        ..      POP      {r4,r5,r7,pc}
        0x0800060c:    f64b4021    K.!@    MOV      r0,#0xbc21
        0x08000610:    f2c000be    ....    MOVT     r0,#0xbe
        0x08000614:    4285        .B      CMP      r5,r0
        0x08000616:    d805        ..      BHI      0x8000624 ; ADC_ConfigureBoostMode + 204
        0x08000618:    6820         h      LDR      r0,[r4,#0]
        0x0800061a:    6881        .h      LDR      r1,[r0,#8]
        0x0800061c:    f4217140    !.@q    BIC      r1,r1,#0x300
        0x08000620:    6081        .`      STR      r1,[r0,#8]
        0x08000622:    bdb0        ..      POP      {r4,r5,r7,pc}
        0x08000624:    f6470041    G.A.    MOV      r0,#0x7841
        0x08000628:    f2c0107d    ..}.    MOVT     r0,#0x17d
        0x0800062c:    4285        .B      CMP      r5,r0
        0x0800062e:    d803        ..      BHI      0x8000638 ; ADC_ConfigureBoostMode + 224
        0x08000630:    6820         h      LDR      r0,[r4,#0]
        0x08000632:    2201        ."      MOVS     r2,#1
        0x08000634:    6881        .h      LDR      r1,[r0,#8]
        0x08000636:    e008        ..      B        0x800064a ; ADC_ConfigureBoostMode + 242
        0x08000638:    6820         h      LDR      r0,[r4,#0]
        0x0800063a:    f24f0181    O...    MOV      r1,#0xf081
        0x0800063e:    f2c021fa    ...!    MOVT     r1,#0x2fa
        0x08000642:    428d        .B      CMP      r5,r1
        0x08000644:    6881        .h      LDR      r1,[r0,#8]
        0x08000646:    d804        ..      BHI      0x8000652 ; ADC_ConfigureBoostMode + 250
        0x08000648:    2202        ."      MOVS     r2,#2
        0x0800064a:    f3622109    b..!    BFI      r1,r2,#8,#2
        0x0800064e:    6081        .`      STR      r1,[r0,#8]
        0x08000650:    bdb0        ..      POP      {r4,r5,r7,pc}
        0x08000652:    f4417140    A.@q    ORR      r1,r1,#0x300
        0x08000656:    6081        .`      STR      r1,[r0,#8]
        0x08000658:    bdb0        ..      POP      {r4,r5,r7,pc}
        0x0800065a:    092d        -.      LSRS     r5,r5,#4
        0x0800065c:    e7c2        ..      B        0x80005e4 ; ADC_ConfigureBoostMode + 140
        0x0800065e:    096d        m.      LSRS     r5,r5,#5
        0x08000660:    e7c0        ..      B        0x80005e4 ; ADC_ConfigureBoostMode + 140
        0x08000662:    09ad        ..      LSRS     r5,r5,#6
        0x08000664:    e7be        ..      B        0x80005e4 ; ADC_ConfigureBoostMode + 140
        0x08000666:    09ed        ..      LSRS     r5,r5,#7
        0x08000668:    e7bc        ..      B        0x80005e4 ; ADC_ConfigureBoostMode + 140
        0x0800066a:    0a2d        -.      LSRS     r5,r5,#8
        0x0800066c:    e7ba        ..      B        0x80005e4 ; ADC_ConfigureBoostMode + 140
        0x0800066e:    0000        ..      MOVS     r0,r0
    ADC_ConversionStop
        0x08000670:    b570        p.      PUSH     {r4-r6,lr}
        0x08000672:    f2420200    B...    MOVW     r2,#0x2000
        0x08000676:    4604        .F      MOV      r4,r0
        0x08000678:    6800        .h      LDR      r0,[r0,#0]
        0x0800067a:    f2c40202    ....    MOVT     r2,#0x4002
        0x0800067e:    4290        .B      CMP      r0,r2
        0x08000680:    460d        .F      MOV      r5,r1
        0x08000682:    d013        ..      BEQ      0x80006ac ; ADC_ConversionStop + 60
        0x08000684:    f2421100    B...    MOVW     r1,#0x2100
        0x08000688:    f2c40102    ....    MOVT     r1,#0x4002
        0x0800068c:    4288        .B      CMP      r0,r1
        0x0800068e:    d00d        ..      BEQ      0x80006ac ; ADC_ConversionStop + 60
        0x08000690:    f2460100    F...    MOVW     r1,#0x6000
        0x08000694:    f6c50102    ....    MOVT     r1,#0x5802
        0x08000698:    4288        .B      CMP      r0,r1
        0x0800069a:    d007        ..      BEQ      0x80006ac ; ADC_ConversionStop + 60
        0x0800069c:    f6474082    G..@    MOV      r0,#0x7c82
        0x080006a0:    f64051dd    @..Q    MOV      r1,#0xddd
        0x080006a4:    f6c00000    ....    MOVT     r0,#0x800
        0x080006a8:    f006fd0e    ....    BL       assert_failed ; 0x80070c8
        0x080006ac:    1e68        h.      SUBS     r0,r5,#1
        0x080006ae:    2803        .(      CMP      r0,#3
        0x080006b0:    d307        ..      BCC      0x80006c2 ; ADC_ConversionStop + 82
        0x080006b2:    f6474082    G..@    MOV      r0,#0x7c82
        0x080006b6:    f64051de    @..Q    MOV      r1,#0xdde
        0x080006ba:    f6c00000    ....    MOVT     r0,#0x800
        0x080006be:    f006fd03    ....    BL       assert_failed ; 0x80070c8
        0x080006c2:    6820         h      LDR      r0,[r4,#0]
        0x080006c4:    f005f8c8    ....    BL       LL_ADC_REG_IsConversionOngoing ; 0x8005858
        0x080006c8:    4606        .F      MOV      r6,r0
        0x080006ca:    6820         h      LDR      r0,[r4,#0]
        0x080006cc:    f005f894    ....    BL       LL_ADC_INJ_IsConversionOngoing ; 0x80057f8
        0x080006d0:    4330        0C      ORRS     r0,r0,r6
        0x080006d2:    d05c        \.      BEQ      0x800078e ; ADC_ConversionStop + 286
        0x080006d4:    6820         h      LDR      r0,[r4,#0]
        0x080006d6:    68c1        .h      LDR      r1,[r0,#0xc]
        0x080006d8:    0189        ..      LSLS     r1,r1,#6
        0x080006da:    d515        ..      BPL      0x8000708 ; ADC_ConversionStop + 152
        0x080006dc:    7d61        a}      LDRB     r1,[r4,#0x15]
        0x080006de:    2901        .)      CMP      r1,#1
        0x080006e0:    d112        ..      BNE      0x8000708 ; ADC_ConversionStop + 152
        0x080006e2:    7d21        !}      LDRB     r1,[r4,#0x14]
        0x080006e4:    2901        .)      CMP      r1,#1
        0x080006e6:    d10f        ..      BNE      0x8000708 ; ADC_ConversionStop + 152
        0x080006e8:    6801        .h      LDR      r1,[r0,#0]
        0x080006ea:    0649        I.      LSLS     r1,r1,#25
        0x080006ec:    d409        ..      BMI      0x8000702 ; ADC_ConversionStop + 146
        0x080006ee:    f64d4101    M..A    MOV      r1,#0xdc01
        0x080006f2:    f2c0010c    ....    MOVT     r1,#0xc
        0x080006f6:    bf00        ..      NOP      
        0x080006f8:    3901        .9      SUBS     r1,#1
        0x080006fa:    d03e        >.      BEQ      0x800077a ; ADC_ConversionStop + 266
        0x080006fc:    6802        .h      LDR      r2,[r0,#0]
        0x080006fe:    0652        R.      LSLS     r2,r2,#25
        0x08000700:    d5fa        ..      BPL      0x80006f8 ; ADC_ConversionStop + 136
        0x08000702:    2501        .%      MOVS     r5,#1
        0x08000704:    2140        @!      MOVS     r1,#0x40
        0x08000706:    6001        .`      STR      r1,[r0,#0]
        0x08000708:    2d02        .-      CMP      r5,#2
        0x0800070a:    d00f        ..      BEQ      0x800072c ; ADC_ConversionStop + 188
        0x0800070c:    f005f8a4    ....    BL       LL_ADC_REG_IsConversionOngoing ; 0x8005858
        0x08000710:    b118        ..      CBZ      r0,0x800071a ; ADC_ConversionStop + 170
        0x08000712:    6820         h      LDR      r0,[r4,#0]
        0x08000714:    f005f890    ....    BL       LL_ADC_IsDisableOngoing ; 0x8005838
        0x08000718:    b118        ..      CBZ      r0,0x8000722 ; ADC_ConversionStop + 178
        0x0800071a:    2d01        .-      CMP      r5,#1
        0x0800071c:    d106        ..      BNE      0x800072c ; ADC_ConversionStop + 188
        0x0800071e:    2604        .&      MOVS     r6,#4
        0x08000720:    e016        ..      B        0x8000750 ; ADC_ConversionStop + 224
        0x08000722:    6820         h      LDR      r0,[r4,#0]
        0x08000724:    f005f8cc    ....    BL       LL_ADC_REG_StopConversion ; 0x80058c0
        0x08000728:    2d01        .-      CMP      r5,#1
        0x0800072a:    d0f8        ..      BEQ      0x800071e ; ADC_ConversionStop + 174
        0x0800072c:    6820         h      LDR      r0,[r4,#0]
        0x0800072e:    f005f863    ..c.    BL       LL_ADC_INJ_IsConversionOngoing ; 0x80057f8
        0x08000732:    b130        0.      CBZ      r0,0x8000742 ; ADC_ConversionStop + 210
        0x08000734:    6820         h      LDR      r0,[r4,#0]
        0x08000736:    f005f87f    ....    BL       LL_ADC_IsDisableOngoing ; 0x8005838
        0x0800073a:    b910        ..      CBNZ     r0,0x8000742 ; ADC_ConversionStop + 210
        0x0800073c:    6820         h      LDR      r0,[r4,#0]
        0x0800073e:    f005f867    ..g.    BL       LL_ADC_INJ_StopConversion ; 0x8005810
        0x08000742:    2604        .&      MOVS     r6,#4
        0x08000744:    2d02        .-      CMP      r5,#2
        0x08000746:    bf08        ..      IT       EQ
        0x08000748:    2608        .&      MOVEQ    r6,#8
        0x0800074a:    2d03        .-      CMP      r5,#3
        0x0800074c:    bf08        ..      IT       EQ
        0x0800074e:    260c        .&      MOVEQ    r6,#0xc
        0x08000750:    f001fd32    ..2.    BL       HAL_GetTick ; 0x80021b8
        0x08000754:    6821        !h      LDR      r1,[r4,#0]
        0x08000756:    6889        .h      LDR      r1,[r1,#8]
        0x08000758:    4231        1B      TST      r1,r6
        0x0800075a:    d018        ..      BEQ      0x800078e ; ADC_ConversionStop + 286
        0x0800075c:    4605        .F      MOV      r5,r0
        0x0800075e:    e003        ..      B        0x8000768 ; ADC_ConversionStop + 248
        0x08000760:    6820         h      LDR      r0,[r4,#0]
        0x08000762:    6880        .h      LDR      r0,[r0,#8]
        0x08000764:    4230        0B      TST      r0,r6
        0x08000766:    d012        ..      BEQ      0x800078e ; ADC_ConversionStop + 286
        0x08000768:    f001fd26    ..&.    BL       HAL_GetTick ; 0x80021b8
        0x0800076c:    1b40        @.      SUBS     r0,r0,r5
        0x0800076e:    2806        .(      CMP      r0,#6
        0x08000770:    d3f6        ..      BCC      0x8000760 ; ADC_ConversionStop + 240
        0x08000772:    6820         h      LDR      r0,[r4,#0]
        0x08000774:    6880        .h      LDR      r0,[r0,#8]
        0x08000776:    4230        0B      TST      r0,r6
        0x08000778:    d0f2        ..      BEQ      0x8000760 ; ADC_ConversionStop + 240
        0x0800077a:    6d60        `m      LDR      r0,[r4,#0x54]
        0x0800077c:    f0400010    @...    ORR      r0,r0,#0x10
        0x08000780:    6560        `e      STR      r0,[r4,#0x54]
        0x08000782:    6da0        .m      LDR      r0,[r4,#0x58]
        0x08000784:    f0400001    @...    ORR      r0,r0,#1
        0x08000788:    65a0        .e      STR      r0,[r4,#0x58]
        0x0800078a:    2001        .       MOVS     r0,#1
        0x0800078c:    bd70        p.      POP      {r4-r6,pc}
        0x0800078e:    2000        .       MOVS     r0,#0
        0x08000790:    bd70        p.      POP      {r4-r6,pc}
        0x08000792:    0000        ..      MOVS     r0,r0
        0x08000794:    0000        ..      MOVS     r0,r0
        0x08000796:    0000        ..      MOVS     r0,r0
    ADC_Disable
        0x08000798:    b5b0        ..      PUSH     {r4,r5,r7,lr}
        0x0800079a:    4604        .F      MOV      r4,r0
        0x0800079c:    6800        .h      LDR      r0,[r0,#0]
        0x0800079e:    f005f84b    ..K.    BL       LL_ADC_IsDisableOngoing ; 0x8005838
        0x080007a2:    4605        .F      MOV      r5,r0
        0x080007a4:    6820         h      LDR      r0,[r4,#0]
        0x080007a6:    f005f84b    ..K.    BL       LL_ADC_IsEnabled ; 0x8005840
        0x080007aa:    4601        .F      MOV      r1,r0
        0x080007ac:    f04f0000    O...    MOV      r0,#0
        0x080007b0:    bb85        ..      CBNZ     r5,0x8000814 ; ADC_Disable + 124
        0x080007b2:    2900        .)      CMP      r1,#0
        0x080007b4:    bf08        ..      IT       EQ
        0x080007b6:    bdb0        ..      POPEQ    {r4,r5,r7,pc}
        0x080007b8:    6820         h      LDR      r0,[r4,#0]
        0x080007ba:    6881        .h      LDR      r1,[r0,#8]
        0x080007bc:    f001010d    ....    AND      r1,r1,#0xd
        0x080007c0:    2901        .)      CMP      r1,#1
        0x080007c2:    d11c        ..      BNE      0x80007fe ; ADC_Disable + 102
        0x080007c4:    f004ffc8    ....    BL       LL_ADC_Disable ; 0x8005758
        0x080007c8:    6820         h      LDR      r0,[r4,#0]
        0x080007ca:    2103        .!      MOVS     r1,#3
        0x080007cc:    6001        .`      STR      r1,[r0,#0]
        0x080007ce:    f001fcf3    ....    BL       HAL_GetTick ; 0x80021b8
        0x080007d2:    6821        !h      LDR      r1,[r4,#0]
        0x080007d4:    6889        .h      LDR      r1,[r1,#8]
        0x080007d6:    07c9        ..      LSLS     r1,r1,#31
        0x080007d8:    d101        ..      BNE      0x80007de ; ADC_Disable + 70
        0x080007da:    2000        .       MOVS     r0,#0
        0x080007dc:    bdb0        ..      POP      {r4,r5,r7,pc}
        0x080007de:    4605        .F      MOV      r5,r0
        0x080007e0:    e004        ..      B        0x80007ec ; ADC_Disable + 84
        0x080007e2:    bf00        ..      NOP      
        0x080007e4:    6820         h      LDR      r0,[r4,#0]
        0x080007e6:    6880        .h      LDR      r0,[r0,#8]
        0x080007e8:    07c0        ..      LSLS     r0,r0,#31
        0x080007ea:    d012        ..      BEQ      0x8000812 ; ADC_Disable + 122
        0x080007ec:    f001fce4    ....    BL       HAL_GetTick ; 0x80021b8
        0x080007f0:    1b40        @.      SUBS     r0,r0,r5
        0x080007f2:    2803        .(      CMP      r0,#3
        0x080007f4:    d3f6        ..      BCC      0x80007e4 ; ADC_Disable + 76
        0x080007f6:    6820         h      LDR      r0,[r4,#0]
        0x080007f8:    6880        .h      LDR      r0,[r0,#8]
        0x080007fa:    07c0        ..      LSLS     r0,r0,#31
        0x080007fc:    d0f2        ..      BEQ      0x80007e4 ; ADC_Disable + 76
        0x080007fe:    6d60        `m      LDR      r0,[r4,#0x54]
        0x08000800:    f0400010    @...    ORR      r0,r0,#0x10
        0x08000804:    6560        `e      STR      r0,[r4,#0x54]
        0x08000806:    6da0        .m      LDR      r0,[r4,#0x58]
        0x08000808:    f0400001    @...    ORR      r0,r0,#1
        0x0800080c:    65a0        .e      STR      r0,[r4,#0x58]
        0x0800080e:    2001        .       MOVS     r0,#1
        0x08000810:    bdb0        ..      POP      {r4,r5,r7,pc}
        0x08000812:    2000        .       MOVS     r0,#0
        0x08000814:    bdb0        ..      POP      {r4,r5,r7,pc}
        0x08000816:    0000        ..      MOVS     r0,r0
    ADC_Enable
        0x08000818:    b570        p.      PUSH     {r4-r6,lr}
        0x0800081a:    4604        .F      MOV      r4,r0
        0x0800081c:    6800        .h      LDR      r0,[r0,#0]
        0x0800081e:    f005f80f    ....    BL       LL_ADC_IsEnabled ; 0x8005840
        0x08000822:    2800        .(      CMP      r0,#0
        0x08000824:    bf1c        ..      ITT      NE
        0x08000826:    2000        .       MOVNE    r0,#0
        0x08000828:    bd70        p.      POPNE    {r4-r6,pc}
        0x0800082a:    6820         h      LDR      r0,[r4,#0]
        0x0800082c:    223f        ?"      MOVS     r2,#0x3f
        0x0800082e:    f2c80200    ....    MOVT     r2,#0x8000
        0x08000832:    6881        .h      LDR      r1,[r0,#8]
        0x08000834:    4211        .B      TST      r1,r2
        0x08000836:    d009        ..      BEQ      0x800084c ; ADC_Enable + 52
        0x08000838:    6d60        `m      LDR      r0,[r4,#0x54]
        0x0800083a:    f0400010    @...    ORR      r0,r0,#0x10
        0x0800083e:    6560        `e      STR      r0,[r4,#0x54]
        0x08000840:    6da0        .m      LDR      r0,[r4,#0x58]
        0x08000842:    f0400001    @...    ORR      r0,r0,#1
        0x08000846:    65a0        .e      STR      r0,[r4,#0x58]
        0x08000848:    2001        .       MOVS     r0,#1
        0x0800084a:    bd70        p.      POP      {r4-r6,pc}
        0x0800084c:    f004ff98    ....    BL       LL_ADC_Enable ; 0x8005780
        0x08000850:    f001fcb2    ....    BL       HAL_GetTick ; 0x80021b8
        0x08000854:    f2420500    B...    MOVW     r5,#0x2000
        0x08000858:    f2463100    F..1    MOVW     r1,#0x6300
        0x0800085c:    f2c40502    ....    MOVT     r5,#0x4002
        0x08000860:    6822        "h      LDR      r2,[r4,#0]
        0x08000862:    f5057680    ...v    ADD      r6,r5,#0x100
        0x08000866:    f5057340    ..@s    ADD      r3,r5,#0x300
        0x0800086a:    f6c50102    ....    MOVT     r1,#0x5802
        0x0800086e:    42b2        .B      CMP      r2,r6
        0x08000870:    bf08        ..      IT       EQ
        0x08000872:    4619        .F      MOVEQ    r1,r3
        0x08000874:    42aa        .B      CMP      r2,r5
        0x08000876:    4605        .F      MOV      r5,r0
        0x08000878:    bf08        ..      IT       EQ
        0x0800087a:    4619        .F      MOVEQ    r1,r3
        0x0800087c:    4608        .F      MOV      r0,r1
        0x0800087e:    f004ff9f    ....    BL       LL_ADC_GetMultimode ; 0x80057c0
        0x08000882:    6821        !h      LDR      r1,[r4,#0]
        0x08000884:    460a        .F      MOV      r2,r1
        0x08000886:    42b1        .B      CMP      r1,r6
        0x08000888:    bf04        ..      ITT      EQ
        0x0800088a:    f2420200    B...    MOVWEQ   r2,#0x2000
        0x0800088e:    f2c40202    ....    MOVTEQ   r2,#0x4002
        0x08000892:    2800        .(      CMP      r0,#0
        0x08000894:    bf18        ..      IT       NE
        0x08000896:    428a        .B      CMPNE    r2,r1
        0x08000898:    d103        ..      BNE      0x80008a2 ; ADC_Enable + 138
        0x0800089a:    6821        !h      LDR      r1,[r4,#0]
        0x0800089c:    6808        .h      LDR      r0,[r1,#0]
        0x0800089e:    07c0        ..      LSLS     r0,r0,#31
        0x080008a0:    d008        ..      BEQ      0x80008b4 ; ADC_Enable + 156
        0x080008a2:    2000        .       MOVS     r0,#0
        0x080008a4:    bd70        p.      POP      {r4-r6,pc}
        0x080008a6:    bf00        ..      NOP      
        0x080008a8:    6821        !h      LDR      r1,[r4,#0]
        0x080008aa:    6808        .h      LDR      r0,[r1,#0]
        0x080008ac:    07c0        ..      LSLS     r0,r0,#31
        0x080008ae:    f04f0000    O...    MOV      r0,#0
        0x080008b2:    d110        ..      BNE      0x80008d6 ; ADC_Enable + 190
        0x080008b4:    4608        .F      MOV      r0,r1
        0x080008b6:    f004ffc3    ....    BL       LL_ADC_IsEnabled ; 0x8005840
        0x080008ba:    b910        ..      CBNZ     r0,0x80008c2 ; ADC_Enable + 170
        0x080008bc:    6820         h      LDR      r0,[r4,#0]
        0x080008be:    f004ff5f    .._.    BL       LL_ADC_Enable ; 0x8005780
        0x080008c2:    f001fc79    ..y.    BL       HAL_GetTick ; 0x80021b8
        0x080008c6:    1b40        @.      SUBS     r0,r0,r5
        0x080008c8:    2803        .(      CMP      r0,#3
        0x080008ca:    d3ed        ..      BCC      0x80008a8 ; ADC_Enable + 144
        0x080008cc:    6820         h      LDR      r0,[r4,#0]
        0x080008ce:    6800        .h      LDR      r0,[r0,#0]
        0x080008d0:    07c0        ..      LSLS     r0,r0,#31
        0x080008d2:    d1e9        ..      BNE      0x80008a8 ; ADC_Enable + 144
        0x080008d4:    e7b0        ..      B        0x8000838 ; ADC_Enable + 32
        0x080008d6:    bd70        p.      POP      {r4-r6,pc}
    ADC_IRQHandler
        0x080008d8:    b580        ..      PUSH     {r7,lr}
        0x080008da:    f24000d4    @...    MOVW     r0,#0xd4
        0x080008de:    f2c24000    ...@    MOVT     r0,#0x2400
        0x080008e2:    f000fda9    ....    BL       HAL_ADC_IRQHandler ; 0x8001438
        0x080008e6:    bd80        ..      POP      {r7,pc}
    BusFault_Handler
        0x080008e8:    e7fe        ..      B        BusFault_Handler ; 0x80008e8
        0x080008ea:    0000        ..      MOVS     r0,r0
        0x080008ec:    0000        ..      MOVS     r0,r0
        0x080008ee:    0000        ..      MOVS     r0,r0
    DebugMon_Handler
        0x080008f0:    4770        pG      BX       lr
        0x080008f2:    0000        ..      MOVS     r0,r0
        0x080008f4:    0000        ..      MOVS     r0,r0
        0x080008f6:    0000        ..      MOVS     r0,r0
    Error_Handler
        0x080008f8:    f3ef8010    ....    MRS      r0,PRIMASK
        0x080008fc:    b672        r.      CPSID    i
        0x080008fe:    bf00        ..      NOP      
        0x08000900:    e7fe        ..      B        0x8000900 ; Error_Handler + 8
        0x08000902:    0000        ..      MOVS     r0,r0
        0x08000904:    0000        ..      MOVS     r0,r0
        0x08000906:    0000        ..      MOVS     r0,r0
    HAL_ADCEx_Calibration_Start
        0x08000908:    b5f0        ..      PUSH     {r4-r7,lr}
        0x0800090a:    b081        ..      SUB      sp,sp,#4
        0x0800090c:    4604        .F      MOV      r4,r0
        0x0800090e:    2000        .       MOVS     r0,#0
        0x08000910:    9000        ..      STR      r0,[sp,#0]
        0x08000912:    f2420300    B...    MOVW     r3,#0x2000
        0x08000916:    6820         h      LDR      r0,[r4,#0]
        0x08000918:    f2c40302    ....    MOVT     r3,#0x4002
        0x0800091c:    4298        .B      CMP      r0,r3
        0x0800091e:    4616        .F      MOV      r6,r2
        0x08000920:    460f        .F      MOV      r7,r1
        0x08000922:    d012        ..      BEQ      0x800094a ; HAL_ADCEx_Calibration_Start + 66
        0x08000924:    f2421100    B...    MOVW     r1,#0x2100
        0x08000928:    f2c40102    ....    MOVT     r1,#0x4002
        0x0800092c:    4288        .B      CMP      r0,r1
        0x0800092e:    d00c        ..      BEQ      0x800094a ; HAL_ADCEx_Calibration_Start + 66
        0x08000930:    f2460100    F...    MOVW     r1,#0x6000
        0x08000934:    f6c50102    ....    MOVT     r1,#0x5802
        0x08000938:    4288        .B      CMP      r0,r1
        0x0800093a:    d006        ..      BEQ      0x800094a ; HAL_ADCEx_Calibration_Start + 66
        0x0800093c:    f64740ba    G..@    MOV      r0,#0x7cba
        0x08000940:    2184        .!      MOVS     r1,#0x84
        0x08000942:    f6c00000    ....    MOVT     r0,#0x800
        0x08000946:    f006fbbf    ....    BL       assert_failed ; 0x80070c8
        0x0800094a:    f24070ff    @..p    MOV      r0,#0x7ff
        0x0800094e:    4286        .B      CMP      r6,r0
        0x08000950:    d00b        ..      BEQ      0x800096a ; HAL_ADCEx_Calibration_Start + 98
        0x08000952:    2000        .       MOVS     r0,#0
        0x08000954:    f2c470ff    ...p    MOVT     r0,#0x47ff
        0x08000958:    4286        .B      CMP      r6,r0
        0x0800095a:    d006        ..      BEQ      0x800096a ; HAL_ADCEx_Calibration_Start + 98
        0x0800095c:    f64740ba    G..@    MOV      r0,#0x7cba
        0x08000960:    2185        .!      MOVS     r1,#0x85
        0x08000962:    f6c00000    ....    MOVT     r0,#0x800
        0x08000966:    f006fbaf    ....    BL       assert_failed ; 0x80070c8
        0x0800096a:    f8940050    ..P.    LDRB     r0,[r4,#0x50]
        0x0800096e:    2801        .(      CMP      r0,#1
        0x08000970:    d101        ..      BNE      0x8000976 ; HAL_ADCEx_Calibration_Start + 110
        0x08000972:    2502        .%      MOVS     r5,#2
        0x08000974:    e033        3.      B        0x80009de ; HAL_ADCEx_Calibration_Start + 214
        0x08000976:    2001        .       MOVS     r0,#1
        0x08000978:    f8840050    ..P.    STRB     r0,[r4,#0x50]
        0x0800097c:    4620         F      MOV      r0,r4
        0x0800097e:    f7ffff0b    ....    BL       ADC_Disable ; 0x8000798
        0x08000982:    4605        .F      MOV      r5,r0
        0x08000984:    2800        .(      CMP      r0,#0
        0x08000986:    6d60        `m      LDR      r0,[r4,#0x54]
        0x08000988:    d002        ..      BEQ      0x8000990 ; HAL_ADCEx_Calibration_Start + 136
        0x0800098a:    f0400010    @...    ORR      r0,r0,#0x10
        0x0800098e:    e022        ".      B        0x80009d6 ; HAL_ADCEx_Calibration_Start + 206
        0x08000990:    f2411102    A...    MOV      r1,#0x1102
        0x08000994:    4632        2F      MOV      r2,r6
        0x08000996:    4388        .C      BICS     r0,r0,r1
        0x08000998:    4639        9F      MOV      r1,r7
        0x0800099a:    3002        .0      ADDS     r0,#2
        0x0800099c:    6560        `e      STR      r0,[r4,#0x54]
        0x0800099e:    6820         h      LDR      r0,[r4,#0]
        0x080009a0:    f004fff6    ....    BL       LL_ADC_StartCalibration ; 0x8005990
        0x080009a4:    f64f0600    O...    MOVW     r6,#0xf800
        0x080009a8:    f2c256c3    ...V    MOVT     r6,#0x25c3
        0x080009ac:    6820         h      LDR      r0,[r4,#0]
        0x080009ae:    f004ff3b    ..;.    BL       LL_ADC_IsCalibrationOnGoing ; 0x8005828
        0x080009b2:    b160        `.      CBZ      r0,0x80009ce ; HAL_ADCEx_Calibration_Start + 198
        0x080009b4:    9800        ..      LDR      r0,[sp,#0]
        0x080009b6:    3001        .0      ADDS     r0,#1
        0x080009b8:    9000        ..      STR      r0,[sp,#0]
        0x080009ba:    9800        ..      LDR      r0,[sp,#0]
        0x080009bc:    42b0        .B      CMP      r0,r6
        0x080009be:    d3f5        ..      BCC      0x80009ac ; HAL_ADCEx_Calibration_Start + 164
        0x080009c0:    6d60        `m      LDR      r0,[r4,#0x54]
        0x080009c2:    2501        .%      MOVS     r5,#1
        0x080009c4:    f0400010    @...    ORR      r0,r0,#0x10
        0x080009c8:    f0200002     ...    BIC      r0,r0,#2
        0x080009cc:    e003        ..      B        0x80009d6 ; HAL_ADCEx_Calibration_Start + 206
        0x080009ce:    6d60        `m      LDR      r0,[r4,#0x54]
        0x080009d0:    2101        .!      MOVS     r1,#1
        0x080009d2:    f3610001    a...    BFI      r0,r1,#0,#2
        0x080009d6:    6560        `e      STR      r0,[r4,#0x54]
        0x080009d8:    2000        .       MOVS     r0,#0
        0x080009da:    f8840050    ..P.    STRB     r0,[r4,#0x50]
        0x080009de:    4628        (F      MOV      r0,r5
        0x080009e0:    b001        ..      ADD      sp,sp,#4
        0x080009e2:    bdf0        ..      POP      {r4-r7,pc}
        0x080009e4:    0000        ..      MOVS     r0,r0
        0x080009e6:    0000        ..      MOVS     r0,r0
    HAL_ADCEx_EndOfSamplingCallback
        0x080009e8:    4770        pG      BX       lr
        0x080009ea:    0000        ..      MOVS     r0,r0
        0x080009ec:    0000        ..      MOVS     r0,r0
        0x080009ee:    0000        ..      MOVS     r0,r0
    HAL_ADCEx_InjectedConvCpltCallback
        0x080009f0:    4770        pG      BX       lr
        0x080009f2:    0000        ..      MOVS     r0,r0
        0x080009f4:    0000        ..      MOVS     r0,r0
        0x080009f6:    0000        ..      MOVS     r0,r0
    HAL_ADCEx_InjectedQueueOverflowCallback
        0x080009f8:    4770        pG      BX       lr
        0x080009fa:    0000        ..      MOVS     r0,r0
        0x080009fc:    0000        ..      MOVS     r0,r0
        0x080009fe:    0000        ..      MOVS     r0,r0
    HAL_ADCEx_LevelOutOfWindow2Callback
        0x08000a00:    4770        pG      BX       lr
        0x08000a02:    0000        ..      MOVS     r0,r0
        0x08000a04:    0000        ..      MOVS     r0,r0
        0x08000a06:    0000        ..      MOVS     r0,r0
    HAL_ADCEx_LevelOutOfWindow3Callback
        0x08000a08:    4770        pG      BX       lr
        0x08000a0a:    0000        ..      MOVS     r0,r0
        0x08000a0c:    0000        ..      MOVS     r0,r0
        0x08000a0e:    0000        ..      MOVS     r0,r0
    HAL_ADCEx_MultiModeConfigChannel
        0x08000a10:    e92d41f0    -..A    PUSH     {r4-r8,lr}
        0x08000a14:    b082        ..      SUB      sp,sp,#8
        0x08000a16:    f2420600    B...    MOVW     r6,#0x2000
        0x08000a1a:    4604        .F      MOV      r4,r0
        0x08000a1c:    f2c40602    ....    MOVT     r6,#0x4002
        0x08000a20:    6800        .h      LDR      r0,[r0,#0]
        0x08000a22:    42b0        .B      CMP      r0,r6
        0x08000a24:    460d        .F      MOV      r5,r1
        0x08000a26:    d007        ..      BEQ      0x8000a38 ; HAL_ADCEx_MultiModeConfigChannel + 40
        0x08000a28:    f64740ba    G..@    MOV      r0,#0x7cba
        0x08000a2c:    f6401139    @.9.    MOV      r1,#0x939
        0x08000a30:    f6c00000    ....    MOVT     r0,#0x800
        0x08000a34:    f006fb48    ..H.    BL       assert_failed ; 0x80070c8
        0x08000a38:    6828        (h      LDR      r0,[r5,#0]
        0x08000a3a:    2809        .(      CMP      r0,#9
        0x08000a3c:    d850        P.      BHI      0x8000ae0 ; HAL_ADCEx_MultiModeConfigChannel + 208
        0x08000a3e:    2101        .!      MOVS     r1,#1
        0x08000a40:    fa01f000    ....    LSL      r0,r1,r0
        0x08000a44:    f24021ef    @..!    MOV      r1,#0x2ef
        0x08000a48:    4208        .B      TST      r0,r1
        0x08000a4a:    d049        I.      BEQ      0x8000ae0 ; HAL_ADCEx_MultiModeConfigChannel + 208
        0x08000a4c:    6828        (h      LDR      r0,[r5,#0]
        0x08000a4e:    b1b8        ..      CBZ      r0,0x8000a80 ; HAL_ADCEx_MultiModeConfigChannel + 112
        0x08000a50:    6868        hh      LDR      r0,[r5,#4]
        0x08000a52:    b128        (.      CBZ      r0,0x8000a60 ; HAL_ADCEx_MultiModeConfigChannel + 80
        0x08000a54:    f5b04f00    ...O    CMP      r0,#0x8000
        0x08000a58:    bf18        ..      IT       NE
        0x08000a5a:    f5b04f40    ..@O    CMPNE    r0,#0xc000
        0x08000a5e:    d136        6.      BNE      0x8000ace ; HAL_ADCEx_MultiModeConfigChannel + 190
        0x08000a60:    68a8        .h      LDR      r0,[r5,#8]
        0x08000a62:    ea4f2030    O.0     ROR      r0,r0,#8
        0x08000a66:    2806        .(      CMP      r0,#6
        0x08000a68:    d30a        ..      BCC      0x8000a80 ; HAL_ADCEx_MultiModeConfigChannel + 112
        0x08000a6a:    3807        .8      SUBS     r0,#7
        0x08000a6c:    2802        .(      CMP      r0,#2
        0x08000a6e:    d307        ..      BCC      0x8000a80 ; HAL_ADCEx_MultiModeConfigChannel + 112
        0x08000a70:    f64740ba    G..@    MOV      r0,#0x7cba
        0x08000a74:    f640113e    @.>.    MOV      r1,#0x93e
        0x08000a78:    f6c00000    ....    MOVT     r0,#0x800
        0x08000a7c:    f006fb24    ..$.    BL       assert_failed ; 0x80070c8
        0x08000a80:    f8940050    ..P.    LDRB     r0,[r4,#0x50]
        0x08000a84:    2801        .(      CMP      r0,#1
        0x08000a86:    d103        ..      BNE      0x8000a90 ; HAL_ADCEx_MultiModeConfigChannel + 128
        0x08000a88:    2002        .       MOVS     r0,#2
        0x08000a8a:    b002        ..      ADD      sp,sp,#8
        0x08000a8c:    e8bd81f0    ....    POP      {r4-r8,pc}
        0x08000a90:    2001        .       MOVS     r0,#1
        0x08000a92:    f8840050    ..P.    STRB     r0,[r4,#0x50]
        0x08000a96:    2000        .       MOVS     r0,#0
        0x08000a98:    9001        ..      STR      r0,[sp,#4]
        0x08000a9a:    9000        ..      STR      r0,[sp,#0]
        0x08000a9c:    6820         h      LDR      r0,[r4,#0]
        0x08000a9e:    42b0        .B      CMP      r0,r6
        0x08000aa0:    d10a        ..      BNE      0x8000ab8 ; HAL_ADCEx_MultiModeConfigChannel + 168
        0x08000aa2:    f5067880    ...x    ADD      r8,r6,#0x100
        0x08000aa6:    4640        @F      MOV      r0,r8
        0x08000aa8:    f004feda    ....    BL       LL_ADC_REG_IsConversionOngoing ; 0x8005860
        0x08000aac:    4607        .F      MOV      r7,r0
        0x08000aae:    6820         h      LDR      r0,[r4,#0]
        0x08000ab0:    f004fed6    ....    BL       LL_ADC_REG_IsConversionOngoing ; 0x8005860
        0x08000ab4:    4338        8C      ORRS     r0,r0,r7
        0x08000ab6:    d01c        ..      BEQ      0x8000af2 ; HAL_ADCEx_MultiModeConfigChannel + 226
        0x08000ab8:    6d60        `m      LDR      r0,[r4,#0x54]
        0x08000aba:    f0400020    @. .    ORR      r0,r0,#0x20
        0x08000abe:    6560        `e      STR      r0,[r4,#0x54]
        0x08000ac0:    2001        .       MOVS     r0,#1
        0x08000ac2:    2100        .!      MOVS     r1,#0
        0x08000ac4:    f8841050    ..P.    STRB     r1,[r4,#0x50]
        0x08000ac8:    b002        ..      ADD      sp,sp,#8
        0x08000aca:    e8bd81f0    ....    POP      {r4-r8,pc}
        0x08000ace:    f64740ba    G..@    MOV      r0,#0x7cba
        0x08000ad2:    f640113d    @.=.    MOV      r1,#0x93d
        0x08000ad6:    f6c00000    ....    MOVT     r0,#0x800
        0x08000ada:    f006faf5    ....    BL       assert_failed ; 0x80070c8
        0x08000ade:    e7bf        ..      B        0x8000a60 ; HAL_ADCEx_MultiModeConfigChannel + 80
        0x08000ae0:    f64740ba    G..@    MOV      r0,#0x7cba
        0x08000ae4:    f640113a    @.:.    MOV      r1,#0x93a
        0x08000ae8:    f6c00000    ....    MOVT     r0,#0x800
        0x08000aec:    f006faec    ....    BL       assert_failed ; 0x80070c8
        0x08000af0:    e7ac        ..      B        0x8000a4c ; HAL_ADCEx_MultiModeConfigChannel + 60
        0x08000af2:    f2460000    F...    MOVW     r0,#0x6000
        0x08000af6:    6821        !h      LDR      r1,[r4,#0]
        0x08000af8:    f6c50002    ....    MOVT     r0,#0x5802
        0x08000afc:    4541        AE      CMP      r1,r8
        0x08000afe:    4607        .F      MOV      r7,r0
        0x08000b00:    bf08        ..      IT       EQ
        0x08000b02:    4637        7F      MOVEQ    r7,r6
        0x08000b04:    42b1        .B      CMP      r1,r6
        0x08000b06:    bf08        ..      IT       EQ
        0x08000b08:    460f        .F      MOVEQ    r7,r1
        0x08000b0a:    682a        *h      LDR      r2,[r5,#0]
        0x08000b0c:    f4417180    A..q    ORR      r1,r1,#0x100
        0x08000b10:    f8d73308    ...3    LDR      r3,[r7,#0x308]
        0x08000b14:    2a00        .*      CMP      r2,#0
        0x08000b16:    f4234240    #.@B    BIC      r2,r3,#0xc000
        0x08000b1a:    d015        ..      BEQ      0x8000b48 ; HAL_ADCEx_MultiModeConfigChannel + 312
        0x08000b1c:    f2421c00    B...    MOVW     r12,#0x2100
        0x08000b20:    686b        kh      LDR      r3,[r5,#4]
        0x08000b22:    f2c40c02    ....    MOVT     r12,#0x4002
        0x08000b26:    4561        aE      CMP      r1,r12
        0x08000b28:    ea420103    B...    ORR      r1,r2,r3
        0x08000b2c:    f8c71308    ....    STR      r1,[r7,#0x308]
        0x08000b30:    d11b        ..      BNE      0x8000b6a ; HAL_ADCEx_MultiModeConfigChannel + 346
        0x08000b32:    4630        0F      MOV      r0,r6
        0x08000b34:    f004fe88    ....    BL       LL_ADC_IsEnabled ; 0x8005848
        0x08000b38:    4606        .F      MOV      r6,r0
        0x08000b3a:    4640        @F      MOV      r0,r8
        0x08000b3c:    f004fe84    ....    BL       LL_ADC_IsEnabled ; 0x8005848
        0x08000b40:    4330        0C      ORRS     r0,r0,r6
        0x08000b42:    b1b0        ..      CBZ      r0,0x8000b72 ; HAL_ADCEx_MultiModeConfigChannel + 354
        0x08000b44:    2000        .       MOVS     r0,#0
        0x08000b46:    e7bc        ..      B        0x8000ac2 ; HAL_ADCEx_MultiModeConfigChannel + 178
        0x08000b48:    f2421300    B...    MOVW     r3,#0x2100
        0x08000b4c:    f8c72308    ...#    STR      r2,[r7,#0x308]
        0x08000b50:    f2c40302    ....    MOVT     r3,#0x4002
        0x08000b54:    4299        .B      CMP      r1,r3
        0x08000b56:    d116        ..      BNE      0x8000b86 ; HAL_ADCEx_MultiModeConfigChannel + 374
        0x08000b58:    4630        0F      MOV      r0,r6
        0x08000b5a:    f004fe75    ..u.    BL       LL_ADC_IsEnabled ; 0x8005848
        0x08000b5e:    4605        .F      MOV      r5,r0
        0x08000b60:    4640        @F      MOV      r0,r8
        0x08000b62:    f004fe71    ..q.    BL       LL_ADC_IsEnabled ; 0x8005848
        0x08000b66:    4328        (C      ORRS     r0,r0,r5
        0x08000b68:    e00f        ..      B        0x8000b8a ; HAL_ADCEx_MultiModeConfigChannel + 378
        0x08000b6a:    f004fe6d    ..m.    BL       LL_ADC_IsEnabled ; 0x8005848
        0x08000b6e:    2800        .(      CMP      r0,#0
        0x08000b70:    d1e8        ..      BNE      0x8000b44 ; HAL_ADCEx_MultiModeConfigChannel + 308
        0x08000b72:    f8d70308    ....    LDR      r0,[r7,#0x308]
        0x08000b76:    f640711f    @..q    MOV      r1,#0xf1f
        0x08000b7a:    4388        .C      BICS     r0,r0,r1
        0x08000b7c:    6829        )h      LDR      r1,[r5,#0]
        0x08000b7e:    68aa        .h      LDR      r2,[r5,#8]
        0x08000b80:    4308        .C      ORRS     r0,r0,r1
        0x08000b82:    4310        .C      ORRS     r0,r0,r2
        0x08000b84:    e009        ..      B        0x8000b9a ; HAL_ADCEx_MultiModeConfigChannel + 394
        0x08000b86:    f004fe5f    .._.    BL       LL_ADC_IsEnabled ; 0x8005848
        0x08000b8a:    b108        ..      CBZ      r0,0x8000b90 ; HAL_ADCEx_MultiModeConfigChannel + 384
        0x08000b8c:    2000        .       MOVS     r0,#0
        0x08000b8e:    e798        ..      B        0x8000ac2 ; HAL_ADCEx_MultiModeConfigChannel + 178
        0x08000b90:    f8d70308    ....    LDR      r0,[r7,#0x308]
        0x08000b94:    f640711f    @..q    MOV      r1,#0xf1f
        0x08000b98:    4388        .C      BICS     r0,r0,r1
        0x08000b9a:    f8c70308    ....    STR      r0,[r7,#0x308]
        0x08000b9e:    2000        .       MOVS     r0,#0
        0x08000ba0:    e78f        ..      B        0x8000ac2 ; HAL_ADCEx_MultiModeConfigChannel + 178
        0x08000ba2:    0000        ..      MOVS     r0,r0
        0x08000ba4:    0000        ..      MOVS     r0,r0
        0x08000ba6:    0000        ..      MOVS     r0,r0
    HAL_ADC_ConfigChannel
        0x08000ba8:    e92d4ff0    -..O    PUSH     {r4-r11,lr}
        0x08000bac:    b081        ..      SUB      sp,sp,#4
        0x08000bae:    4604        .F      MOV      r4,r0
        0x08000bb0:    2000        .       MOVS     r0,#0
        0x08000bb2:    9000        ..      STR      r0,[sp,#0]
        0x08000bb4:    f2420b00    B...    MOVW     r11,#0x2000
        0x08000bb8:    6820         h      LDR      r0,[r4,#0]
        0x08000bba:    f2c40b02    ....    MOVT     r11,#0x4002
        0x08000bbe:    f2460a00    F...    MOVW     r10,#0x6000
        0x08000bc2:    4558        XE      CMP      r0,r11
        0x08000bc4:    460e        .F      MOV      r6,r1
        0x08000bc6:    f6c50a02    ....    MOVT     r10,#0x5802
        0x08000bca:    d008        ..      BEQ      0x8000bde ; HAL_ADC_ConfigChannel + 54
        0x08000bcc:    f2421100    B...    MOVW     r1,#0x2100
        0x08000bd0:    f2c40102    ....    MOVT     r1,#0x4002
        0x08000bd4:    4288        .B      CMP      r0,r1
        0x08000bd6:    bf18        ..      IT       NE
        0x08000bd8:    4550        PE      CMPNE    r0,r10
        0x08000bda:    f0408102    @...    BNE.W    0x8000de2 ; HAL_ADC_ConfigChannel + 570
        0x08000bde:    6870        ph      LDR      r0,[r6,#4]
        0x08000be0:    f5b07f00    ....    CMP      r0,#0x200
        0x08000be4:    da19        ..      BGE      0x8000c1a ; HAL_ADC_ConfigChannel + 114
        0x08000be6:    f5a07180    ...q    SUB      r1,r0,#0x100
        0x08000bea:    2918        .)      CMP      r1,#0x18
        0x08000bec:    d808        ..      BHI      0x8000c00 ; HAL_ADC_ConfigChannel + 88
        0x08000bee:    2201        ."      MOVS     r2,#1
        0x08000bf0:    fa02f101    ....    LSL      r1,r2,r1
        0x08000bf4:    f2410241    A.A.    MOV      r2,#0x1041
        0x08000bf8:    f2c01204    ....    MOVT     r2,#0x104
        0x08000bfc:    4211        .B      TST      r1,r2
        0x08000bfe:    d11b        ..      BNE      0x8000c38 ; HAL_ADC_ConfigChannel + 144
        0x08000c00:    2818        .(      CMP      r0,#0x18
        0x08000c02:    f200813e    ..>.    BHI.W    0x8000e82 ; HAL_ADC_ConfigChannel + 730
        0x08000c06:    2101        .!      MOVS     r1,#1
        0x08000c08:    fa01f000    ....    LSL      r0,r1,r0
        0x08000c0c:    f2410140    A.@.    MOVW     r1,#0x1040
        0x08000c10:    f2c01104    ....    MOVT     r1,#0x104
        0x08000c14:    4208        .B      TST      r0,r1
        0x08000c16:    d10f        ..      BNE      0x8000c38 ; HAL_ADC_ConfigChannel + 144
        0x08000c18:    e133        3.      B        0x8000e82 ; HAL_ADC_ConfigChannel + 730
        0x08000c1a:    f5a07100    ...q    SUB      r1,r0,#0x200
        0x08000c1e:    2918        .)      CMP      r1,#0x18
        0x08000c20:    f2008126    ..&.    BHI.W    0x8000e70 ; HAL_ADC_ConfigChannel + 712
        0x08000c24:    2201        ."      MOVS     r2,#1
        0x08000c26:    fa02f101    ....    LSL      r1,r2,r1
        0x08000c2a:    f2410241    A.A.    MOV      r2,#0x1041
        0x08000c2e:    f2c01204    ....    MOVT     r2,#0x104
        0x08000c32:    4211        .B      TST      r1,r2
        0x08000c34:    f000811c    ....    BEQ.W    0x8000e70 ; HAL_ADC_ConfigChannel + 712
        0x08000c38:    68b0        .h      LDR      r0,[r6,#8]
        0x08000c3a:    2808        .(      CMP      r0,#8
        0x08000c3c:    d307        ..      BCC      0x8000c4e ; HAL_ADC_ConfigChannel + 166
        0x08000c3e:    f6474082    G..@    MOV      r0,#0x7c82
        0x08000c42:    f640310f    @..1    MOV      r1,#0xb0f
        0x08000c46:    f6c00000    ....    MOVT     r0,#0x800
        0x08000c4a:    f006fa3d    ..=.    BL       assert_failed ; 0x80070c8
        0x08000c4e:    2700        .'      MOVS     r7,#0
        0x08000c50:    68f0        .h      LDR      r0,[r6,#0xc]
        0x08000c52:    f24071ff    @..q    MOV      r1,#0x7ff
        0x08000c56:    f2c477ff    ...w    MOVT     r7,#0x47ff
        0x08000c5a:    4288        .B      CMP      r0,r1
        0x08000c5c:    bf18        ..      IT       NE
        0x08000c5e:    42b8        .B      CMPNE    r0,r7
        0x08000c60:    f0408095    @...    BNE.W    0x8000d8e ; HAL_ADC_ConfigChannel + 486
        0x08000c64:    6930        0i      LDR      r0,[r6,#0x10]
        0x08000c66:    2805        .(      CMP      r0,#5
        0x08000c68:    d307        ..      BCC      0x8000c7a ; HAL_ADC_ConfigChannel + 210
        0x08000c6a:    f6474082    G..@    MOV      r0,#0x7c82
        0x08000c6e:    f6403111    @..1    MOV      r1,#0xb11
        0x08000c72:    f6c00000    ....    MOVT     r0,#0x800
        0x08000c76:    f006fa27    ..'.    BL       assert_failed ; 0x80070c8
        0x08000c7a:    f8940038    ..8.    LDRB     r0,[r4,#0x38]
        0x08000c7e:    6975        ui      LDR      r5,[r6,#0x14]
        0x08000c80:    2801        .(      CMP      r0,#1
        0x08000c82:    d112        ..      BNE      0x8000caa ; HAL_ADC_ConfigChannel + 258
        0x08000c84:    6be0        .k      LDR      r0,[r4,#0x3c]
        0x08000c86:    3001        .0      ADDS     r0,#1
        0x08000c88:    fbb5f5f0    ....    UDIV     r5,r5,r0
        0x08000c8c:    6820         h      LDR      r0,[r4,#0]
        0x08000c8e:    f004fd9b    ....    BL       LL_ADC_GetResolution ; 0x80057c8
        0x08000c92:    0840        @.      LSRS     r0,r0,#1
        0x08000c94:    f64f71ff    O..q    MOV      r1,#0xffff
        0x08000c98:    fa21f000    !...    LSR      r0,r1,r0
        0x08000c9c:    4285        .B      CMP      r5,r0
        0x08000c9e:    d916        ..      BLS      0x8000cce ; HAL_ADC_ConfigChannel + 294
        0x08000ca0:    f6474082    G..@    MOV      r0,#0x7c82
        0x08000ca4:    f6403115    @..1    MOV      r1,#0xb15
        0x08000ca8:    e00d        ..      B        0x8000cc6 ; HAL_ADC_ConfigChannel + 286
        0x08000caa:    6820         h      LDR      r0,[r4,#0]
        0x08000cac:    f004fd8c    ....    BL       LL_ADC_GetResolution ; 0x80057c8
        0x08000cb0:    0840        @.      LSRS     r0,r0,#1
        0x08000cb2:    f64f71ff    O..q    MOV      r1,#0xffff
        0x08000cb6:    fa21f000    !...    LSR      r0,r1,r0
        0x08000cba:    4285        .B      CMP      r5,r0
        0x08000cbc:    d907        ..      BLS      0x8000cce ; HAL_ADC_ConfigChannel + 294
        0x08000cbe:    f6474082    G..@    MOV      r0,#0x7c82
        0x08000cc2:    f6403121    @.!1    MOV      r1,#0xb21
        0x08000cc6:    f6c00000    ....    MOVT     r0,#0x800
        0x08000cca:    f006f9fd    ....    BL       assert_failed ; 0x80070c8
        0x08000cce:    6930        0i      LDR      r0,[r6,#0x10]
        0x08000cd0:    2804        .(      CMP      r0,#4
        0x08000cd2:    d00b        ..      BEQ      0x8000cec ; HAL_ADC_ConfigChannel + 324
        0x08000cd4:    f8940038    ..8.    LDRB     r0,[r4,#0x38]
        0x08000cd8:    2801        .(      CMP      r0,#1
        0x08000cda:    d107        ..      BNE      0x8000cec ; HAL_ADC_ConfigChannel + 324
        0x08000cdc:    f6474082    G..@    MOV      r0,#0x7c82
        0x08000ce0:    f6403127    @.'1    MOV      r1,#0xb27
        0x08000ce4:    f6c00000    ....    MOVT     r0,#0x800
        0x08000ce8:    f006f9ee    ....    BL       assert_failed ; 0x80070c8
        0x08000cec:    68f0        .h      LDR      r0,[r6,#0xc]
        0x08000cee:    42b8        .B      CMP      r0,r7
        0x08000cf0:    d12a        *.      BNE      0x8000d48 ; HAL_ADC_ConfigChannel + 416
        0x08000cf2:    6820         h      LDR      r0,[r4,#0]
        0x08000cf4:    4558        XE      CMP      r0,r11
        0x08000cf6:    d07d        }.      BEQ      0x8000df4 ; HAL_ADC_ConfigChannel + 588
        0x08000cf8:    6820         h      LDR      r0,[r4,#0]
        0x08000cfa:    f50b7180    ...q    ADD      r1,r11,#0x100
        0x08000cfe:    4288        .B      CMP      r0,r1
        0x08000d00:    f0008096    ....    BEQ.W    0x8000e30 ; HAL_ADC_ConfigChannel + 648
        0x08000d04:    6820         h      LDR      r0,[r4,#0]
        0x08000d06:    4550        PE      CMP      r0,r10
        0x08000d08:    f04081b8    @...    BNE.W    0x800107c ; HAL_ADC_ConfigChannel + 1236
        0x08000d0c:    f24031ff    @..1    MOV      r1,#0x3ff
        0x08000d10:    6830        0h      LDR      r0,[r6,#0]
        0x08000d12:    f6c22100    ...!    MOVT     r1,#0x2a00
        0x08000d16:    4288        .B      CMP      r0,r1
        0x08000d18:    f30080ea    ....    BGT.W    0x8000ef0 ; HAL_ADC_ConfigChannel + 840
        0x08000d1c:    2107        .!      MOVS     r1,#7
        0x08000d1e:    f6c04190    ...A    MOVT     r1,#0xc90
        0x08000d22:    4288        .B      CMP      r0,r1
        0x08000d24:    f3408183    @...    BLE.W    0x800102e ; HAL_ADC_ConfigChannel + 1158
        0x08000d28:    2108        .!      MOVS     r1,#8
        0x08000d2a:    f6c04190    ...A    MOVT     r1,#0xc90
        0x08000d2e:    4288        .B      CMP      r0,r1
        0x08000d30:    f00081a4    ....    BEQ.W    0x800107c ; HAL_ADC_ConfigChannel + 1236
        0x08000d34:    2110        .!      MOVS     r1,#0x10
        0x08000d36:    f2c101c0    ....    MOVT     r1,#0x10c0
        0x08000d3a:    4288        .B      CMP      r0,r1
        0x08000d3c:    f000819e    ....    BEQ.W    0x800107c ; HAL_ADC_ConfigChannel + 1236
        0x08000d40:    2120         !      MOVS     r1,#0x20
        0x08000d42:    f2c141f0    ...A    MOVT     r1,#0x14f0
        0x08000d46:    e18f        ..      B        0x8001068 ; HAL_ADC_ConfigChannel + 1216
        0x08000d48:    21ff        .!      MOVS     r1,#0xff
        0x08000d4a:    6830        0h      LDR      r0,[r6,#0]
        0x08000d4c:    f2c21180    ....    MOVT     r1,#0x2180
        0x08000d50:    4288        .B      CMP      r0,r1
        0x08000d52:    dc25        %.      BGT      0x8000da0 ; HAL_ADC_ConfigChannel + 504
        0x08000d54:    2103        .!      MOVS     r1,#3
        0x08000d56:    f6c00160    ..`.    MOVT     r1,#0x860
        0x08000d5a:    4288        .B      CMP      r0,r1
        0x08000d5c:    f300809a    ....    BGT.W    0x8000e94 ; HAL_ADC_ConfigChannel + 748
        0x08000d60:    f64f71ff    O..q    MOV      r1,#0xffff
        0x08000d64:    f6cc71b7    ...q    MOVT     r1,#0xcfb7
        0x08000d68:    4288        .B      CMP      r0,r1
        0x08000d6a:    f3008102    ....    BGT.W    0x8000f72 ; HAL_ADC_ConfigChannel + 970
        0x08000d6e:    2100        .!      MOVS     r1,#0
        0x08000d70:    f2cc3121    ..!1    MOVT     r1,#0xc321
        0x08000d74:    4288        .B      CMP      r0,r1
        0x08000d76:    f0008181    ....    BEQ.W    0x800107c ; HAL_ADC_ConfigChannel + 1236
        0x08000d7a:    2100        .!      MOVS     r1,#0
        0x08000d7c:    f2cc7152    ..Rq    MOVT     r1,#0xc752
        0x08000d80:    4288        .B      CMP      r0,r1
        0x08000d82:    f000817b    ..{.    BEQ.W    0x800107c ; HAL_ADC_ConfigChannel + 1236
        0x08000d86:    2100        .!      MOVS     r1,#0
        0x08000d88:    f6cc3184    ...1    MOVT     r1,#0xcb84
        0x08000d8c:    e128        (.      B        0x8000fe0 ; HAL_ADC_ConfigChannel + 1080
        0x08000d8e:    f6474082    G..@    MOV      r0,#0x7c82
        0x08000d92:    f44f6131    O.1a    MOV      r1,#0xb10
        0x08000d96:    f6c00000    ....    MOVT     r0,#0x800
        0x08000d9a:    f006f995    ....    BL       assert_failed ; 0x80070c8
        0x08000d9e:    e761        a.      B        0x8000c64 ; HAL_ADC_ConfigChannel + 188
        0x08000da0:    f64371ff    C..q    MOV      r1,#0x3fff
        0x08000da4:    f6c321c0    ...!    MOVT     r1,#0x3ac0
        0x08000da8:    4288        .B      CMP      r0,r1
        0x08000daa:    f3008089    ....    BGT.W    0x8000ec0 ; HAL_ADC_ConfigChannel + 792
        0x08000dae:    f24071ff    @..q    MOV      r1,#0x7ff
        0x08000db2:    f6c26130    ..0a    MOVT     r1,#0x2e30
        0x08000db6:    4288        .B      CMP      r0,r1
        0x08000db8:    f30080e6    ....    BGT.W    0x8000f88 ; HAL_ADC_ConfigChannel + 992
        0x08000dbc:    f2401100    @...    MOVW     r1,#0x100
        0x08000dc0:    f2c21180    ....    MOVT     r1,#0x2180
        0x08000dc4:    4288        .B      CMP      r0,r1
        0x08000dc6:    f0008159    ..Y.    BEQ.W    0x800107c ; HAL_ADC_ConfigChannel + 1236
        0x08000dca:    f2402100    @..!    MOVW     r1,#0x200
        0x08000dce:    f2c251b0    ...Q    MOVT     r1,#0x25b0
        0x08000dd2:    4288        .B      CMP      r0,r1
        0x08000dd4:    f0008152    ..R.    BEQ.W    0x800107c ; HAL_ADC_ConfigChannel + 1236
        0x08000dd8:    f2404100    @..A    MOVW     r1,#0x400
        0x08000ddc:    f6c22100    ...!    MOVT     r1,#0x2a00
        0x08000de0:    e0fe        ..      B        0x8000fe0 ; HAL_ADC_ConfigChannel + 1080
        0x08000de2:    f6474082    G..@    MOV      r0,#0x7c82
        0x08000de6:    f640310d    @..1    MOV      r1,#0xb0d
        0x08000dea:    f6c00000    ....    MOVT     r0,#0x800
        0x08000dee:    f006f96b    ..k.    BL       assert_failed ; 0x80070c8
        0x08000df2:    e6f4        ..      B        0x8000bde ; HAL_ADC_ConfigChannel + 54
        0x08000df4:    f24031ff    @..1    MOV      r1,#0x3ff
        0x08000df8:    6830        0h      LDR      r0,[r6,#0]
        0x08000dfa:    f6c22100    ...!    MOVT     r1,#0x2a00
        0x08000dfe:    4288        .B      CMP      r0,r1
        0x08000e00:    f3008090    ....    BGT.W    0x8000f24 ; HAL_ADC_ConfigChannel + 892
        0x08000e04:    2107        .!      MOVS     r1,#7
        0x08000e06:    f6c04190    ...A    MOVT     r1,#0xc90
        0x08000e0a:    4288        .B      CMP      r0,r1
        0x08000e0c:    f3408118    @...    BLE.W    0x8001040 ; HAL_ADC_ConfigChannel + 1176
        0x08000e10:    2108        .!      MOVS     r1,#8
        0x08000e12:    f6c04190    ...A    MOVT     r1,#0xc90
        0x08000e16:    4288        .B      CMP      r0,r1
        0x08000e18:    f43faf6e    ?.n.    BEQ      0x8000cf8 ; HAL_ADC_ConfigChannel + 336
        0x08000e1c:    2110        .!      MOVS     r1,#0x10
        0x08000e1e:    f2c101c0    ....    MOVT     r1,#0x10c0
        0x08000e22:    4288        .B      CMP      r0,r1
        0x08000e24:    f43faf68    ?.h.    BEQ      0x8000cf8 ; HAL_ADC_ConfigChannel + 336
        0x08000e28:    2120         !      MOVS     r1,#0x20
        0x08000e2a:    f2c141f0    ...A    MOVT     r1,#0x14f0
        0x08000e2e:    e178        x.      B        0x8001122 ; HAL_ADC_ConfigChannel + 1402
        0x08000e30:    211f        .!      MOVS     r1,#0x1f
        0x08000e32:    6830        0h      LDR      r0,[r6,#0]
        0x08000e34:    f2c141f0    ...A    MOVT     r1,#0x14f0
        0x08000e38:    4288        .B      CMP      r0,r1
        0x08000e3a:    f340808b    @...    BLE.W    0x8000f54 ; HAL_ADC_ConfigChannel + 940
        0x08000e3e:    f24071ff    @..q    MOV      r1,#0x7ff
        0x08000e42:    f6c26130    ..0a    MOVT     r1,#0x2e30
        0x08000e46:    4288        .B      CMP      r0,r1
        0x08000e48:    f34080d1    @...    BLE.W    0x8000fee ; HAL_ADC_ConfigChannel + 1094
        0x08000e4c:    f6400100    @...    MOVW     r1,#0x800
        0x08000e50:    f6c26130    ..0a    MOVT     r1,#0x2e30
        0x08000e54:    4288        .B      CMP      r0,r1
        0x08000e56:    f43faf55    ?.U.    BEQ      0x8000d04 ; HAL_ADC_ConfigChannel + 348
        0x08000e5a:    f2410100    A...    MOVW     r1,#0x1000
        0x08000e5e:    f2c32160    ..`!    MOVT     r1,#0x3260
        0x08000e62:    4288        .B      CMP      r0,r1
        0x08000e64:    f43faf4e    ?.N.    BEQ      0x8000d04 ; HAL_ADC_ConfigChannel + 348
        0x08000e68:    2100        .!      MOVS     r1,#0
        0x08000e6a:    f6c43184    ...1    MOVT     r1,#0x4b84
        0x08000e6e:    e0d2        ..      B        0x8001016 ; HAL_ADC_ConfigChannel + 1134
        0x08000e70:    f5b07f40    ..@.    CMP      r0,#0x300
        0x08000e74:    f43faee0    ?...    BEQ      0x8000c38 ; HAL_ADC_ConfigChannel + 144
        0x08000e78:    f2403106    @..1    MOV      r1,#0x306
        0x08000e7c:    4288        .B      CMP      r0,r1
        0x08000e7e:    f43faedb    ?...    BEQ      0x8000c38 ; HAL_ADC_ConfigChannel + 144
        0x08000e82:    f6474082    G..@    MOV      r0,#0x7c82
        0x08000e86:    f640310e    @..1    MOV      r1,#0xb0e
        0x08000e8a:    f6c00000    ....    MOVT     r0,#0x800
        0x08000e8e:    f006f91b    ....    BL       assert_failed ; 0x80070c8
        0x08000e92:    e6d1        ..      B        0x8000c38 ; HAL_ADC_ConfigChannel + 144
        0x08000e94:    211f        .!      MOVS     r1,#0x1f
        0x08000e96:    f2c141f0    ...A    MOVT     r1,#0x14f0
        0x08000e9a:    4288        .B      CMP      r0,r1
        0x08000e9c:    f3008085    ....    BGT.W    0x8000faa ; HAL_ADC_ConfigChannel + 1026
        0x08000ea0:    2104        .!      MOVS     r1,#4
        0x08000ea2:    f6c00160    ..`.    MOVT     r1,#0x860
        0x08000ea6:    4288        .B      CMP      r0,r1
        0x08000ea8:    f00080e8    ....    BEQ.W    0x800107c ; HAL_ADC_ConfigChannel + 1236
        0x08000eac:    2108        .!      MOVS     r1,#8
        0x08000eae:    f6c04190    ...A    MOVT     r1,#0xc90
        0x08000eb2:    4288        .B      CMP      r0,r1
        0x08000eb4:    f00080e2    ....    BEQ.W    0x800107c ; HAL_ADC_ConfigChannel + 1236
        0x08000eb8:    2110        .!      MOVS     r1,#0x10
        0x08000eba:    f2c101c0    ....    MOVT     r1,#0x10c0
        0x08000ebe:    e08f        ..      B        0x8000fe0 ; HAL_ADC_ConfigChannel + 1080
        0x08000ec0:    f64f71ff    O..q    MOV      r1,#0xffff
        0x08000ec4:    f2c47151    ..Qq    MOVT     r1,#0x4751
        0x08000ec8:    4288        .B      CMP      r0,r1
        0x08000eca:    dc7c        |.      BGT      0x8000fc6 ; HAL_ADC_ConfigChannel + 1054
        0x08000ecc:    f2440100    D...    MOVW     r1,#0x4000
        0x08000ed0:    f6c321c0    ...!    MOVT     r1,#0x3ac0
        0x08000ed4:    4288        .B      CMP      r0,r1
        0x08000ed6:    f00080d1    ....    BEQ.W    0x800107c ; HAL_ADC_ConfigChannel + 1236
        0x08000eda:    f2480100    H...    MOVW     r1,#0x8000
        0x08000ede:    f6c361f0    ...a    MOVT     r1,#0x3ef0
        0x08000ee2:    4288        .B      CMP      r0,r1
        0x08000ee4:    f00080ca    ....    BEQ.W    0x800107c ; HAL_ADC_ConfigChannel + 1236
        0x08000ee8:    2100        .!      MOVS     r1,#0
        0x08000eea:    f2c43121    ..!1    MOVT     r1,#0x4321
        0x08000eee:    e077        w.      B        0x8000fe0 ; HAL_ADC_ConfigChannel + 1080
        0x08000ef0:    f64171ff    A..q    MOV      r1,#0x1fff
        0x08000ef4:    f2c36190    ...a    MOVT     r1,#0x3690
        0x08000ef8:    4288        .B      CMP      r0,r1
        0x08000efa:    f34080ab    @...    BLE.W    0x8001054 ; HAL_ADC_ConfigChannel + 1196
        0x08000efe:    f2420100    B...    MOVW     r1,#0x2000
        0x08000f02:    f2c36190    ...a    MOVT     r1,#0x3690
        0x08000f06:    4288        .B      CMP      r0,r1
        0x08000f08:    f00080b8    ....    BEQ.W    0x800107c ; HAL_ADC_ConfigChannel + 1236
        0x08000f0c:    f2440100    D...    MOVW     r1,#0x4000
        0x08000f10:    f6c321c0    ...!    MOVT     r1,#0x3ac0
        0x08000f14:    4288        .B      CMP      r0,r1
        0x08000f16:    f00080b1    ....    BEQ.W    0x800107c ; HAL_ADC_ConfigChannel + 1236
        0x08000f1a:    f2480100    H...    MOVW     r1,#0x8000
        0x08000f1e:    f6c361f0    ...a    MOVT     r1,#0x3ef0
        0x08000f22:    e0a1        ..      B        0x8001068 ; HAL_ADC_ConfigChannel + 1216
        0x08000f24:    f64071ff    @..q    MOV      r1,#0xfff
        0x08000f28:    f2c32160    ..`!    MOVT     r1,#0x3260
        0x08000f2c:    4288        .B      CMP      r0,r1
        0x08000f2e:    f34080ed    @...    BLE.W    0x800110c ; HAL_ADC_ConfigChannel + 1380
        0x08000f32:    f2410100    A...    MOVW     r1,#0x1000
        0x08000f36:    f2c32160    ..`!    MOVT     r1,#0x3260
        0x08000f3a:    4288        .B      CMP      r0,r1
        0x08000f3c:    f43faedc    ?...    BEQ      0x8000cf8 ; HAL_ADC_ConfigChannel + 336
        0x08000f40:    2100        .!      MOVS     r1,#0
        0x08000f42:    f2c43121    ..!1    MOVT     r1,#0x4321
        0x08000f46:    4288        .B      CMP      r0,r1
        0x08000f48:    f43faed6    ?...    BEQ      0x8000cf8 ; HAL_ADC_ConfigChannel + 336
        0x08000f4c:    2100        .!      MOVS     r1,#0
        0x08000f4e:    f6c43184    ...1    MOVT     r1,#0x4b84
        0x08000f52:    e0e6        ..      B        0x8001122 ; HAL_ADC_ConfigChannel + 1402
        0x08000f54:    2107        .!      MOVS     r1,#7
        0x08000f56:    f6c04190    ...A    MOVT     r1,#0xc90
        0x08000f5a:    4288        .B      CMP      r0,r1
        0x08000f5c:    dc52        R.      BGT      0x8001004 ; HAL_ADC_ConfigChannel + 1116
        0x08000f5e:    2102        .!      MOVS     r1,#2
        0x08000f60:    f2c04130    ..0A    MOVT     r1,#0x430
        0x08000f64:    4288        .B      CMP      r0,r1
        0x08000f66:    f43faecd    ?...    BEQ      0x8000d04 ; HAL_ADC_ConfigChannel + 348
        0x08000f6a:    2104        .!      MOVS     r1,#4
        0x08000f6c:    f6c00160    ..`.    MOVT     r1,#0x860
        0x08000f70:    e051        Q.      B        0x8001016 ; HAL_ADC_ConfigChannel + 1134
        0x08000f72:    2100        .!      MOVS     r1,#0
        0x08000f74:    f6cc71b8    ...q    MOVT     r1,#0xcfb8
        0x08000f78:    4288        .B      CMP      r0,r1
        0x08000f7a:    bf18        ..      IT       NE
        0x08000f7c:    2801        .(      CMPNE    r0,#1
        0x08000f7e:    d07d        }.      BEQ      0x800107c ; HAL_ADC_ConfigChannel + 1236
        0x08000f80:    2102        .!      MOVS     r1,#2
        0x08000f82:    f2c04130    ..0A    MOVT     r1,#0x430
        0x08000f86:    e02b        +.      B        0x8000fe0 ; HAL_ADC_ConfigChannel + 1080
        0x08000f88:    f6400100    @...    MOVW     r1,#0x800
        0x08000f8c:    f6c26130    ..0a    MOVT     r1,#0x2e30
        0x08000f90:    4288        .B      CMP      r0,r1
        0x08000f92:    d073        s.      BEQ      0x800107c ; HAL_ADC_ConfigChannel + 1236
        0x08000f94:    f2410100    A...    MOVW     r1,#0x1000
        0x08000f98:    f2c32160    ..`!    MOVT     r1,#0x3260
        0x08000f9c:    4288        .B      CMP      r0,r1
        0x08000f9e:    d06d        m.      BEQ      0x800107c ; HAL_ADC_ConfigChannel + 1236
        0x08000fa0:    f2420100    B...    MOVW     r1,#0x2000
        0x08000fa4:    f2c36190    ...a    MOVT     r1,#0x3690
        0x08000fa8:    e01a        ..      B        0x8000fe0 ; HAL_ADC_ConfigChannel + 1080
        0x08000faa:    2120         !      MOVS     r1,#0x20
        0x08000fac:    f2c141f0    ...A    MOVT     r1,#0x14f0
        0x08000fb0:    4288        .B      CMP      r0,r1
        0x08000fb2:    d063        c.      BEQ      0x800107c ; HAL_ADC_ConfigChannel + 1236
        0x08000fb4:    2140        @!      MOVS     r1,#0x40
        0x08000fb6:    f6c11120    .. .    MOVT     r1,#0x1920
        0x08000fba:    4288        .B      CMP      r0,r1
        0x08000fbc:    d05e        ^.      BEQ      0x800107c ; HAL_ADC_ConfigChannel + 1236
        0x08000fbe:    2180        .!      MOVS     r1,#0x80
        0x08000fc0:    f6c15150    ..PQ    MOVT     r1,#0x1d50
        0x08000fc4:    e00c        ..      B        0x8000fe0 ; HAL_ADC_ConfigChannel + 1080
        0x08000fc6:    2100        .!      MOVS     r1,#0
        0x08000fc8:    f2c47152    ..Rq    MOVT     r1,#0x4752
        0x08000fcc:    4288        .B      CMP      r0,r1
        0x08000fce:    d055        U.      BEQ      0x800107c ; HAL_ADC_ConfigChannel + 1236
        0x08000fd0:    2100        .!      MOVS     r1,#0
        0x08000fd2:    f6c43184    ...1    MOVT     r1,#0x4b84
        0x08000fd6:    4288        .B      CMP      r0,r1
        0x08000fd8:    d050        P.      BEQ      0x800107c ; HAL_ADC_ConfigChannel + 1236
        0x08000fda:    2100        .!      MOVS     r1,#0
        0x08000fdc:    f6c471b8    ...q    MOVT     r1,#0x4fb8
        0x08000fe0:    4288        .B      CMP      r0,r1
        0x08000fe2:    d04b        K.      BEQ      0x800107c ; HAL_ADC_ConfigChannel + 1236
        0x08000fe4:    f6474082    G..@    MOV      r0,#0x7c82
        0x08000fe8:    f640312c    @.,1    MOV      r1,#0xb2c
        0x08000fec:    e042        B.      B        0x8001074 ; HAL_ADC_ConfigChannel + 1228
        0x08000fee:    2120         !      MOVS     r1,#0x20
        0x08000ff0:    f2c141f0    ...A    MOVT     r1,#0x14f0
        0x08000ff4:    4288        .B      CMP      r0,r1
        0x08000ff6:    f43fae85    ?...    BEQ      0x8000d04 ; HAL_ADC_ConfigChannel + 348
        0x08000ffa:    f2404100    @..A    MOVW     r1,#0x400
        0x08000ffe:    f6c22100    ...!    MOVT     r1,#0x2a00
        0x08001002:    e008        ..      B        0x8001016 ; HAL_ADC_ConfigChannel + 1134
        0x08001004:    2108        .!      MOVS     r1,#8
        0x08001006:    f6c04190    ...A    MOVT     r1,#0xc90
        0x0800100a:    4288        .B      CMP      r0,r1
        0x0800100c:    f43fae7a    ?.z.    BEQ      0x8000d04 ; HAL_ADC_ConfigChannel + 348
        0x08001010:    2110        .!      MOVS     r1,#0x10
        0x08001012:    f2c101c0    ....    MOVT     r1,#0x10c0
        0x08001016:    4288        .B      CMP      r0,r1
        0x08001018:    f43fae74    ?.t.    BEQ      0x8000d04 ; HAL_ADC_ConfigChannel + 348
        0x0800101c:    f6474082    G..@    MOV      r0,#0x7c82
        0x08001020:    f6403136    @.61    MOV      r1,#0xb36
        0x08001024:    f6c00000    ....    MOVT     r0,#0x800
        0x08001028:    f006f84e    ..N.    BL       assert_failed ; 0x80070c8
        0x0800102c:    e66a        j.      B        0x8000d04 ; HAL_ADC_ConfigChannel + 348
        0x0800102e:    2102        .!      MOVS     r1,#2
        0x08001030:    f2c04130    ..0A    MOVT     r1,#0x430
        0x08001034:    4288        .B      CMP      r0,r1
        0x08001036:    d021        !.      BEQ      0x800107c ; HAL_ADC_ConfigChannel + 1236
        0x08001038:    2104        .!      MOVS     r1,#4
        0x0800103a:    f6c00160    ..`.    MOVT     r1,#0x860
        0x0800103e:    e013        ..      B        0x8001068 ; HAL_ADC_ConfigChannel + 1216
        0x08001040:    2102        .!      MOVS     r1,#2
        0x08001042:    f2c04130    ..0A    MOVT     r1,#0x430
        0x08001046:    4288        .B      CMP      r0,r1
        0x08001048:    f43fae56    ?.V.    BEQ      0x8000cf8 ; HAL_ADC_ConfigChannel + 336
        0x0800104c:    2104        .!      MOVS     r1,#4
        0x0800104e:    f6c00160    ..`.    MOVT     r1,#0x860
        0x08001052:    e066        f.      B        0x8001122 ; HAL_ADC_ConfigChannel + 1402
        0x08001054:    f2404100    @..A    MOVW     r1,#0x400
        0x08001058:    f6c22100    ...!    MOVT     r1,#0x2a00
        0x0800105c:    4288        .B      CMP      r0,r1
        0x0800105e:    d00d        ..      BEQ      0x800107c ; HAL_ADC_ConfigChannel + 1236
        0x08001060:    f6400100    @...    MOVW     r1,#0x800
        0x08001064:    f6c26130    ..0a    MOVT     r1,#0x2e30
        0x08001068:    4288        .B      CMP      r0,r1
        0x0800106a:    d007        ..      BEQ      0x800107c ; HAL_ADC_ConfigChannel + 1236
        0x0800106c:    f6474082    G..@    MOV      r0,#0x7c82
        0x08001070:    f640313c    @.<1    MOV      r1,#0xb3c
        0x08001074:    f6c00000    ....    MOVT     r0,#0x800
        0x08001078:    f006f826    ..&.    BL       assert_failed ; 0x80070c8
        0x0800107c:    f8940050    ..P.    LDRB     r0,[r4,#0x50]
        0x08001080:    2801        .(      CMP      r0,#1
        0x08001082:    d103        ..      BNE      0x800108c ; HAL_ADC_ConfigChannel + 1252
        0x08001084:    2002        .       MOVS     r0,#2
        0x08001086:    b001        ..      ADD      sp,sp,#4
        0x08001088:    e8bd8ff0    ....    POP      {r4-r11,pc}
        0x0800108c:    6820         h      LDR      r0,[r4,#0]
        0x0800108e:    2501        .%      MOVS     r5,#1
        0x08001090:    f8845050    ..PP    STRB     r5,[r4,#0x50]
        0x08001094:    f004fbe0    ....    BL       LL_ADC_REG_IsConversionOngoing ; 0x8005858
        0x08001098:    b128        (.      CBZ      r0,0x80010a6 ; HAL_ADC_ConfigChannel + 1278
        0x0800109a:    6d60        `m      LDR      r0,[r4,#0x54]
        0x0800109c:    f0400020    @. .    ORR      r0,r0,#0x20
        0x080010a0:    6560        `e      STR      r0,[r4,#0x54]
        0x080010a2:    2001        .       MOVS     r0,#1
        0x080010a4:    e109        ..      B        0x80012ba ; HAL_ADC_ConfigChannel + 1810
        0x080010a6:    6832        2h      LDR      r2,[r6,#0]
        0x080010a8:    fa92f0a2    ....    RBIT     r0,r2
        0x080010ac:    fab0f380    ....    CLZ      r3,r0
        0x080010b0:    0310        ..      LSLS     r0,r2,#12
        0x080010b2:    bf08        ..      IT       EQ
        0x080010b4:    0e93        ..      LSREQ    r3,r2,#26
        0x080010b6:    6820         h      LDR      r0,[r4,#0]
        0x080010b8:    6871        qh      LDR      r1,[r6,#4]
        0x080010ba:    f003031f    ....    AND      r3,r3,#0x1f
        0x080010be:    fa05f303    ....    LSL      r3,r5,r3
        0x080010c2:    69c5        .i      LDR      r5,[r0,#0x1c]
        0x080010c4:    432b        +C      ORRS     r3,r3,r5
        0x080010c6:    61c3        .a      STR      r3,[r0,#0x1c]
        0x080010c8:    f004fbd6    ....    BL       LL_ADC_REG_SetSequencerRanks ; 0x8005878
        0x080010cc:    6820         h      LDR      r0,[r4,#0]
        0x080010ce:    f004fbc3    ....    BL       LL_ADC_REG_IsConversionOngoing ; 0x8005858
        0x080010d2:    4605        .F      MOV      r5,r0
        0x080010d4:    6820         h      LDR      r0,[r4,#0]
        0x080010d6:    f004fb8f    ....    BL       LL_ADC_INJ_IsConversionOngoing ; 0x80057f8
        0x080010da:    4328        (C      ORRS     r0,r0,r5
        0x080010dc:    f0408096    @...    BNE.W    0x800120c ; HAL_ADC_ConfigChannel + 1636
        0x080010e0:    6820         h      LDR      r0,[r4,#0]
        0x080010e2:    6831        1h      LDR      r1,[r6,#0]
        0x080010e4:    68b2        .h      LDR      r2,[r6,#8]
        0x080010e6:    f004fbf7    ....    BL       LL_ADC_SetChannelSamplingTime ; 0x80058d8
        0x080010ea:    f2410000    A...    MOVW     r0,#0x1000
        0x080010ee:    f6c54000    ...@    MOVT     r0,#0x5c00
        0x080010f2:    6800        .h      LDR      r0,[r0,#0]
        0x080010f4:    f0004070    ..p@    AND      r0,r0,#0xf0000000
        0x080010f8:    f1b05f80    ..._    CMP      r0,#0x10000000
        0x080010fc:    d11d        ..      BNE      0x800113a ; HAL_ADC_ConfigChannel + 1426
        0x080010fe:    6820         h      LDR      r0,[r4,#0]
        0x08001100:    6972        ri      LDR      r2,[r6,#0x14]
        0x08001102:    210e        .!      MOVS     r1,#0xe
        0x08001104:    68c0        .h      LDR      r0,[r0,#0xc]
        0x08001106:    ea010350    ..P.    AND      r3,r1,r0,LSR #1
        0x0800110a:    e023        #.      B        0x8001154 ; HAL_ADC_ConfigChannel + 1452
        0x0800110c:    f2404100    @..A    MOVW     r1,#0x400
        0x08001110:    f6c22100    ...!    MOVT     r1,#0x2a00
        0x08001114:    4288        .B      CMP      r0,r1
        0x08001116:    f43fadef    ?...    BEQ      0x8000cf8 ; HAL_ADC_ConfigChannel + 336
        0x0800111a:    f6400100    @...    MOVW     r1,#0x800
        0x0800111e:    f6c26130    ..0a    MOVT     r1,#0x2e30
        0x08001122:    4288        .B      CMP      r0,r1
        0x08001124:    f43fade8    ?...    BEQ      0x8000cf8 ; HAL_ADC_ConfigChannel + 336
        0x08001128:    f6474082    G..@    MOV      r0,#0x7c82
        0x0800112c:    f6403132    @.21    MOV      r1,#0xb32
        0x08001130:    f6c00000    ....    MOVT     r0,#0x800
        0x08001134:    f005ffc8    ....    BL       assert_failed ; 0x80070c8
        0x08001138:    e5de        ..      B        0x8000cf8 ; HAL_ADC_ConfigChannel + 336
        0x0800113a:    6820         h      LDR      r0,[r4,#0]
        0x0800113c:    68c1        .h      LDR      r1,[r0,#0xc]
        0x0800113e:    6972        ri      LDR      r2,[r6,#0x14]
        0x08001140:    68c0        .h      LDR      r0,[r0,#0xc]
        0x08001142:    06c9        ..      LSLS     r1,r1,#27
        0x08001144:    ea4f0050    O.P.    LSR      r0,r0,#1
        0x08001148:    d402        ..      BMI      0x8001150 ; HAL_ADC_ConfigChannel + 1448
        0x0800114a:    f000030e    ....    AND      r3,r0,#0xe
        0x0800114e:    e001        ..      B        0x8001154 ; HAL_ADC_ConfigChannel + 1452
        0x08001150:    f0000308    ....    AND      r3,r0,#8
        0x08001154:    6931        1i      LDR      r1,[r6,#0x10]
        0x08001156:    6820         h      LDR      r0,[r4,#0]
        0x08001158:    2904        .)      CMP      r1,#4
        0x0800115a:    d128        (.      BNE      0x80011ae ; HAL_ADC_ConfigChannel + 1542
        0x0800115c:    6e01        .n      LDR      r1,[r0,#0x60]
        0x0800115e:    6832        2h      LDR      r2,[r6,#0]
        0x08001160:    f00141f8    ...A    AND      r1,r1,#0x7c000000
        0x08001164:    ebb16f82    ...o    CMP      r1,r2,LSL #26
        0x08001168:    ea4f6182    O..a    LSL      r1,r2,#26
        0x0800116c:    d103        ..      BNE      0x8001176 ; HAL_ADC_ConfigChannel + 1486
        0x0800116e:    6e02        .n      LDR      r2,[r0,#0x60]
        0x08001170:    f0224200    "..B    BIC      r2,r2,#0x80000000
        0x08001174:    6602        .f      STR      r2,[r0,#0x60]
        0x08001176:    6e42        Bn      LDR      r2,[r0,#0x64]
        0x08001178:    f00242f8    ...B    AND      r2,r2,#0x7c000000
        0x0800117c:    428a        .B      CMP      r2,r1
        0x0800117e:    d103        ..      BNE      0x8001188 ; HAL_ADC_ConfigChannel + 1504
        0x08001180:    6e42        Bn      LDR      r2,[r0,#0x64]
        0x08001182:    f0224200    "..B    BIC      r2,r2,#0x80000000
        0x08001186:    6642        Bf      STR      r2,[r0,#0x64]
        0x08001188:    6e82        .n      LDR      r2,[r0,#0x68]
        0x0800118a:    f00242f8    ...B    AND      r2,r2,#0x7c000000
        0x0800118e:    428a        .B      CMP      r2,r1
        0x08001190:    d103        ..      BNE      0x800119a ; HAL_ADC_ConfigChannel + 1522
        0x08001192:    6e82        .n      LDR      r2,[r0,#0x68]
        0x08001194:    f0224200    "..B    BIC      r2,r2,#0x80000000
        0x08001198:    6682        .f      STR      r2,[r0,#0x68]
        0x0800119a:    6ec2        .n      LDR      r2,[r0,#0x6c]
        0x0800119c:    f00242f8    ...B    AND      r2,r2,#0x7c000000
        0x080011a0:    428a        .B      CMP      r2,r1
        0x080011a2:    d133        3.      BNE      0x800120c ; HAL_ADC_ConfigChannel + 1636
        0x080011a4:    6ec1        .n      LDR      r1,[r0,#0x6c]
        0x080011a6:    f0214100    !..A    BIC      r1,r1,#0x80000000
        0x080011aa:    66c1        .f      STR      r1,[r0,#0x6c]
        0x080011ac:    e02e        ..      B        0x800120c ; HAL_ADC_ConfigChannel + 1636
        0x080011ae:    fa02f303    ....    LSL      r3,r2,r3
        0x080011b2:    6832        2h      LDR      r2,[r6,#0]
        0x080011b4:    f004fbd8    ....    BL       LL_ADC_SetOffset ; 0x8005968
        0x080011b8:    7e70        p~      LDRB     r0,[r6,#0x19]
        0x080011ba:    2802        .(      CMP      r0,#2
        0x080011bc:    d307        ..      BCC      0x80011ce ; HAL_ADC_ConfigChannel + 1574
        0x080011be:    f6474082    G..@    MOV      r0,#0x7c82
        0x080011c2:    f6403188    @..1    MOV      r1,#0xb88
        0x080011c6:    f6c00000    ....    MOVT     r0,#0x800
        0x080011ca:    f005ff7d    ..}.    BL       assert_failed ; 0x80070c8
        0x080011ce:    7e70        p~      LDRB     r0,[r6,#0x19]
        0x080011d0:    3801        .8      SUBS     r0,#1
        0x080011d2:    fab0f180    ....    CLZ      r1,r0
        0x080011d6:    6820         h      LDR      r0,[r4,#0]
        0x080011d8:    094a        J.      LSRS     r2,r1,#5
        0x080011da:    6931        1i      LDR      r1,[r6,#0x10]
        0x080011dc:    07d2        ..      LSLS     r2,r2,#31
        0x080011de:    f004fbcf    ....    BL       LL_ADC_SetOffsetSignedSaturation ; 0x8005980
        0x080011e2:    7e30        0~      LDRB     r0,[r6,#0x18]
        0x080011e4:    2802        .(      CMP      r0,#2
        0x080011e6:    d307        ..      BCC      0x80011f8 ; HAL_ADC_ConfigChannel + 1616
        0x080011e8:    f6474082    G..@    MOV      r0,#0x7c82
        0x080011ec:    f640318c    @..1    MOV      r1,#0xb8c
        0x080011f0:    f6c00000    ....    MOVT     r0,#0x800
        0x080011f4:    f005ff68    ..h.    BL       assert_failed ; 0x80070c8
        0x080011f8:    7e30        0~      LDRB     r0,[r6,#0x18]
        0x080011fa:    3801        .8      SUBS     r0,#1
        0x080011fc:    fab0f180    ....    CLZ      r1,r0
        0x08001200:    6820         h      LDR      r0,[r4,#0]
        0x08001202:    094a        J.      LSRS     r2,r1,#5
        0x08001204:    6931        1i      LDR      r1,[r6,#0x10]
        0x08001206:    02d2        ..      LSLS     r2,r2,#11
        0x08001208:    f004fba2    ....    BL       LL_ADC_SetDataRightShift ; 0x8005950
        0x0800120c:    6820         h      LDR      r0,[r4,#0]
        0x0800120e:    f004fb17    ....    BL       LL_ADC_IsEnabled ; 0x8005840
        0x08001212:    b108        ..      CBZ      r0,0x8001218 ; HAL_ADC_ConfigChannel + 1648
        0x08001214:    2000        .       MOVS     r0,#0
        0x08001216:    e050        P.      B        0x80012ba ; HAL_ADC_ConfigChannel + 1810
        0x08001218:    6820         h      LDR      r0,[r4,#0]
        0x0800121a:    6831        1h      LDR      r1,[r6,#0]
        0x0800121c:    68f2        .h      LDR      r2,[r6,#0xc]
        0x0800121e:    f004fb6f    ..o.    BL       LL_ADC_SetChannelSingleDiff ; 0x8005900
        0x08001222:    68f0        .h      LDR      r0,[r6,#0xc]
        0x08001224:    42b8        .B      CMP      r0,r7
        0x08001226:    d143        C.      BNE      0x80012b0 ; HAL_ADC_ConfigChannel + 1800
        0x08001228:    f64f70ff    O..p    MOV      r0,#0xffff
        0x0800122c:    6831        1h      LDR      r1,[r6,#0]
        0x0800122e:    f2c0000f    ....    MOVT     r0,#0xf
        0x08001232:    f04f6780    O..g    MOV      r7,#0x4000000
        0x08001236:    ea110c00    ....    ANDS     r12,r1,r0
        0x0800123a:    fa91f0a1    ....    RBIT     r0,r1
        0x0800123e:    fab0f280    ....    CLZ      r2,r0
        0x08001242:    4613        .F      MOV      r3,r2
        0x08001244:    bf08        ..      IT       EQ
        0x08001246:    0e8b        ..      LSREQ    r3,r1,#26
        0x08001248:    6820         h      LDR      r0,[r4,#0]
        0x0800124a:    1c5d        ].      ADDS     r5,r3,#1
        0x0800124c:    eb076383    ...c    ADD      r3,r7,r3,LSL #26
        0x08001250:    f0050e1e    ....    AND      lr,r5,#0x1e
        0x08001254:    f005051f    ....    AND      r5,r5,#0x1f
        0x08001258:    2701        .'      MOVS     r7,#1
        0x0800125a:    f1be0f09    ....    CMP      lr,#9
        0x0800125e:    f00343f8    ...C    AND      r3,r3,#0x7c000000
        0x08001262:    fa07f505    ....    LSL      r5,r7,r5
        0x08001266:    d80d        ..      BHI      0x8001284 ; HAL_ADC_ConfigChannel + 1756
        0x08001268:    f1bc0f00    ....    CMP      r12,#0
        0x0800126c:    bf08        ..      IT       EQ
        0x0800126e:    0e8a        ..      LSREQ    r2,r1,#26
        0x08001270:    1c51        Q.      ADDS     r1,r2,#1
        0x08001272:    ea430205    C...    ORR      r2,r3,r5
        0x08001276:    f001011f    ....    AND      r1,r1,#0x1f
        0x0800127a:    eb010141    ..A.    ADD      r1,r1,r1,LSL #1
        0x0800127e:    ea425101    B..Q    ORR      r1,r2,r1,LSL #20
        0x08001282:    e012        ..      B        0x80012aa ; HAL_ADC_ConfigChannel + 1794
        0x08001284:    f1bc0f00    ....    CMP      r12,#0
        0x08001288:    bf08        ..      IT       EQ
        0x0800128a:    0e8a        ..      LSREQ    r2,r1,#26
        0x0800128c:    1c51        Q.      ADDS     r1,r2,#1
        0x0800128e:    2200        ."      MOVS     r2,#0
        0x08001290:    f001011f    ....    AND      r1,r1,#0x1f
        0x08001294:    f6cf6220    .. b    MOVT     r2,#0xfe20
        0x08001298:    eb010141    ..A.    ADD      r1,r1,r1,LSL #1
        0x0800129c:    eb025101    ...Q    ADD      r1,r2,r1,LSL #20
        0x080012a0:    ea450203    E...    ORR      r2,r5,r3
        0x080012a4:    4311        .C      ORRS     r1,r1,r2
        0x080012a6:    f0417100    A..q    ORR      r1,r1,#0x2000000
        0x080012aa:    68b2        .h      LDR      r2,[r6,#8]
        0x080012ac:    f004fb14    ....    BL       LL_ADC_SetChannelSamplingTime ; 0x80058d8
        0x080012b0:    6830        0h      LDR      r0,[r6,#0]
        0x080012b2:    f1b03fff    ...?    CMP      r0,#0xffffffff
        0x080012b6:    dd06        ..      BLE      0x80012c6 ; HAL_ADC_ConfigChannel + 1822
        0x080012b8:    2000        .       MOVS     r0,#0
        0x080012ba:    2100        .!      MOVS     r1,#0
        0x080012bc:    f8841050    ..P.    STRB     r1,[r4,#0x50]
        0x080012c0:    b001        ..      ADD      sp,sp,#4
        0x080012c2:    e8bd8ff0    ....    POP      {r4-r11,pc}
        0x080012c6:    f50a7840    ..@x    ADD      r8,r10,#0x300
        0x080012ca:    6821        !h      LDR      r1,[r4,#0]
        0x080012cc:    f50b7580    ...u    ADD      r5,r11,#0x100
        0x080012d0:    f50b7240    ..@r    ADD      r2,r11,#0x300
        0x080012d4:    4640        @F      MOV      r0,r8
        0x080012d6:    42a9        .B      CMP      r1,r5
        0x080012d8:    bf08        ..      IT       EQ
        0x080012da:    4610        .F      MOVEQ    r0,r2
        0x080012dc:    4559        YE      CMP      r1,r11
        0x080012de:    bf08        ..      IT       EQ
        0x080012e0:    4610        .F      MOVEQ    r0,r2
        0x080012e2:    f004fa65    ..e.    BL       LL_ADC_GetCommonPathInternalCh ; 0x80057b0
        0x080012e6:    6821        !h      LDR      r1,[r4,#0]
        0x080012e8:    f2421200    B...    MOVW     r2,#0x2100
        0x080012ec:    f4417180    A..q    ORR      r1,r1,#0x100
        0x080012f0:    f2c40202    ....    MOVT     r2,#0x4002
        0x080012f4:    4291        .B      CMP      r1,r2
        0x080012f6:    4681        .F      MOV      r9,r0
        0x080012f8:    d108        ..      BNE      0x800130c ; HAL_ADC_ConfigChannel + 1892
        0x080012fa:    4658        XF      MOV      r0,r11
        0x080012fc:    f004faa0    ....    BL       LL_ADC_IsEnabled ; 0x8005840
        0x08001300:    4607        .F      MOV      r7,r0
        0x08001302:    4628        (F      MOV      r0,r5
        0x08001304:    f004fa9c    ....    BL       LL_ADC_IsEnabled ; 0x8005840
        0x08001308:    4338        8C      ORRS     r0,r0,r7
        0x0800130a:    e002        ..      B        0x8001312 ; HAL_ADC_ConfigChannel + 1898
        0x0800130c:    4650        PF      MOV      r0,r10
        0x0800130e:    f004fa97    ....    BL       LL_ADC_IsEnabled ; 0x8005840
        0x08001312:    2800        .(      CMP      r0,#0
        0x08001314:    f47faec1    ....    BNE      0x800109a ; HAL_ADC_ConfigChannel + 1266
        0x08001318:    ea5f2009    _..     LSLS     r0,r9,#8
        0x0800131c:    6831        1h      LDR      r1,[r6,#0]
        0x0800131e:    d409        ..      BMI      0x8001334 ; HAL_ADC_ConfigChannel + 1932
        0x08001320:    2000        .       MOVS     r0,#0
        0x08001322:    f6cc3084    ...0    MOVT     r0,#0xcb84
        0x08001326:    4281        .B      CMP      r1,r0
        0x08001328:    d104        ..      BNE      0x8001334 ; HAL_ADC_ConfigChannel + 1932
        0x0800132a:    6820         h      LDR      r0,[r4,#0]
        0x0800132c:    4550        PE      CMP      r0,r10
        0x0800132e:    d01d        ..      BEQ      0x800136c ; HAL_ADC_ConfigChannel + 1988
        0x08001330:    2000        .       MOVS     r0,#0
        0x08001332:    e7c2        ..      B        0x80012ba ; HAL_ADC_ConfigChannel + 1810
        0x08001334:    ea5f10c9    _...    LSLS     r0,r9,#7
        0x08001338:    d409        ..      BMI      0x800134e ; HAL_ADC_ConfigChannel + 1958
        0x0800133a:    2000        .       MOVS     r0,#0
        0x0800133c:    f2cc7052    ..Rp    MOVT     r0,#0xc752
        0x08001340:    4281        .B      CMP      r1,r0
        0x08001342:    d104        ..      BNE      0x800134e ; HAL_ADC_ConfigChannel + 1958
        0x08001344:    6820         h      LDR      r0,[r4,#0]
        0x08001346:    4550        PE      CMP      r0,r10
        0x08001348:    d031        1.      BEQ      0x80013ae ; HAL_ADC_ConfigChannel + 2054
        0x0800134a:    2000        .       MOVS     r0,#0
        0x0800134c:    e7b5        ..      B        0x80012ba ; HAL_ADC_ConfigChannel + 1810
        0x0800134e:    ea5f2049    _.I     LSLS     r0,r9,#9
        0x08001352:    f04f0000    O...    MOV      r0,#0
        0x08001356:    d4b0        ..      BMI      0x80012ba ; HAL_ADC_ConfigChannel + 1810
        0x08001358:    2200        ."      MOVS     r2,#0
        0x0800135a:    f6cc72b8    ...r    MOVT     r2,#0xcfb8
        0x0800135e:    4291        .B      CMP      r1,r2
        0x08001360:    d1ab        ..      BNE      0x80012ba ; HAL_ADC_ConfigChannel + 1810
        0x08001362:    6820         h      LDR      r0,[r4,#0]
        0x08001364:    4550        PE      CMP      r0,r10
        0x08001366:    d027        '.      BEQ      0x80013b8 ; HAL_ADC_ConfigChannel + 2064
        0x08001368:    2000        .       MOVS     r0,#0
        0x0800136a:    e7a6        ..      B        0x80012ba ; HAL_ADC_ConfigChannel + 1810
        0x0800136c:    f4490100    I...    ORR      r1,r9,#0x800000
        0x08001370:    4640        @F      MOV      r0,r8
        0x08001372:    f004fae5    ....    BL       LL_ADC_SetCommonPathInternalCh ; 0x8005940
        0x08001376:    f2400000    @...    MOVW     r0,#0
        0x0800137a:    f6425163    B.cQ    MOV      r1,#0x2d63
        0x0800137e:    f2c24000    ...@    MOVT     r0,#0x2400
        0x08001382:    f2c0513e    ..>Q    MOVT     r1,#0x53e
        0x08001386:    6800        .h      LDR      r0,[r0,#0]
        0x08001388:    0980        ..      LSRS     r0,r0,#6
        0x0800138a:    fba00101    ....    UMULL    r0,r1,r0,r1
        0x0800138e:    0988        ..      LSRS     r0,r1,#6
        0x08001390:    2102        .!      MOVS     r1,#2
        0x08001392:    eb010040    ..@.    ADD      r0,r1,r0,LSL #1
        0x08001396:    9000        ..      STR      r0,[sp,#0]
        0x08001398:    9800        ..      LDR      r0,[sp,#0]
        0x0800139a:    b158        X.      CBZ      r0,0x80013b4 ; HAL_ADC_ConfigChannel + 2060
        0x0800139c:    9800        ..      LDR      r0,[sp,#0]
        0x0800139e:    3801        .8      SUBS     r0,#1
        0x080013a0:    9000        ..      STR      r0,[sp,#0]
        0x080013a2:    9800        ..      LDR      r0,[sp,#0]
        0x080013a4:    2800        .(      CMP      r0,#0
        0x080013a6:    f04f0000    O...    MOV      r0,#0
        0x080013aa:    d1f7        ..      BNE      0x800139c ; HAL_ADC_ConfigChannel + 2036
        0x080013ac:    e785        ..      B        0x80012ba ; HAL_ADC_ConfigChannel + 1810
        0x080013ae:    f0497180    I..q    ORR      r1,r9,#0x1000000
        0x080013b2:    e003        ..      B        0x80013bc ; HAL_ADC_ConfigChannel + 2068
        0x080013b4:    2000        .       MOVS     r0,#0
        0x080013b6:    e780        ..      B        0x80012ba ; HAL_ADC_ConfigChannel + 1810
        0x080013b8:    f4490180    I...    ORR      r1,r9,#0x400000
        0x080013bc:    4640        @F      MOV      r0,r8
        0x080013be:    f004fabf    ....    BL       LL_ADC_SetCommonPathInternalCh ; 0x8005940
        0x080013c2:    2000        .       MOVS     r0,#0
        0x080013c4:    e779        y.      B        0x80012ba ; HAL_ADC_ConfigChannel + 1810
        0x080013c6:    0000        ..      MOVS     r0,r0
    HAL_ADC_ConvCpltCallback
        0x080013c8:    b510        ..      PUSH     {r4,lr}
        0x080013ca:    4604        .F      MOV      r4,r0
        0x080013cc:    f000fd30    ..0.    BL       HAL_ADC_Stop_IT ; 0x8001e30
        0x080013d0:    4620         F      MOV      r0,r4
        0x080013d2:    f000f811    ....    BL       HAL_ADC_GetValue ; 0x80013f8
        0x080013d6:    f24002cc    @...    MOVW     r2,#0xcc
        0x080013da:    4601        .F      MOV      r1,r0
        0x080013dc:    f2c24200    ...B    MOVT     r2,#0x2400
        0x080013e0:    6010        .`      STR      r0,[r2,#0]
        0x080013e2:    f2400070    @.p.    MOVW     r0,#0x70
        0x080013e6:    f2c24000    ...@    MOVT     r0,#0x2400
        0x080013ea:    f005ff2d    ..-.    BL       key_adc_update ; 0x8007248
        0x080013ee:    bd10        ..      POP      {r4,pc}
    HAL_ADC_ErrorCallback
        0x080013f0:    4770        pG      BX       lr
        0x080013f2:    0000        ..      MOVS     r0,r0
        0x080013f4:    0000        ..      MOVS     r0,r0
        0x080013f6:    0000        ..      MOVS     r0,r0
    HAL_ADC_GetValue
        0x080013f8:    b510        ..      PUSH     {r4,lr}
        0x080013fa:    f2420100    B...    MOVW     r1,#0x2000
        0x080013fe:    4604        .F      MOV      r4,r0
        0x08001400:    6800        .h      LDR      r0,[r0,#0]
        0x08001402:    f2c40102    ....    MOVT     r1,#0x4002
        0x08001406:    4288        .B      CMP      r0,r1
        0x08001408:    d013        ..      BEQ      0x8001432 ; HAL_ADC_GetValue + 58
        0x0800140a:    f2421100    B...    MOVW     r1,#0x2100
        0x0800140e:    f2c40102    ....    MOVT     r1,#0x4002
        0x08001412:    4288        .B      CMP      r0,r1
        0x08001414:    d00d        ..      BEQ      0x8001432 ; HAL_ADC_GetValue + 58
        0x08001416:    f2460100    F...    MOVW     r1,#0x6000
        0x0800141a:    f6c50102    ....    MOVT     r1,#0x5802
        0x0800141e:    4288        .B      CMP      r0,r1
        0x08001420:    d007        ..      BEQ      0x8001432 ; HAL_ADC_GetValue + 58
        0x08001422:    f6474082    G..@    MOV      r0,#0x7c82
        0x08001426:    f640112b    @.+.    MOV      r1,#0x92b
        0x0800142a:    f6c00000    ....    MOVT     r0,#0x800
        0x0800142e:    f005fe4b    ..K.    BL       assert_failed ; 0x80070c8
        0x08001432:    6820         h      LDR      r0,[r4,#0]
        0x08001434:    6c00        .l      LDR      r0,[r0,#0x40]
        0x08001436:    bd10        ..      POP      {r4,pc}
    HAL_ADC_IRQHandler
        0x08001438:    e92d4ff0    -..O    PUSH     {r4-r11,lr}
        0x0800143c:    b081        ..      SUB      sp,sp,#4
        0x0800143e:    f2463800    F..8    MOVW     r8,#0x6300
        0x08001442:    f2420900    B...    MOVW     r9,#0x2000
        0x08001446:    6801        .h      LDR      r1,[r0,#0]
        0x08001448:    f6c50802    ....    MOVT     r8,#0x5802
        0x0800144c:    f2c40902    ....    MOVT     r9,#0x4002
        0x08001450:    4604        .F      MOV      r4,r0
        0x08001452:    f5097b80    ...{    ADD      r11,r9,#0x100
        0x08001456:    f5097a40    ..@z    ADD      r10,r9,#0x300
        0x0800145a:    4640        @F      MOV      r0,r8
        0x0800145c:    680d        .h      LDR      r5,[r1,#0]
        0x0800145e:    4559        YE      CMP      r1,r11
        0x08001460:    bf08        ..      IT       EQ
        0x08001462:    4650        PF      MOVEQ    r0,r10
        0x08001464:    4549        IE      CMP      r1,r9
        0x08001466:    684f        Oh      LDR      r7,[r1,#4]
        0x08001468:    bf08        ..      IT       EQ
        0x0800146a:    4650        PF      MOVEQ    r0,r10
        0x0800146c:    f004f9a8    ....    BL       LL_ADC_GetMultimode ; 0x80057c0
        0x08001470:    6821        !h      LDR      r1,[r4,#0]
        0x08001472:    4606        .F      MOV      r6,r0
        0x08001474:    4549        IE      CMP      r1,r9
        0x08001476:    d013        ..      BEQ      0x80014a0 ; HAL_ADC_IRQHandler + 104
        0x08001478:    f2421000    B...    MOVW     r0,#0x2100
        0x0800147c:    f2c40002    ....    MOVT     r0,#0x4002
        0x08001480:    4281        .B      CMP      r1,r0
        0x08001482:    d00d        ..      BEQ      0x80014a0 ; HAL_ADC_IRQHandler + 104
        0x08001484:    f2460000    F...    MOVW     r0,#0x6000
        0x08001488:    f6c50002    ....    MOVT     r0,#0x5802
        0x0800148c:    4281        .B      CMP      r1,r0
        0x0800148e:    d007        ..      BEQ      0x80014a0 ; HAL_ADC_IRQHandler + 104
        0x08001490:    f6474082    G..@    MOV      r0,#0x7c82
        0x08001494:    f6401145    @.E.    MOV      r1,#0x945
        0x08001498:    f6c00000    ....    MOVT     r0,#0x800
        0x0800149c:    f005fe14    ....    BL       assert_failed ; 0x80070c8
        0x080014a0:    6920         i      LDR      r0,[r4,#0x10]
        0x080014a2:    2804        .(      CMP      r0,#4
        0x080014a4:    bf18        ..      IT       NE
        0x080014a6:    2808        .(      CMPNE    r0,#8
        0x080014a8:    d007        ..      BEQ      0x80014ba ; HAL_ADC_IRQHandler + 130
        0x080014aa:    f6474082    G..@    MOV      r0,#0x7c82
        0x080014ae:    f6401146    @.F.    MOV      r1,#0x946
        0x080014b2:    f6c00000    ....    MOVT     r0,#0x800
        0x080014b6:    f005fe07    ....    BL       assert_failed ; 0x80070c8
        0x080014ba:    403d        =@      ANDS     r5,r5,r7
        0x080014bc:    07a8        ..      LSLS     r0,r5,#30
        0x080014be:    d50c        ..      BPL      0x80014da ; HAL_ADC_IRQHandler + 162
        0x080014c0:    6d60        `m      LDR      r0,[r4,#0x54]
        0x080014c2:    06c0        ..      LSLS     r0,r0,#27
        0x080014c4:    d403        ..      BMI      0x80014ce ; HAL_ADC_IRQHandler + 150
        0x080014c6:    6d60        `m      LDR      r0,[r4,#0x54]
        0x080014c8:    f4406000    @..`    ORR      r0,r0,#0x800
        0x080014cc:    6560        `e      STR      r0,[r4,#0x54]
        0x080014ce:    4620         F      MOV      r0,r4
        0x080014d0:    f7fffa8a    ....    BL       HAL_ADCEx_EndOfSamplingCallback ; 0x80009e8
        0x080014d4:    6820         h      LDR      r0,[r4,#0]
        0x080014d6:    2102        .!      MOVS     r1,#2
        0x080014d8:    6001        .`      STR      r1,[r0,#0]
        0x080014da:    0768        h.      LSLS     r0,r5,#29
        0x080014dc:    bf58        X.      IT       PL
        0x080014de:    ea5f7005    _..p    LSLSPL   r0,r5,#28
        0x080014e2:    d543        C.      BPL      0x800156c ; HAL_ADC_IRQHandler + 308
        0x080014e4:    6d60        `m      LDR      r0,[r4,#0x54]
        0x080014e6:    06c0        ..      LSLS     r0,r0,#27
        0x080014e8:    d403        ..      BMI      0x80014f2 ; HAL_ADC_IRQHandler + 186
        0x080014ea:    6d60        `m      LDR      r0,[r4,#0x54]
        0x080014ec:    f4407000    @..p    ORR      r0,r0,#0x200
        0x080014f0:    6560        `e      STR      r0,[r4,#0x54]
        0x080014f2:    6820         h      LDR      r0,[r4,#0]
        0x080014f4:    f004f9b8    ....    BL       LL_ADC_REG_IsTriggerSourceSWStart ; 0x8005868
        0x080014f8:    b390        ..      CBZ      r0,0x8001560 ; HAL_ADC_IRQHandler + 296
        0x080014fa:    6820         h      LDR      r0,[r4,#0]
        0x080014fc:    4601        .F      MOV      r1,r0
        0x080014fe:    4558        XE      CMP      r0,r11
        0x08001500:    bf08        ..      IT       EQ
        0x08001502:    4649        IF      MOVEQ    r1,r9
        0x08001504:    4281        .B      CMP      r1,r0
        0x08001506:    bf18        ..      IT       NE
        0x08001508:    4609        .F      MOVNE    r1,r1
        0x0800150a:    2e00        ..      CMP      r6,#0
        0x0800150c:    bf08        ..      IT       EQ
        0x0800150e:    4601        .F      MOVEQ    r1,r0
        0x08001510:    2e05        ..      CMP      r6,#5
        0x08001512:    bf08        ..      IT       EQ
        0x08001514:    4601        .F      MOVEQ    r1,r0
        0x08001516:    2e09        ..      CMP      r6,#9
        0x08001518:    bf08        ..      IT       EQ
        0x0800151a:    4601        .F      MOVEQ    r1,r0
        0x0800151c:    68c9        .h      LDR      r1,[r1,#0xc]
        0x0800151e:    0489        ..      LSLS     r1,r1,#18
        0x08001520:    d41e        ..      BMI      0x8001560 ; HAL_ADC_IRQHandler + 296
        0x08001522:    6801        .h      LDR      r1,[r0,#0]
        0x08001524:    0709        ..      LSLS     r1,r1,#28
        0x08001526:    d51b        ..      BPL      0x8001560 ; HAL_ADC_IRQHandler + 296
        0x08001528:    f004f996    ....    BL       LL_ADC_REG_IsConversionOngoing ; 0x8005858
        0x0800152c:    b140        @.      CBZ      r0,0x8001540 ; HAL_ADC_IRQHandler + 264
        0x0800152e:    6d60        `m      LDR      r0,[r4,#0x54]
        0x08001530:    f0400010    @...    ORR      r0,r0,#0x10
        0x08001534:    6560        `e      STR      r0,[r4,#0x54]
        0x08001536:    6da0        .m      LDR      r0,[r4,#0x58]
        0x08001538:    f0400001    @...    ORR      r0,r0,#1
        0x0800153c:    65a0        .e      STR      r0,[r4,#0x58]
        0x0800153e:    e00f        ..      B        0x8001560 ; HAL_ADC_IRQHandler + 296
        0x08001540:    6820         h      LDR      r0,[r4,#0]
        0x08001542:    6841        Ah      LDR      r1,[r0,#4]
        0x08001544:    f021010c    !...    BIC      r1,r1,#0xc
        0x08001548:    6041        A`      STR      r1,[r0,#4]
        0x0800154a:    6d60        `m      LDR      r0,[r4,#0x54]
        0x0800154c:    f4207080     ..p    BIC      r0,r0,#0x100
        0x08001550:    6560        `e      STR      r0,[r4,#0x54]
        0x08001552:    6d60        `m      LDR      r0,[r4,#0x54]
        0x08001554:    04c0        ..      LSLS     r0,r0,#19
        0x08001556:    d403        ..      BMI      0x8001560 ; HAL_ADC_IRQHandler + 296
        0x08001558:    6d60        `m      LDR      r0,[r4,#0x54]
        0x0800155a:    f0400001    @...    ORR      r0,r0,#1
        0x0800155e:    6560        `e      STR      r0,[r4,#0x54]
        0x08001560:    4620         F      MOV      r0,r4
        0x08001562:    f7ffff31    ..1.    BL       HAL_ADC_ConvCpltCallback ; 0x80013c8
        0x08001566:    6820         h      LDR      r0,[r4,#0]
        0x08001568:    210c        .!      MOVS     r1,#0xc
        0x0800156a:    6001        .`      STR      r1,[r0,#0]
        0x0800156c:    06a8        ..      LSLS     r0,r5,#26
        0x0800156e:    bf58        X.      IT       PL
        0x08001570:    ea5f6045    _.E`    LSLSPL   r0,r5,#25
        0x08001574:    d54e        N.      BPL      0x8001614 ; HAL_ADC_IRQHandler + 476
        0x08001576:    6d60        `m      LDR      r0,[r4,#0x54]
        0x08001578:    06c0        ..      LSLS     r0,r0,#27
        0x0800157a:    d403        ..      BMI      0x8001584 ; HAL_ADC_IRQHandler + 332
        0x0800157c:    6d60        `m      LDR      r0,[r4,#0x54]
        0x0800157e:    f4405000    @..P    ORR      r0,r0,#0x2000
        0x08001582:    6560        `e      STR      r0,[r4,#0x54]
        0x08001584:    6820         h      LDR      r0,[r4,#0]
        0x08001586:    f004f93b    ..;.    BL       LL_ADC_INJ_IsTriggerSourceSWStart ; 0x8005800
        0x0800158a:    4607        .F      MOV      r7,r0
        0x0800158c:    6820         h      LDR      r0,[r4,#0]
        0x0800158e:    f004f96b    ..k.    BL       LL_ADC_REG_IsTriggerSourceSWStart ; 0x8005868
        0x08001592:    6821        !h      LDR      r1,[r4,#0]
        0x08001594:    f0260301    &...    BIC      r3,r6,#1
        0x08001598:    460a        .F      MOV      r2,r1
        0x0800159a:    4559        YE      CMP      r1,r11
        0x0800159c:    bf08        ..      IT       EQ
        0x0800159e:    464a        JF      MOVEQ    r2,r9
        0x080015a0:    428a        .B      CMP      r2,r1
        0x080015a2:    bf18        ..      IT       NE
        0x080015a4:    4612        .F      MOVNE    r2,r2
        0x080015a6:    2e00        ..      CMP      r6,#0
        0x080015a8:    bf08        ..      IT       EQ
        0x080015aa:    460a        .F      MOVEQ    r2,r1
        0x080015ac:    2b06        .+      CMP      r3,#6
        0x080015ae:    bf08        ..      IT       EQ
        0x080015b0:    460a        .F      MOVEQ    r2,r1
        0x080015b2:    68d2        .h      LDR      r2,[r2,#0xc]
        0x080015b4:    b347        G.      CBZ      r7,0x8001608 ; HAL_ADC_IRQHandler + 464
        0x080015b6:    0193        ..      LSLS     r3,r2,#6
        0x080015b8:    d503        ..      BPL      0x80015c2 ; HAL_ADC_IRQHandler + 394
        0x080015ba:    b328        (.      CBZ      r0,0x8001608 ; HAL_ADC_IRQHandler + 464
        0x080015bc:    f4125000    ...P    ANDS     r0,r2,#0x2000
        0x080015c0:    d122        ".      BNE      0x8001608 ; HAL_ADC_IRQHandler + 464
        0x080015c2:    0290        ..      LSLS     r0,r2,#10
        0x080015c4:    6808        .h      LDR      r0,[r1,#0]
        0x080015c6:    d41f        ..      BMI      0x8001608 ; HAL_ADC_IRQHandler + 464
        0x080015c8:    f0100040    ..@.    ANDS     r0,r0,#0x40
        0x080015cc:    d01c        ..      BEQ      0x8001608 ; HAL_ADC_IRQHandler + 464
        0x080015ce:    4608        .F      MOV      r0,r1
        0x080015d0:    f004f912    ....    BL       LL_ADC_INJ_IsConversionOngoing ; 0x80057f8
        0x080015d4:    b140        @.      CBZ      r0,0x80015e8 ; HAL_ADC_IRQHandler + 432
        0x080015d6:    6d60        `m      LDR      r0,[r4,#0x54]
        0x080015d8:    f0400010    @...    ORR      r0,r0,#0x10
        0x080015dc:    6560        `e      STR      r0,[r4,#0x54]
        0x080015de:    6da0        .m      LDR      r0,[r4,#0x58]
        0x080015e0:    f0400001    @...    ORR      r0,r0,#1
        0x080015e4:    65a0        .e      STR      r0,[r4,#0x58]
        0x080015e6:    e00f        ..      B        0x8001608 ; HAL_ADC_IRQHandler + 464
        0x080015e8:    6820         h      LDR      r0,[r4,#0]
        0x080015ea:    6841        Ah      LDR      r1,[r0,#4]
        0x080015ec:    f0210160    !.`.    BIC      r1,r1,#0x60
        0x080015f0:    6041        A`      STR      r1,[r0,#4]
        0x080015f2:    6d60        `m      LDR      r0,[r4,#0x54]
        0x080015f4:    f4205080     ..P    BIC      r0,r0,#0x1000
        0x080015f8:    6560        `e      STR      r0,[r4,#0x54]
        0x080015fa:    6d60        `m      LDR      r0,[r4,#0x54]
        0x080015fc:    05c0        ..      LSLS     r0,r0,#23
        0x080015fe:    d403        ..      BMI      0x8001608 ; HAL_ADC_IRQHandler + 464
        0x08001600:    6d60        `m      LDR      r0,[r4,#0x54]
        0x08001602:    f0400001    @...    ORR      r0,r0,#1
        0x08001606:    6560        `e      STR      r0,[r4,#0x54]
        0x08001608:    4620         F      MOV      r0,r4
        0x0800160a:    f7fff9f1    ....    BL       HAL_ADCEx_InjectedConvCpltCallback ; 0x80009f0
        0x0800160e:    6820         h      LDR      r0,[r4,#0]
        0x08001610:    2160        `!      MOVS     r1,#0x60
        0x08001612:    6001        .`      STR      r1,[r0,#0]
        0x08001614:    0628        (.      LSLS     r0,r5,#24
        0x08001616:    d40a        ..      BMI      0x800162e ; HAL_ADC_IRQHandler + 502
        0x08001618:    05e8        ..      LSLS     r0,r5,#23
        0x0800161a:    d414        ..      BMI      0x8001646 ; HAL_ADC_IRQHandler + 526
        0x0800161c:    05a8        ..      LSLS     r0,r5,#22
        0x0800161e:    d41f        ..      BMI      0x8001660 ; HAL_ADC_IRQHandler + 552
        0x08001620:    06e8        ..      LSLS     r0,r5,#27
        0x08001622:    d42a        *.      BMI      0x800167a ; HAL_ADC_IRQHandler + 578
        0x08001624:    0568        h.      LSLS     r0,r5,#21
        0x08001626:    d446        F.      BMI      0x80016b6 ; HAL_ADC_IRQHandler + 638
        0x08001628:    b001        ..      ADD      sp,sp,#4
        0x0800162a:    e8bd8ff0    ....    POP      {r4-r11,pc}
        0x0800162e:    6d60        `m      LDR      r0,[r4,#0x54]
        0x08001630:    f4403080    @..0    ORR      r0,r0,#0x10000
        0x08001634:    6560        `e      STR      r0,[r4,#0x54]
        0x08001636:    4620         F      MOV      r0,r4
        0x08001638:    f000face    ....    BL       HAL_ADC_LevelOutOfWindowCallback ; 0x8001bd8
        0x0800163c:    6820         h      LDR      r0,[r4,#0]
        0x0800163e:    2180        .!      MOVS     r1,#0x80
        0x08001640:    6001        .`      STR      r1,[r0,#0]
        0x08001642:    05e8        ..      LSLS     r0,r5,#23
        0x08001644:    d5ea        ..      BPL      0x800161c ; HAL_ADC_IRQHandler + 484
        0x08001646:    6d60        `m      LDR      r0,[r4,#0x54]
        0x08001648:    f4403000    @..0    ORR      r0,r0,#0x20000
        0x0800164c:    6560        `e      STR      r0,[r4,#0x54]
        0x0800164e:    4620         F      MOV      r0,r4
        0x08001650:    f7fff9d6    ....    BL       HAL_ADCEx_LevelOutOfWindow2Callback ; 0x8000a00
        0x08001654:    6820         h      LDR      r0,[r4,#0]
        0x08001656:    f44f7180    O..q    MOV      r1,#0x100
        0x0800165a:    6001        .`      STR      r1,[r0,#0]
        0x0800165c:    05a8        ..      LSLS     r0,r5,#22
        0x0800165e:    d5df        ..      BPL      0x8001620 ; HAL_ADC_IRQHandler + 488
        0x08001660:    6d60        `m      LDR      r0,[r4,#0x54]
        0x08001662:    f4402080    @..     ORR      r0,r0,#0x40000
        0x08001666:    6560        `e      STR      r0,[r4,#0x54]
        0x08001668:    4620         F      MOV      r0,r4
        0x0800166a:    f7fff9cd    ....    BL       HAL_ADCEx_LevelOutOfWindow3Callback ; 0x8000a08
        0x0800166e:    6820         h      LDR      r0,[r4,#0]
        0x08001670:    f44f7100    O..q    MOV      r1,#0x200
        0x08001674:    6001        .`      STR      r1,[r0,#0]
        0x08001676:    06e8        ..      LSLS     r0,r5,#27
        0x08001678:    d5d4        ..      BPL      0x8001624 ; HAL_ADC_IRQHandler + 492
        0x0800167a:    6b20         k      LDR      r0,[r4,#0x30]
        0x0800167c:    b158        X.      CBZ      r0,0x8001696 ; HAL_ADC_IRQHandler + 606
        0x0800167e:    6820         h      LDR      r0,[r4,#0]
        0x08001680:    b35e        ^.      CBZ      r6,0x80016da ; HAL_ADC_IRQHandler + 674
        0x08001682:    4558        XE      CMP      r0,r11
        0x08001684:    bf08        ..      IT       EQ
        0x08001686:    46d0        .F      MOVEQ    r8,r10
        0x08001688:    4548        HE      CMP      r0,r9
        0x0800168a:    bf08        ..      IT       EQ
        0x0800168c:    46d0        .F      MOVEQ    r8,r10
        0x0800168e:    4640        @F      MOV      r0,r8
        0x08001690:    f004f892    ....    BL       LL_ADC_GetMultiDMATransfer ; 0x80057b8
        0x08001694:    b150        P.      CBZ      r0,0x80016ac ; HAL_ADC_IRQHandler + 628
        0x08001696:    6d60        `m      LDR      r0,[r4,#0x54]
        0x08001698:    f4406080    @..`    ORR      r0,r0,#0x400
        0x0800169c:    6560        `e      STR      r0,[r4,#0x54]
        0x0800169e:    6da0        .m      LDR      r0,[r4,#0x58]
        0x080016a0:    f0400002    @...    ORR      r0,r0,#2
        0x080016a4:    65a0        .e      STR      r0,[r4,#0x58]
        0x080016a6:    4620         F      MOV      r0,r4
        0x080016a8:    f7fffea2    ....    BL       HAL_ADC_ErrorCallback ; 0x80013f0
        0x080016ac:    6820         h      LDR      r0,[r4,#0]
        0x080016ae:    2110        .!      MOVS     r1,#0x10
        0x080016b0:    6001        .`      STR      r1,[r0,#0]
        0x080016b2:    0568        h.      LSLS     r0,r5,#21
        0x080016b4:    d5b8        ..      BPL      0x8001628 ; HAL_ADC_IRQHandler + 496
        0x080016b6:    6820         h      LDR      r0,[r4,#0]
        0x080016b8:    6d61        am      LDR      r1,[r4,#0x54]
        0x080016ba:    f4414180    A..A    ORR      r1,r1,#0x4000
        0x080016be:    6561        ae      STR      r1,[r4,#0x54]
        0x080016c0:    6da1        .m      LDR      r1,[r4,#0x58]
        0x080016c2:    f0410108    A...    ORR      r1,r1,#8
        0x080016c6:    65a1        .e      STR      r1,[r4,#0x58]
        0x080016c8:    f44f6180    O..a    MOV      r1,#0x400
        0x080016cc:    6001        .`      STR      r1,[r0,#0]
        0x080016ce:    4620         F      MOV      r0,r4
        0x080016d0:    f7fff992    ....    BL       HAL_ADCEx_InjectedQueueOverflowCallback ; 0x80009f8
        0x080016d4:    b001        ..      ADD      sp,sp,#4
        0x080016d6:    e8bd8ff0    ....    POP      {r4-r11,pc}
        0x080016da:    68c0        .h      LDR      r0,[r0,#0xc]
        0x080016dc:    f0000003    ....    AND      r0,r0,#3
        0x080016e0:    2800        .(      CMP      r0,#0
        0x080016e2:    d1d8        ..      BNE      0x8001696 ; HAL_ADC_IRQHandler + 606
        0x080016e4:    e7e2        ..      B        0x80016ac ; HAL_ADC_IRQHandler + 628
        0x080016e6:    0000        ..      MOVS     r0,r0
    HAL_ADC_Init
        0x080016e8:    b5f0        ..      PUSH     {r4-r7,lr}
        0x080016ea:    b081        ..      SUB      sp,sp,#4
        0x080016ec:    4604        .F      MOV      r4,r0
        0x080016ee:    2800        .(      CMP      r0,#0
        0x080016f0:    f04f0000    O...    MOV      r0,#0
        0x080016f4:    9000        ..      STR      r0,[sp,#0]
        0x080016f6:    d02b        +.      BEQ      0x8001750 ; HAL_ADC_Init + 104
        0x080016f8:    f2420100    B...    MOVW     r1,#0x2000
        0x080016fc:    6820         h      LDR      r0,[r4,#0]
        0x080016fe:    f2c40102    ....    MOVT     r1,#0x4002
        0x08001702:    4288        .B      CMP      r0,r1
        0x08001704:    d013        ..      BEQ      0x800172e ; HAL_ADC_Init + 70
        0x08001706:    f2421100    B...    MOVW     r1,#0x2100
        0x0800170a:    f2c40102    ....    MOVT     r1,#0x4002
        0x0800170e:    4288        .B      CMP      r0,r1
        0x08001710:    d00d        ..      BEQ      0x800172e ; HAL_ADC_Init + 70
        0x08001712:    f2460100    F...    MOVW     r1,#0x6000
        0x08001716:    f6c50102    ....    MOVT     r1,#0x5802
        0x0800171a:    4288        .B      CMP      r0,r1
        0x0800171c:    d007        ..      BEQ      0x800172e ; HAL_ADC_Init + 70
        0x0800171e:    f6474082    G..@    MOV      r0,#0x7c82
        0x08001722:    f24011a7    @...    MOV      r1,#0x1a7
        0x08001726:    f6c00000    ....    MOVT     r0,#0x800
        0x0800172a:    f005fccd    ....    BL       assert_failed ; 0x80070c8
        0x0800172e:    6860        `h      LDR      r0,[r4,#4]
        0x08001730:    f5b01f80    ....    CMP      r0,#0x100000
        0x08001734:    db0e        ..      BLT      0x8001754 ; HAL_ADC_Init + 108
        0x08001736:    f5b01f00    ....    CMP      r0,#0x200000
        0x0800173a:    da18        ..      BGE      0x800176e ; HAL_ADC_Init + 134
        0x0800173c:    f5b01fc0    ....    CMP      r0,#0x180000
        0x08001740:    da28        (.      BGE      0x8001794 ; HAL_ADC_Init + 172
        0x08001742:    f5b01f80    ....    CMP      r0,#0x100000
        0x08001746:    d03b        ;.      BEQ      0x80017c0 ; HAL_ADC_Init + 216
        0x08001748:    f5b01fa0    ....    CMP      r0,#0x140000
        0x0800174c:    d038        8.      BEQ      0x80017c0 ; HAL_ADC_Init + 216
        0x0800174e:    e02f        /.      B        0x80017b0 ; HAL_ADC_Init + 200
        0x08001750:    2501        .%      MOVS     r5,#1
        0x08001752:    e233        3.      B        0x8001bbc ; HAL_ADC_Init + 1236
        0x08001754:    f5b03f40    ..@?    CMP      r0,#0x30000
        0x08001758:    db13        ..      BLT      0x8001782 ; HAL_ADC_Init + 154
        0x0800175a:    f5b02f00    .../    CMP      r0,#0x80000
        0x0800175e:    da1e        ..      BGE      0x800179e ; HAL_ADC_Init + 182
        0x08001760:    f5b03f40    ..@?    CMP      r0,#0x30000
        0x08001764:    d02c        ,.      BEQ      0x80017c0 ; HAL_ADC_Init + 216
        0x08001766:    f5b02f80    .../    CMP      r0,#0x40000
        0x0800176a:    d029        ).      BEQ      0x80017c0 ; HAL_ADC_Init + 216
        0x0800176c:    e020         .      B        0x80017b0 ; HAL_ADC_Init + 200
        0x0800176e:    f5b01f20    .. .    CMP      r0,#0x280000
        0x08001772:    da19        ..      BGE      0x80017a8 ; HAL_ADC_Init + 192
        0x08001774:    f5b01f00    ....    CMP      r0,#0x200000
        0x08001778:    d022        ".      BEQ      0x80017c0 ; HAL_ADC_Init + 216
        0x0800177a:    f5b01f10    ....    CMP      r0,#0x240000
        0x0800177e:    d01f        ..      BEQ      0x80017c0 ; HAL_ADC_Init + 216
        0x08001780:    e016        ..      B        0x80017b0 ; HAL_ADC_Init + 200
        0x08001782:    2800        .(      CMP      r0,#0
        0x08001784:    bf18        ..      IT       NE
        0x08001786:    f5b03f80    ...?    CMPNE    r0,#0x10000
        0x0800178a:    d019        ..      BEQ      0x80017c0 ; HAL_ADC_Init + 216
        0x0800178c:    f5b03f00    ...?    CMP      r0,#0x20000
        0x08001790:    d016        ..      BEQ      0x80017c0 ; HAL_ADC_Init + 216
        0x08001792:    e00d        ..      B        0x80017b0 ; HAL_ADC_Init + 200
        0x08001794:    d014        ..      BEQ      0x80017c0 ; HAL_ADC_Init + 216
        0x08001796:    f5b01fe0    ....    CMP      r0,#0x1c0000
        0x0800179a:    d011        ..      BEQ      0x80017c0 ; HAL_ADC_Init + 216
        0x0800179c:    e008        ..      B        0x80017b0 ; HAL_ADC_Init + 200
        0x0800179e:    d00f        ..      BEQ      0x80017c0 ; HAL_ADC_Init + 216
        0x080017a0:    f5b02f40    ..@/    CMP      r0,#0xc0000
        0x080017a4:    d00c        ..      BEQ      0x80017c0 ; HAL_ADC_Init + 216
        0x080017a6:    e003        ..      B        0x80017b0 ; HAL_ADC_Init + 200
        0x080017a8:    d00a        ..      BEQ      0x80017c0 ; HAL_ADC_Init + 216
        0x080017aa:    f5b01f30    ..0.    CMP      r0,#0x2c0000
        0x080017ae:    d007        ..      BEQ      0x80017c0 ; HAL_ADC_Init + 216
        0x080017b0:    f6474082    G..@    MOV      r0,#0x7c82
        0x080017b4:    f44f71d4    O..q    MOV      r1,#0x1a8
        0x080017b8:    f6c00000    ....    MOVT     r0,#0x800
        0x080017bc:    f005fc84    ....    BL       assert_failed ; 0x80070c8
        0x080017c0:    68a0        .h      LDR      r0,[r4,#8]
        0x080017c2:    ea4f00b0    O...    ROR      r0,r0,#2
        0x080017c6:    2807        .(      CMP      r0,#7
        0x080017c8:    d307        ..      BCC      0x80017da ; HAL_ADC_Init + 242
        0x080017ca:    f6474082    G..@    MOV      r0,#0x7c82
        0x080017ce:    f24011a9    @...    MOV      r1,#0x1a9
        0x080017d2:    f6c00000    ....    MOVT     r0,#0x800
        0x080017d6:    f005fc77    ..w.    BL       assert_failed ; 0x80070c8
        0x080017da:    68e0        .h      LDR      r0,[r4,#0xc]
        0x080017dc:    2802        .(      CMP      r0,#2
        0x080017de:    d307        ..      BCC      0x80017f0 ; HAL_ADC_Init + 264
        0x080017e0:    f6474082    G..@    MOV      r0,#0x7c82
        0x080017e4:    f44f71d5    O..q    MOV      r1,#0x1aa
        0x080017e8:    f6c00000    ....    MOVT     r0,#0x800
        0x080017ec:    f005fc6c    ..l.    BL       assert_failed ; 0x80070c8
        0x080017f0:    7d60        `}      LDRB     r0,[r4,#0x15]
        0x080017f2:    2802        .(      CMP      r0,#2
        0x080017f4:    d307        ..      BCC      0x8001806 ; HAL_ADC_Init + 286
        0x080017f6:    f6474082    G..@    MOV      r0,#0x7c82
        0x080017fa:    f24011ab    @...    MOV      r1,#0x1ab
        0x080017fe:    f6c00000    ....    MOVT     r0,#0x800
        0x08001802:    f005fc61    ..a.    BL       assert_failed ; 0x80070c8
        0x08001806:    6aa0        .j      LDR      r0,[r4,#0x28]
        0x08001808:    ea4f20b0    O..     ROR      r0,r0,#10
        0x0800180c:    2804        .(      CMP      r0,#4
        0x0800180e:    d307        ..      BCC      0x8001820 ; HAL_ADC_Init + 312
        0x08001810:    f6474082    G..@    MOV      r0,#0x7c82
        0x08001814:    f44f71d6    O..q    MOV      r1,#0x1ac
        0x08001818:    f6c00000    ....    MOVT     r0,#0x800
        0x0800181c:    f005fc54    ..T.    BL       assert_failed ; 0x80070c8
        0x08001820:    6a60        `j      LDR      r0,[r4,#0x24]
        0x08001822:    b168        h.      CBZ      r0,0x8001840 ; HAL_ADC_Init + 344
        0x08001824:    f5a06080    ...`    SUB      r0,r0,#0x400
        0x08001828:    ea4f1070    O.p.    ROR      r0,r0,#5
        0x0800182c:    2815        .(      CMP      r0,#0x15
        0x0800182e:    d307        ..      BCC      0x8001840 ; HAL_ADC_Init + 344
        0x08001830:    f6474082    G..@    MOV      r0,#0x7c82
        0x08001834:    f24011ad    @...    MOV      r1,#0x1ad
        0x08001838:    f6c00000    ....    MOVT     r0,#0x800
        0x0800183c:    f005fc44    ..D.    BL       assert_failed ; 0x80070c8
        0x08001840:    6ae0        .j      LDR      r0,[r4,#0x2c]
        0x08001842:    2804        .(      CMP      r0,#4
        0x08001844:    d307        ..      BCC      0x8001856 ; HAL_ADC_Init + 366
        0x08001846:    f6474082    G..@    MOV      r0,#0x7c82
        0x0800184a:    f44f71d7    O..q    MOV      r1,#0x1ae
        0x0800184e:    f6c00000    ....    MOVT     r0,#0x800
        0x08001852:    f005fc39    ..9.    BL       assert_failed ; 0x80070c8
        0x08001856:    6920         i      LDR      r0,[r4,#0x10]
        0x08001858:    2804        .(      CMP      r0,#4
        0x0800185a:    bf18        ..      IT       NE
        0x0800185c:    2808        .(      CMPNE    r0,#8
        0x0800185e:    f0408186    @...    BNE.W    0x8001b6e ; HAL_ADC_Init + 1158
        0x08001862:    6b20         k      LDR      r0,[r4,#0x30]
        0x08001864:    f4405080    @..P    ORR      r0,r0,#0x1000
        0x08001868:    f5b05f80    ..._    CMP      r0,#0x1000
        0x0800186c:    d007        ..      BEQ      0x800187e ; HAL_ADC_Init + 406
        0x0800186e:    f6474082    G..@    MOV      r0,#0x7c82
        0x08001872:    f44f71d8    O..q    MOV      r1,#0x1b0
        0x08001876:    f6c00000    ....    MOVT     r0,#0x800
        0x0800187a:    f005fc25    ..%.    BL       assert_failed ; 0x80070c8
        0x0800187e:    7d20         }      LDRB     r0,[r4,#0x14]
        0x08001880:    2802        .(      CMP      r0,#2
        0x08001882:    d307        ..      BCC      0x8001894 ; HAL_ADC_Init + 428
        0x08001884:    f6474082    G..@    MOV      r0,#0x7c82
        0x08001888:    f24011b1    @...    MOV      r1,#0x1b1
        0x0800188c:    f6c00000    ....    MOVT     r0,#0x800
        0x08001890:    f005fc1a    ....    BL       assert_failed ; 0x80070c8
        0x08001894:    f8940038    ..8.    LDRB     r0,[r4,#0x38]
        0x08001898:    2802        .(      CMP      r0,#2
        0x0800189a:    d307        ..      BCC      0x80018ac ; HAL_ADC_Init + 452
        0x0800189c:    f6474082    G..@    MOV      r0,#0x7c82
        0x080018a0:    f44f71d9    O..q    MOV      r1,#0x1b2
        0x080018a4:    f6c00000    ....    MOVT     r0,#0x800
        0x080018a8:    f005fc0e    ....    BL       assert_failed ; 0x80070c8
        0x080018ac:    68e0        .h      LDR      r0,[r4,#0xc]
        0x080018ae:    b328        (.      CBZ      r0,0x80018fc ; HAL_ADC_Init + 532
        0x080018b0:    69a0        .i      LDR      r0,[r4,#0x18]
        0x080018b2:    3801        .8      SUBS     r0,#1
        0x080018b4:    2810        .(      CMP      r0,#0x10
        0x080018b6:    d307        ..      BCC      0x80018c8 ; HAL_ADC_Init + 480
        0x080018b8:    f6474082    G..@    MOV      r0,#0x7c82
        0x080018bc:    f44f71db    O..q    MOV      r1,#0x1b6
        0x080018c0:    f6c00000    ....    MOVT     r0,#0x800
        0x080018c4:    f005fc00    ....    BL       assert_failed ; 0x80070c8
        0x080018c8:    7f20         .      LDRB     r0,[r4,#0x1c]
        0x080018ca:    2802        .(      CMP      r0,#2
        0x080018cc:    d307        ..      BCC      0x80018de ; HAL_ADC_Init + 502
        0x080018ce:    f6474082    G..@    MOV      r0,#0x7c82
        0x080018d2:    f24011b7    @...    MOV      r1,#0x1b7
        0x080018d6:    f6c00000    ....    MOVT     r0,#0x800
        0x080018da:    f005fbf5    ....    BL       assert_failed ; 0x80070c8
        0x080018de:    7f20         .      LDRB     r0,[r4,#0x1c]
        0x080018e0:    2801        .(      CMP      r0,#1
        0x080018e2:    d10b        ..      BNE      0x80018fc ; HAL_ADC_Init + 532
        0x080018e4:    6a20         j      LDR      r0,[r4,#0x20]
        0x080018e6:    3801        .8      SUBS     r0,#1
        0x080018e8:    2808        .(      CMP      r0,#8
        0x080018ea:    d307        ..      BCC      0x80018fc ; HAL_ADC_Init + 532
        0x080018ec:    f6474082    G..@    MOV      r0,#0x7c82
        0x080018f0:    f24011bb    @...    MOV      r1,#0x1bb
        0x080018f4:    f6c00000    ....    MOVT     r0,#0x800
        0x080018f8:    f005fbe6    ....    BL       assert_failed ; 0x80070c8
        0x080018fc:    7f20         .      LDRB     r0,[r4,#0x1c]
        0x080018fe:    2801        .(      CMP      r0,#1
        0x08001900:    d10a        ..      BNE      0x8001918 ; HAL_ADC_Init + 560
        0x08001902:    7d60        `}      LDRB     r0,[r4,#0x15]
        0x08001904:    2801        .(      CMP      r0,#1
        0x08001906:    d107        ..      BNE      0x8001918 ; HAL_ADC_Init + 560
        0x08001908:    f6474082    G..@    MOV      r0,#0x7c82
        0x0800190c:    f44f71e0    O..q    MOV      r1,#0x1c0
        0x08001910:    f6c00000    ....    MOVT     r0,#0x800
        0x08001914:    f005fbd8    ....    BL       assert_failed ; 0x80070c8
        0x08001918:    6d60        `m      LDR      r0,[r4,#0x54]
        0x0800191a:    b930        0.      CBNZ     r0,0x800192a ; HAL_ADC_Init + 578
        0x0800191c:    4620         F      MOV      r0,r4
        0x0800191e:    f000f95f    .._.    BL       HAL_ADC_MspInit ; 0x8001be0
        0x08001922:    2000        .       MOVS     r0,#0
        0x08001924:    65a0        .e      STR      r0,[r4,#0x58]
        0x08001926:    f8840050    ..P.    STRB     r0,[r4,#0x50]
        0x0800192a:    6820         h      LDR      r0,[r4,#0]
        0x0800192c:    f003ff80    ....    BL       LL_ADC_IsDeepPowerDownEnabled ; 0x8005830
        0x08001930:    b110        ..      CBZ      r0,0x8001938 ; HAL_ADC_Init + 592
        0x08001932:    6820         h      LDR      r0,[r4,#0]
        0x08001934:    f003ff1c    ....    BL       LL_ADC_DisableDeepPowerDown ; 0x8005770
        0x08001938:    6820         h      LDR      r0,[r4,#0]
        0x0800193a:    f003ff89    ....    BL       LL_ADC_IsInternalRegulatorEnabled ; 0x8005850
        0x0800193e:    b128        (.      CBZ      r0,0x800194c ; HAL_ADC_Init + 612
        0x08001940:    6820         h      LDR      r0,[r4,#0]
        0x08001942:    f003ff85    ....    BL       LL_ADC_IsInternalRegulatorEnabled ; 0x8005850
        0x08001946:    b1d0        ..      CBZ      r0,0x800197e ; HAL_ADC_Init + 662
        0x08001948:    2500        .%      MOVS     r5,#0
        0x0800194a:    e021        !.      B        0x8001990 ; HAL_ADC_Init + 680
        0x0800194c:    6820         h      LDR      r0,[r4,#0]
        0x0800194e:    f003ff23    ..#.    BL       LL_ADC_EnableInternalRegulator ; 0x8005798
        0x08001952:    f2400000    @...    MOVW     r0,#0
        0x08001956:    f6425163    B.cQ    MOV      r1,#0x2d63
        0x0800195a:    f2c24000    ...@    MOVT     r0,#0x2400
        0x0800195e:    f2c0513e    ..>Q    MOVT     r1,#0x53e
        0x08001962:    6800        .h      LDR      r0,[r0,#0]
        0x08001964:    0980        ..      LSRS     r0,r0,#6
        0x08001966:    fba00101    ....    UMULL    r0,r1,r0,r1
        0x0800196a:    2001        .       MOVS     r0,#1
        0x0800196c:    eb001091    ....    ADD      r0,r0,r1,LSR #6
        0x08001970:    9000        ..      STR      r0,[sp,#0]
        0x08001972:    9800        ..      LDR      r0,[sp,#0]
        0x08001974:    2800        .(      CMP      r0,#0
        0x08001976:    d0e3        ..      BEQ      0x8001940 ; HAL_ADC_Init + 600
        0x08001978:    9800        ..      LDR      r0,[sp,#0]
        0x0800197a:    3801        .8      SUBS     r0,#1
        0x0800197c:    e7f8        ..      B        0x8001970 ; HAL_ADC_Init + 648
        0x0800197e:    6d60        `m      LDR      r0,[r4,#0x54]
        0x08001980:    2501        .%      MOVS     r5,#1
        0x08001982:    f0400010    @...    ORR      r0,r0,#0x10
        0x08001986:    6560        `e      STR      r0,[r4,#0x54]
        0x08001988:    6da0        .m      LDR      r0,[r4,#0x58]
        0x0800198a:    f0400001    @...    ORR      r0,r0,#1
        0x0800198e:    65a0        .e      STR      r0,[r4,#0x58]
        0x08001990:    6820         h      LDR      r0,[r4,#0]
        0x08001992:    f003ff61    ..a.    BL       LL_ADC_REG_IsConversionOngoing ; 0x8005858
        0x08001996:    6d61        am      LDR      r1,[r4,#0x54]
        0x08001998:    f0010110    ....    AND      r1,r1,#0x10
        0x0800199c:    4308        .C      ORRS     r0,r0,r1
        0x0800199e:    6d60        `m      LDR      r0,[r4,#0x54]
        0x080019a0:    d003        ..      BEQ      0x80019aa ; HAL_ADC_Init + 706
        0x080019a2:    f0400010    @...    ORR      r0,r0,#0x10
        0x080019a6:    2501        .%      MOVS     r5,#1
        0x080019a8:    e107        ..      B        0x8001bba ; HAL_ADC_Init + 1234
        0x080019aa:    f4207081     ..p    BIC      r0,r0,#0x102
        0x080019ae:    3002        .0      ADDS     r0,#2
        0x080019b0:    6560        `e      STR      r0,[r4,#0x54]
        0x080019b2:    6820         h      LDR      r0,[r4,#0]
        0x080019b4:    f003ff44    ..D.    BL       LL_ADC_IsEnabled ; 0x8005840
        0x080019b8:    bb58        X.      CBNZ     r0,0x8001a12 ; HAL_ADC_Init + 810
        0x080019ba:    6820         h      LDR      r0,[r4,#0]
        0x080019bc:    f2421100    B...    MOVW     r1,#0x2100
        0x080019c0:    f4407080    @..p    ORR      r0,r0,#0x100
        0x080019c4:    f2c40102    ....    MOVT     r1,#0x4002
        0x080019c8:    f2420600    B...    MOVW     r6,#0x2000
        0x080019cc:    4288        .B      CMP      r0,r1
        0x080019ce:    f2c40602    ....    MOVT     r6,#0x4002
        0x080019d2:    f04080f6    @...    BNE.W    0x8001bc2 ; HAL_ADC_Init + 1242
        0x080019d6:    4630        0F      MOV      r0,r6
        0x080019d8:    f003ff32    ..2.    BL       LL_ADC_IsEnabled ; 0x8005840
        0x080019dc:    4607        .F      MOV      r7,r0
        0x080019de:    f5067080    ...p    ADD      r0,r6,#0x100
        0x080019e2:    f003ff2d    ..-.    BL       LL_ADC_IsEnabled ; 0x8005840
        0x080019e6:    4338        8C      ORRS     r0,r0,r7
        0x080019e8:    b998        ..      CBNZ     r0,0x8001a12 ; HAL_ADC_Init + 810
        0x080019ea:    f5067080    ...p    ADD      r0,r6,#0x100
        0x080019ee:    f5067240    ..@r    ADD      r2,r6,#0x300
        0x080019f2:    6821        !h      LDR      r1,[r4,#0]
        0x080019f4:    f2460300    F...    MOVW     r3,#0x6000
        0x080019f8:    f6c50302    ....    MOVT     r3,#0x5802
        0x080019fc:    4281        .B      CMP      r1,r0
        0x080019fe:    4610        .F      MOV      r0,r2
        0x08001a00:    bf18        ..      IT       NE
        0x08001a02:    f5037040    ..@p    ADDNE    r0,r3,#0x300
        0x08001a06:    42b1        .B      CMP      r1,r6
        0x08001a08:    6861        ah      LDR      r1,[r4,#4]
        0x08001a0a:    bf08        ..      IT       EQ
        0x08001a0c:    4610        .F      MOVEQ    r0,r2
        0x08001a0e:    f003ff8f    ....    BL       LL_ADC_SetCommonClock ; 0x8005930
        0x08001a12:    f000fbc9    ....    BL       HAL_GetREVID ; 0x80021a8
        0x08001a16:    f2410104    A...    MOV      r1,#0x1004
        0x08001a1a:    4288        .B      CMP      r0,r1
        0x08001a1c:    d30c        ..      BCC      0x8001a38 ; HAL_ADC_Init + 848
        0x08001a1e:    68a0        .h      LDR      r0,[r4,#8]
        0x08001a20:    2810        .(      CMP      r0,#0x10
        0x08001a22:    d109        ..      BNE      0x8001a38 ; HAL_ADC_Init + 848
        0x08001a24:    7d60        `}      LDRB     r0,[r4,#0x15]
        0x08001a26:    6b21        !k      LDR      r1,[r4,#0x30]
        0x08001a28:    7f22        ".      LDRB     r2,[r4,#0x1c]
        0x08001a2a:    ea413040    A.@0    ORR      r0,r1,r0,LSL #13
        0x08001a2e:    ea404002    @..@    ORR      r0,r0,r2,LSL #16
        0x08001a32:    f040011c    @...    ORR      r1,r0,#0x1c
        0x08001a36:    e008        ..      B        0x8001a4a ; HAL_ADC_Init + 866
        0x08001a38:    7d60        `}      LDRB     r0,[r4,#0x15]
        0x08001a3a:    6b21        !k      LDR      r1,[r4,#0x30]
        0x08001a3c:    7f22        ".      LDRB     r2,[r4,#0x1c]
        0x08001a3e:    ea413040    A.@0    ORR      r0,r1,r0,LSL #13
        0x08001a42:    68a1        .h      LDR      r1,[r4,#8]
        0x08001a44:    4308        .C      ORRS     r0,r0,r1
        0x08001a46:    ea404102    @..A    ORR      r1,r0,r2,LSL #16
        0x08001a4a:    7f20         .      LDRB     r0,[r4,#0x1c]
        0x08001a4c:    2801        .(      CMP      r0,#1
        0x08001a4e:    d106        ..      BNE      0x8001a5e ; HAL_ADC_Init + 886
        0x08001a50:    6a20         j      LDR      r0,[r4,#0x20]
        0x08001a52:    2200        ."      MOVS     r2,#0
        0x08001a54:    f6cf72fe    ...r    MOVT     r2,#0xfffe
        0x08001a58:    eb024040    ..@@    ADD      r0,r2,r0,LSL #17
        0x08001a5c:    4301        .C      ORRS     r1,r1,r0
        0x08001a5e:    6a60        `j      LDR      r0,[r4,#0x24]
        0x08001a60:    b128        (.      CBZ      r0,0x8001a6e ; HAL_ADC_Init + 902
        0x08001a62:    f4007078    ..xp    AND      r0,r0,#0x3e0
        0x08001a66:    6aa2        .j      LDR      r2,[r4,#0x28]
        0x08001a68:    4308        .C      ORRS     r0,r0,r1
        0x08001a6a:    ea400102    @...    ORR      r1,r0,r2
        0x08001a6e:    6820         h      LDR      r0,[r4,#0]
        0x08001a70:    f24c0303    L...    MOV      r3,#0xc003
        0x08001a74:    f6cf73f0    ...s    MOVT     r3,#0xfff0
        0x08001a78:    68c2        .h      LDR      r2,[r0,#0xc]
        0x08001a7a:    401a        .@      ANDS     r2,r2,r3
        0x08001a7c:    4311        .C      ORRS     r1,r1,r2
        0x08001a7e:    60c1        .`      STR      r1,[r0,#0xc]
        0x08001a80:    f003feea    ....    BL       LL_ADC_REG_IsConversionOngoing ; 0x8005858
        0x08001a84:    4606        .F      MOV      r6,r0
        0x08001a86:    6820         h      LDR      r0,[r4,#0]
        0x08001a88:    f003feb6    ....    BL       LL_ADC_INJ_IsConversionOngoing ; 0x80057f8
        0x08001a8c:    4330        0C      ORRS     r0,r0,r6
        0x08001a8e:    f0408085    @...    BNE.W    0x8001b9c ; HAL_ADC_Init + 1204
        0x08001a92:    7d21        !}      LDRB     r1,[r4,#0x14]
        0x08001a94:    6820         h      LDR      r0,[r4,#0]
        0x08001a96:    6ae2        .j      LDR      r2,[r4,#0x2c]
        0x08001a98:    f2440703    D...    MOV      r7,#0x4003
        0x08001a9c:    68c3        .h      LDR      r3,[r0,#0xc]
        0x08001a9e:    ea423181    B..1    ORR      r1,r2,r1,LSL #14
        0x08001aa2:    ea230207    #...    BIC      r2,r3,r7
        0x08001aa6:    4311        .C      ORRS     r1,r1,r2
        0x08001aa8:    60c1        .`      STR      r1,[r0,#0xc]
        0x08001aaa:    f8941038    ..8.    LDRB     r1,[r4,#0x38]
        0x08001aae:    2901        .)      CMP      r1,#1
        0x08001ab0:    d166        f.      BNE      0x8001b80 ; HAL_ADC_Init + 1176
        0x08001ab2:    6be0        .k      LDR      r0,[r4,#0x3c]
        0x08001ab4:    3801        .8      SUBS     r0,#1
        0x08001ab6:    f5b06f80    ...o    CMP      r0,#0x400
        0x08001aba:    d307        ..      BCC      0x8001acc ; HAL_ADC_Init + 996
        0x08001abc:    f6474082    G..@    MOV      r0,#0x7c82
        0x08001ac0:    f44f7130    O.0q    MOV      r1,#0x2c0
        0x08001ac4:    f6c00000    ....    MOVT     r0,#0x800
        0x08001ac8:    f005fafe    ....    BL       assert_failed ; 0x80070c8
        0x08001acc:    6c20         l      LDR      r0,[r4,#0x40]
        0x08001ace:    ea4f1070    O.p.    ROR      r0,r0,#5
        0x08001ad2:    280c        .(      CMP      r0,#0xc
        0x08001ad4:    d307        ..      BCC      0x8001ae6 ; HAL_ADC_Init + 1022
        0x08001ad6:    f6474082    G..@    MOV      r0,#0x7c82
        0x08001ada:    f24021c2    @..!    MOV      r1,#0x2c2
        0x08001ade:    f6c00000    ....    MOVT     r0,#0x800
        0x08001ae2:    f005faf1    ....    BL       assert_failed ; 0x80070c8
        0x08001ae6:    6c60        `l      LDR      r0,[r4,#0x44]
        0x08001ae8:    f4407000    @..p    ORR      r0,r0,#0x200
        0x08001aec:    f5b07f00    ....    CMP      r0,#0x200
        0x08001af0:    d007        ..      BEQ      0x8001b02 ; HAL_ADC_Init + 1050
        0x08001af2:    f6474082    G..@    MOV      r0,#0x7c82
        0x08001af6:    f24021c3    @..!    MOV      r1,#0x2c3
        0x08001afa:    f6c00000    ....    MOVT     r0,#0x800
        0x08001afe:    f005fae3    ....    BL       assert_failed ; 0x80070c8
        0x08001b02:    6ca0        .l      LDR      r0,[r4,#0x48]
        0x08001b04:    f2404101    @..A    MOV      r1,#0x401
        0x08001b08:    f4406080    @..`    ORR      r0,r0,#0x400
        0x08001b0c:    4288        .B      CMP      r0,r1
        0x08001b0e:    d007        ..      BEQ      0x8001b20 ; HAL_ADC_Init + 1080
        0x08001b10:    f6474082    G..@    MOV      r0,#0x7c82
        0x08001b14:    f44f7131    O.1q    MOV      r1,#0x2c4
        0x08001b18:    f6c00000    ....    MOVT     r0,#0x800
        0x08001b1c:    f005fad4    ....    BL       assert_failed ; 0x80070c8
        0x08001b20:    6a60        `j      LDR      r0,[r4,#0x24]
        0x08001b22:    b108        ..      CBZ      r0,0x8001b28 ; HAL_ADC_Init + 1088
        0x08001b24:    6aa0        .j      LDR      r0,[r4,#0x28]
        0x08001b26:    b948        H.      CBNZ     r0,0x8001b3c ; HAL_ADC_Init + 1108
        0x08001b28:    6c60        `l      LDR      r0,[r4,#0x44]
        0x08001b2a:    b138        8.      CBZ      r0,0x8001b3c ; HAL_ADC_Init + 1108
        0x08001b2c:    f6474082    G..@    MOV      r0,#0x7c82
        0x08001b30:    f24021ca    @..!    MOV      r1,#0x2ca
        0x08001b34:    f6c00000    ....    MOVT     r0,#0x800
        0x08001b38:    f005fac6    ....    BL       assert_failed ; 0x80070c8
        0x08001b3c:    6820         h      LDR      r0,[r4,#0]
        0x08001b3e:    f1040c3c    ..<.    ADD      r12,r4,#0x3c
        0x08001b42:    f64f031e    O...    MOV      r3,#0xf81e
        0x08001b46:    6ca7        .l      LDR      r7,[r4,#0x48]
        0x08001b48:    e89c1006    ....    LDM      r12,{r1,r2,r12}
        0x08001b4c:    6906        .i      LDR      r6,[r0,#0x10]
        0x08001b4e:    f6cf4300    ...C    MOVT     r3,#0xfc00
        0x08001b52:    4033        3@      ANDS     r3,r3,r6
        0x08001b54:    2600        .&      MOVS     r6,#0
        0x08001b56:    f6cf76ff    ...v    MOVT     r6,#0xffff
        0x08001b5a:    431a        .C      ORRS     r2,r2,r3
        0x08001b5c:    eb064101    ...A    ADD      r1,r6,r1,LSL #16
        0x08001b60:    4311        .C      ORRS     r1,r1,r2
        0x08001b62:    ea41010c    A...    ORR      r1,r1,r12
        0x08001b66:    4339        9C      ORRS     r1,r1,r7
        0x08001b68:    f0410101    A...    ORR      r1,r1,#1
        0x08001b6c:    e00b        ..      B        0x8001b86 ; HAL_ADC_Init + 1182
        0x08001b6e:    f6474082    G..@    MOV      r0,#0x7c82
        0x08001b72:    f24011af    @...    MOV      r1,#0x1af
        0x08001b76:    f6c00000    ....    MOVT     r0,#0x800
        0x08001b7a:    f005faa5    ....    BL       assert_failed ; 0x80070c8
        0x08001b7e:    e670        p.      B        0x8001862 ; HAL_ADC_Init + 378
        0x08001b80:    6901        .i      LDR      r1,[r0,#0x10]
        0x08001b82:    f0210101    !...    BIC      r1,r1,#1
        0x08001b86:    6101        .a      STR      r1,[r0,#0x10]
        0x08001b88:    6820         h      LDR      r0,[r4,#0]
        0x08001b8a:    6b61        ak      LDR      r1,[r4,#0x34]
        0x08001b8c:    6902        .i      LDR      r2,[r0,#0x10]
        0x08001b8e:    f0224270    ".pB    BIC      r2,r2,#0xf0000000
        0x08001b92:    4311        .C      ORRS     r1,r1,r2
        0x08001b94:    6101        .a      STR      r1,[r0,#0x10]
        0x08001b96:    4620         F      MOV      r0,r4
        0x08001b98:    f7fefcde    ....    BL       ADC_ConfigureBoostMode ; 0x8000558
        0x08001b9c:    6820         h      LDR      r0,[r4,#0]
        0x08001b9e:    68e1        .h      LDR      r1,[r4,#0xc]
        0x08001ba0:    2901        .)      CMP      r1,#1
        0x08001ba2:    6b02        .k      LDR      r2,[r0,#0x30]
        0x08001ba4:    f022010f    "...    BIC      r1,r2,#0xf
        0x08001ba8:    d102        ..      BNE      0x8001bb0 ; HAL_ADC_Init + 1224
        0x08001baa:    69a2        .i      LDR      r2,[r4,#0x18]
        0x08001bac:    3a01        .:      SUBS     r2,#1
        0x08001bae:    4311        .C      ORRS     r1,r1,r2
        0x08001bb0:    6301        .c      STR      r1,[r0,#0x30]
        0x08001bb2:    2101        .!      MOVS     r1,#1
        0x08001bb4:    6d60        `m      LDR      r0,[r4,#0x54]
        0x08001bb6:    f3610001    a...    BFI      r0,r1,#0,#2
        0x08001bba:    6560        `e      STR      r0,[r4,#0x54]
        0x08001bbc:    4628        (F      MOV      r0,r5
        0x08001bbe:    b001        ..      ADD      sp,sp,#4
        0x08001bc0:    bdf0        ..      POP      {r4-r7,pc}
        0x08001bc2:    f2460000    F...    MOVW     r0,#0x6000
        0x08001bc6:    f6c50002    ....    MOVT     r0,#0x5802
        0x08001bca:    f003fe39    ..9.    BL       LL_ADC_IsEnabled ; 0x8005840
        0x08001bce:    2800        .(      CMP      r0,#0
        0x08001bd0:    f47faf1f    ....    BNE      0x8001a12 ; HAL_ADC_Init + 810
        0x08001bd4:    e709        ..      B        0x80019ea ; HAL_ADC_Init + 770
        0x08001bd6:    0000        ..      MOVS     r0,r0
    HAL_ADC_LevelOutOfWindowCallback
        0x08001bd8:    4770        pG      BX       lr
        0x08001bda:    0000        ..      MOVS     r0,r0
        0x08001bdc:    0000        ..      MOVS     r0,r0
        0x08001bde:    0000        ..      MOVS     r0,r0
    HAL_ADC_MspInit
        0x08001be0:    b5b0        ..      PUSH     {r4,r5,r7,lr}
        0x08001be2:    b0b8        ..      SUB      sp,sp,#0xe0
        0x08001be4:    4604        .F      MOV      r4,r0
        0x08001be6:    a802        ..      ADD      r0,sp,#8
        0x08001be8:    21c0        .!      MOVS     r1,#0xc0
        0x08001bea:    2500        .%      MOVS     r5,#0
        0x08001bec:    e9cd5536    ..6U    STRD     r5,r5,[sp,#0xd8]
        0x08001bf0:    e9cd5534    ..4U    STRD     r5,r5,[sp,#0xd0]
        0x08001bf4:    9533        3.      STR      r5,[sp,#0xcc]
        0x08001bf6:    f7fefc4f    ..O.    BL       __aeabi_memclr4 ; 0x8000498
        0x08001bfa:    f2420100    B...    MOVW     r1,#0x2000
        0x08001bfe:    6820         h      LDR      r0,[r4,#0]
        0x08001c00:    f2c40102    ....    MOVT     r1,#0x4002
        0x08001c04:    4288        .B      CMP      r0,r1
        0x08001c06:    d001        ..      BEQ      0x8001c0c ; HAL_ADC_MspInit + 44
        0x08001c08:    b038        8.      ADD      sp,sp,#0xe0
        0x08001c0a:    bdb0        ..      POP      {r4,r5,r7,pc}
        0x08001c0c:    f44f2000    O..     MOV      r0,#0x80000
        0x08001c10:    9002        ..      STR      r0,[sp,#8]
        0x08001c12:    2020                MOVS     r0,#0x20
        0x08001c14:    9004        ..      STR      r0,[sp,#0x10]
        0x08001c16:    2081        .       MOVS     r0,#0x81
        0x08001c18:    9005        ..      STR      r0,[sp,#0x14]
        0x08001c1a:    2002        .       MOVS     r0,#2
        0x08001c1c:    9008        ..      STR      r0,[sp,#0x20]
        0x08001c1e:    e9cd0006    ....    STRD     r0,r0,[sp,#0x18]
        0x08001c22:    2040        @       MOVS     r0,#0x40
        0x08001c24:    9503        ..      STR      r5,[sp,#0xc]
        0x08001c26:    e9cd0509    ....    STRD     r0,r5,[sp,#0x24]
        0x08001c2a:    a802        ..      ADD      r0,sp,#8
        0x08001c2c:    950b        ..      STR      r5,[sp,#0x2c]
        0x08001c2e:    952b        +.      STR      r5,[sp,#0xac]
        0x08001c30:    f000ff3a    ..:.    BL       HAL_RCCEx_PeriphCLKConfig ; 0x8002aa8
        0x08001c34:    b108        ..      CBZ      r0,0x8001c3a ; HAL_ADC_MspInit + 90
        0x08001c36:    f7fefe5f    .._.    BL       Error_Handler ; 0x80008f8
        0x08001c3a:    f24440d8    D..@    MOV      r0,#0x44d8
        0x08001c3e:    f6c50002    ....    MOVT     r0,#0x5802
        0x08001c42:    6801        .h      LDR      r1,[r0,#0]
        0x08001c44:    f0410120    A. .    ORR      r1,r1,#0x20
        0x08001c48:    6001        .`      STR      r1,[r0,#0]
        0x08001c4a:    6801        .h      LDR      r1,[r0,#0]
        0x08001c4c:    f0010120    .. .    AND      r1,r1,#0x20
        0x08001c50:    9101        ..      STR      r1,[sp,#4]
        0x08001c52:    9901        ..      LDR      r1,[sp,#4]
        0x08001c54:    6881        .h      LDR      r1,[r0,#8]
        0x08001c56:    f0410104    A...    ORR      r1,r1,#4
        0x08001c5a:    6081        .`      STR      r1,[r0,#8]
        0x08001c5c:    6880        .h      LDR      r0,[r0,#8]
        0x08001c5e:    a933        3.      ADD      r1,sp,#0xcc
        0x08001c60:    f0000004    ....    AND      r0,r0,#4
        0x08001c64:    9001        ..      STR      r0,[sp,#4]
        0x08001c66:    9801        ..      LDR      r0,[sp,#4]
        0x08001c68:    2010        .       MOVS     r0,#0x10
        0x08001c6a:    9033        3.      STR      r0,[sp,#0xcc]
        0x08001c6c:    2003        .       MOVS     r0,#3
        0x08001c6e:    9034        4.      STR      r0,[sp,#0xd0]
        0x08001c70:    2000        .       MOVS     r0,#0
        0x08001c72:    9035        5.      STR      r0,[sp,#0xd4]
        0x08001c74:    f6400000    @...    MOVW     r0,#0x800
        0x08001c78:    f6c50002    ....    MOVT     r0,#0x5802
        0x08001c7c:    f000f918    ....    BL       HAL_GPIO_Init ; 0x8001eb0
        0x08001c80:    2012        .       MOVS     r0,#0x12
        0x08001c82:    2103        .!      MOVS     r1,#3
        0x08001c84:    2200        ."      MOVS     r2,#0
        0x08001c86:    f000fb2f    ../.    BL       HAL_NVIC_SetPriority ; 0x80022e8
        0x08001c8a:    2012        .       MOVS     r0,#0x12
        0x08001c8c:    f000fb1c    ....    BL       HAL_NVIC_EnableIRQ ; 0x80022c8
        0x08001c90:    b038        8.      ADD      sp,sp,#0xe0
        0x08001c92:    bdb0        ..      POP      {r4,r5,r7,pc}
        0x08001c94:    0000        ..      MOVS     r0,r0
        0x08001c96:    0000        ..      MOVS     r0,r0
    HAL_ADC_Start_IT
        0x08001c98:    e92d41f0    -..A    PUSH     {r4-r8,lr}
        0x08001c9c:    f2420700    B...    MOVW     r7,#0x2000
        0x08001ca0:    4604        .F      MOV      r4,r0
        0x08001ca2:    f2c40702    ....    MOVT     r7,#0x4002
        0x08001ca6:    6801        .h      LDR      r1,[r0,#0]
        0x08001ca8:    f2463000    F..0    MOVW     r0,#0x6300
        0x08001cac:    f5077680    ...v    ADD      r6,r7,#0x100
        0x08001cb0:    f5077240    ..@r    ADD      r2,r7,#0x300
        0x08001cb4:    f6c50002    ....    MOVT     r0,#0x5802
        0x08001cb8:    42b1        .B      CMP      r1,r6
        0x08001cba:    bf08        ..      IT       EQ
        0x08001cbc:    4610        .F      MOVEQ    r0,r2
        0x08001cbe:    42b9        .B      CMP      r1,r7
        0x08001cc0:    bf08        ..      IT       EQ
        0x08001cc2:    4610        .F      MOVEQ    r0,r2
        0x08001cc4:    f003fd7c    ..|.    BL       LL_ADC_GetMultimode ; 0x80057c0
        0x08001cc8:    6821        !h      LDR      r1,[r4,#0]
        0x08001cca:    4680        .F      MOV      r8,r0
        0x08001ccc:    42b9        .B      CMP      r1,r7
        0x08001cce:    d013        ..      BEQ      0x8001cf8 ; HAL_ADC_Start_IT + 96
        0x08001cd0:    f2421000    B...    MOVW     r0,#0x2100
        0x08001cd4:    f2c40002    ....    MOVT     r0,#0x4002
        0x08001cd8:    4281        .B      CMP      r1,r0
        0x08001cda:    d00d        ..      BEQ      0x8001cf8 ; HAL_ADC_Start_IT + 96
        0x08001cdc:    f2460000    F...    MOVW     r0,#0x6000
        0x08001ce0:    f6c50002    ....    MOVT     r0,#0x5802
        0x08001ce4:    4281        .B      CMP      r1,r0
        0x08001ce6:    d007        ..      BEQ      0x8001cf8 ; HAL_ADC_Start_IT + 96
        0x08001ce8:    f6474082    G..@    MOV      r0,#0x7c82
        0x08001cec:    f2407163    @.cq    MOV      r1,#0x763
        0x08001cf0:    f6c00000    ....    MOVT     r0,#0x800
        0x08001cf4:    f005f9e8    ....    BL       assert_failed ; 0x80070c8
        0x08001cf8:    6820         h      LDR      r0,[r4,#0]
        0x08001cfa:    f003fdad    ....    BL       LL_ADC_REG_IsConversionOngoing ; 0x8005858
        0x08001cfe:    b918        ..      CBNZ     r0,0x8001d08 ; HAL_ADC_Start_IT + 112
        0x08001d00:    f8940050    ..P.    LDRB     r0,[r4,#0x50]
        0x08001d04:    2801        .(      CMP      r0,#1
        0x08001d06:    d102        ..      BNE      0x8001d0e ; HAL_ADC_Start_IT + 118
        0x08001d08:    2002        .       MOVS     r0,#2
        0x08001d0a:    e8bd81f0    ....    POP      {r4-r8,pc}
        0x08001d0e:    2001        .       MOVS     r0,#1
        0x08001d10:    f8840050    ..P.    STRB     r0,[r4,#0x50]
        0x08001d14:    4620         F      MOV      r0,r4
        0x08001d16:    f7fefd7f    ....    BL       ADC_Enable ; 0x8000818
        0x08001d1a:    4605        .F      MOV      r5,r0
        0x08001d1c:    b128        (.      CBZ      r0,0x8001d2a ; HAL_ADC_Start_IT + 146
        0x08001d1e:    2000        .       MOVS     r0,#0
        0x08001d20:    f8840050    ..P.    STRB     r0,[r4,#0x50]
        0x08001d24:    4628        (F      MOV      r0,r5
        0x08001d26:    e8bd81f0    ....    POP      {r4-r8,pc}
        0x08001d2a:    6820         h      LDR      r0,[r4,#0]
        0x08001d2c:    6d61        am      LDR      r1,[r4,#0x54]
        0x08001d2e:    f6407201    @..r    MOV      r2,#0xf01
        0x08001d32:    42b0        .B      CMP      r0,r6
        0x08001d34:    ea210102    !...    BIC      r1,r1,r2
        0x08001d38:    bf18        ..      IT       NE
        0x08001d3a:    4607        .F      MOVNE    r7,r0
        0x08001d3c:    f1b80f00    ....    CMP      r8,#0
        0x08001d40:    f5017180    ...q    ADD      r1,r1,#0x100
        0x08001d44:    6561        ae      STR      r1,[r4,#0x54]
        0x08001d46:    bf18        ..      IT       NE
        0x08001d48:    4287        .B      CMPNE    r7,r0
        0x08001d4a:    d103        ..      BNE      0x8001d54 ; HAL_ADC_Start_IT + 188
        0x08001d4c:    6d61        am      LDR      r1,[r4,#0x54]
        0x08001d4e:    f4211180    !...    BIC      r1,r1,#0x100000
        0x08001d52:    6561        ae      STR      r1,[r4,#0x54]
        0x08001d54:    6d61        am      LDR      r1,[r4,#0x54]
        0x08001d56:    2200        ."      MOVS     r2,#0
        0x08001d58:    04c9        ..      LSLS     r1,r1,#19
        0x08001d5a:    f04f0100    O...    MOV      r1,#0
        0x08001d5e:    bf44        D.      ITT      MI
        0x08001d60:    6da2        .m      LDRMI    r2,[r4,#0x58]
        0x08001d62:    f0220206    "...    BICMI    r2,r2,#6
        0x08001d66:    65a2        .e      STR      r2,[r4,#0x58]
        0x08001d68:    221c        ."      MOVS     r2,#0x1c
        0x08001d6a:    6002        .`      STR      r2,[r0,#0]
        0x08001d6c:    f8841050    ..P.    STRB     r1,[r4,#0x50]
        0x08001d70:    6841        Ah      LDR      r1,[r0,#4]
        0x08001d72:    f021011c    !...    BIC      r1,r1,#0x1c
        0x08001d76:    6041        A`      STR      r1,[r0,#4]
        0x08001d78:    6921        !i      LDR      r1,[r4,#0x10]
        0x08001d7a:    460b        .F      MOV      r3,r1
        0x08001d7c:    2908        .)      CMP      r1,#8
        0x08001d7e:    6b22        "k      LDR      r2,[r4,#0x30]
        0x08001d80:    bf18        ..      IT       NE
        0x08001d82:    2304        .#      MOVNE    r3,#4
        0x08001d84:    6846        Fh      LDR      r6,[r0,#4]
        0x08001d86:    2a00        .*      CMP      r2,#0
        0x08001d88:    ea460203    F...    ORR      r2,r6,r3
        0x08001d8c:    6042        B`      STR      r2,[r0,#4]
        0x08001d8e:    d103        ..      BNE      0x8001d98 ; HAL_ADC_Start_IT + 256
        0x08001d90:    6842        Bh      LDR      r2,[r0,#4]
        0x08001d92:    f0420210    B...    ORR      r2,r2,#0x10
        0x08001d96:    6042        B`      STR      r2,[r0,#4]
        0x08001d98:    4287        .B      CMP      r7,r0
        0x08001d9a:    d009        ..      BEQ      0x8001db0 ; HAL_ADC_Start_IT + 280
        0x08001d9c:    f1b80f09    ....    CMP      r8,#9
        0x08001da0:    d823        #.      BHI      0x8001dea ; HAL_ADC_Start_IT + 338
        0x08001da2:    2201        ."      MOVS     r2,#1
        0x08001da4:    f2402321    @.!#    MOV      r3,#0x221
        0x08001da8:    fa02f208    ....    LSL      r2,r2,r8
        0x08001dac:    421a        .B      TST      r2,r3
        0x08001dae:    d01c        ..      BEQ      0x8001dea ; HAL_ADC_Start_IT + 338
        0x08001db0:    68c2        .h      LDR      r2,[r0,#0xc]
        0x08001db2:    0192        ..      LSLS     r2,r2,#6
        0x08001db4:    d514        ..      BPL      0x8001de0 ; HAL_ADC_Start_IT + 328
        0x08001db6:    6d62        bm      LDR      r2,[r4,#0x54]
        0x08001db8:    2301        .#      MOVS     r3,#1
        0x08001dba:    f363320d    c..2    BFI      r2,r3,#12,#2
        0x08001dbe:    6562        be      STR      r2,[r4,#0x54]
        0x08001dc0:    f06f0240    o.@.    MVN      r2,#0x40
        0x08001dc4:    2908        .)      CMP      r1,#8
        0x08001dc6:    bf08        ..      IT       EQ
        0x08001dc8:    f06f0220    o. .    MVNEQ    r2,#0x20
        0x08001dcc:    f04f0120    O. .    MOV      r1,#0x20
        0x08001dd0:    6843        Ch      LDR      r3,[r0,#4]
        0x08001dd2:    bf08        ..      IT       EQ
        0x08001dd4:    2140        @!      MOVEQ    r1,#0x40
        0x08001dd6:    401a        .@      ANDS     r2,r2,r3
        0x08001dd8:    6042        B`      STR      r2,[r0,#4]
        0x08001dda:    6842        Bh      LDR      r2,[r0,#4]
        0x08001ddc:    4311        .C      ORRS     r1,r1,r2
        0x08001dde:    6041        A`      STR      r1,[r0,#4]
        0x08001de0:    f003fd62    ..b.    BL       LL_ADC_REG_StartConversion ; 0x80058a8
        0x08001de4:    4628        (F      MOV      r0,r5
        0x08001de6:    e8bd81f0    ....    POP      {r4-r8,pc}
        0x08001dea:    6d62        bm      LDR      r2,[r4,#0x54]
        0x08001dec:    f4421280    B...    ORR      r2,r2,#0x100000
        0x08001df0:    6562        be      STR      r2,[r4,#0x54]
        0x08001df2:    68fa        .h      LDR      r2,[r7,#0xc]
        0x08001df4:    0192        ..      LSLS     r2,r2,#6
        0x08001df6:    d595        ..      BPL      0x8001d24 ; HAL_ADC_Start_IT + 140
        0x08001df8:    6d62        bm      LDR      r2,[r4,#0x54]
        0x08001dfa:    2301        .#      MOVS     r3,#1
        0x08001dfc:    f363320d    c..2    BFI      r2,r3,#12,#2
        0x08001e00:    6562        be      STR      r2,[r4,#0x54]
        0x08001e02:    2908        .)      CMP      r1,#8
        0x08001e04:    6841        Ah      LDR      r1,[r0,#4]
        0x08001e06:    d106        ..      BNE      0x8001e16 ; HAL_ADC_Start_IT + 382
        0x08001e08:    f0210120    !. .    BIC      r1,r1,#0x20
        0x08001e0c:    6041        A`      STR      r1,[r0,#4]
        0x08001e0e:    6841        Ah      LDR      r1,[r0,#4]
        0x08001e10:    f0410140    A.@.    ORR      r1,r1,#0x40
        0x08001e14:    e005        ..      B        0x8001e22 ; HAL_ADC_Start_IT + 394
        0x08001e16:    f0210140    !.@.    BIC      r1,r1,#0x40
        0x08001e1a:    6041        A`      STR      r1,[r0,#4]
        0x08001e1c:    6841        Ah      LDR      r1,[r0,#4]
        0x08001e1e:    f0410120    A. .    ORR      r1,r1,#0x20
        0x08001e22:    6041        A`      STR      r1,[r0,#4]
        0x08001e24:    4628        (F      MOV      r0,r5
        0x08001e26:    e8bd81f0    ....    POP      {r4-r8,pc}
        0x08001e2a:    0000        ..      MOVS     r0,r0
        0x08001e2c:    0000        ..      MOVS     r0,r0
        0x08001e2e:    0000        ..      MOVS     r0,r0
    HAL_ADC_Stop_IT
        0x08001e30:    b510        ..      PUSH     {r4,lr}
        0x08001e32:    f2420100    B...    MOVW     r1,#0x2000
        0x08001e36:    4604        .F      MOV      r4,r0
        0x08001e38:    6800        .h      LDR      r0,[r0,#0]
        0x08001e3a:    f2c40102    ....    MOVT     r1,#0x4002
        0x08001e3e:    4288        .B      CMP      r0,r1
        0x08001e40:    d013        ..      BEQ      0x8001e6a ; HAL_ADC_Stop_IT + 58
        0x08001e42:    f2421100    B...    MOVW     r1,#0x2100
        0x08001e46:    f2c40102    ....    MOVT     r1,#0x4002
        0x08001e4a:    4288        .B      CMP      r0,r1
        0x08001e4c:    d00d        ..      BEQ      0x8001e6a ; HAL_ADC_Stop_IT + 58
        0x08001e4e:    f2460100    F...    MOVW     r1,#0x6000
        0x08001e52:    f6c50102    ....    MOVT     r1,#0x5802
        0x08001e56:    4288        .B      CMP      r0,r1
        0x08001e58:    d007        ..      BEQ      0x8001e6a ; HAL_ADC_Stop_IT + 58
        0x08001e5a:    f6474082    G..@    MOV      r0,#0x7c82
        0x08001e5e:    f44f6101    O..a    MOV      r1,#0x810
        0x08001e62:    f6c00000    ....    MOVT     r0,#0x800
        0x08001e66:    f005f92f    ../.    BL       assert_failed ; 0x80070c8
        0x08001e6a:    f8940050    ..P.    LDRB     r0,[r4,#0x50]
        0x08001e6e:    2801        .(      CMP      r0,#1
        0x08001e70:    d101        ..      BNE      0x8001e76 ; HAL_ADC_Stop_IT + 70
        0x08001e72:    2002        .       MOVS     r0,#2
        0x08001e74:    bd10        ..      POP      {r4,pc}
        0x08001e76:    2001        .       MOVS     r0,#1
        0x08001e78:    f8840050    ..P.    STRB     r0,[r4,#0x50]
        0x08001e7c:    2103        .!      MOVS     r1,#3
        0x08001e7e:    4620         F      MOV      r0,r4
        0x08001e80:    f7fefbf6    ....    BL       ADC_ConversionStop ; 0x8000670
        0x08001e84:    b970        p.      CBNZ     r0,0x8001ea4 ; HAL_ADC_Stop_IT + 116
        0x08001e86:    6820         h      LDR      r0,[r4,#0]
        0x08001e88:    6841        Ah      LDR      r1,[r0,#4]
        0x08001e8a:    f021011c    !...    BIC      r1,r1,#0x1c
        0x08001e8e:    6041        A`      STR      r1,[r0,#4]
        0x08001e90:    4620         F      MOV      r0,r4
        0x08001e92:    f7fefc81    ....    BL       ADC_Disable ; 0x8000798
        0x08001e96:    b928        (.      CBNZ     r0,0x8001ea4 ; HAL_ADC_Stop_IT + 116
        0x08001e98:    6d61        am      LDR      r1,[r4,#0x54]
        0x08001e9a:    f2411201    A...    MOV      r2,#0x1101
        0x08001e9e:    4391        .C      BICS     r1,r1,r2
        0x08001ea0:    3101        .1      ADDS     r1,#1
        0x08001ea2:    6561        ae      STR      r1,[r4,#0x54]
        0x08001ea4:    2100        .!      MOVS     r1,#0
        0x08001ea6:    f8841050    ..P.    STRB     r1,[r4,#0x50]
        0x08001eaa:    bd10        ..      POP      {r4,pc}
        0x08001eac:    0000        ..      MOVS     r0,r0
        0x08001eae:    0000        ..      MOVS     r0,r0
    HAL_GPIO_Init
        0x08001eb0:    e92d4ff0    -..O    PUSH     {r4-r11,lr}
        0x08001eb4:    b083        ..      SUB      sp,sp,#0xc
        0x08001eb6:    4604        .F      MOV      r4,r0
        0x08001eb8:    f1004026    ..&@    ADD      r0,r0,#0xa6000000
        0x08001ebc:    f10070ff    ...p    ADD      r0,r0,#0x1fe0000
        0x08001ec0:    460d        .F      MOV      r5,r1
        0x08001ec2:    ea4f20b0    O..     ROR      r0,r0,#10
        0x08001ec6:    9001        ..      STR      r0,[sp,#4]
        0x08001ec8:    280b        .(      CMP      r0,#0xb
        0x08001eca:    d306        ..      BCC      0x8001eda ; HAL_GPIO_Init + 42
        0x08001ecc:    f6475068    G.hP    MOV      r0,#0x7d68
        0x08001ed0:    21b3        .!      MOVS     r1,#0xb3
        0x08001ed2:    f6c00000    ....    MOVT     r0,#0x800
        0x08001ed6:    f005f8f7    ....    BL       assert_failed ; 0x80070c8
        0x08001eda:    6828        (h      LDR      r0,[r5,#0]
        0x08001edc:    2100        .!      MOVS     r1,#0
        0x08001ede:    ebb14f10    ...O    CMP      r1,r0,LSR #16
        0x08001ee2:    d101        ..      BNE      0x8001ee8 ; HAL_GPIO_Init + 56
        0x08001ee4:    b280        ..      UXTH     r0,r0
        0x08001ee6:    b930        0.      CBNZ     r0,0x8001ef6 ; HAL_GPIO_Init + 70
        0x08001ee8:    f6475068    G.hP    MOV      r0,#0x7d68
        0x08001eec:    21b4        .!      MOVS     r1,#0xb4
        0x08001eee:    f6c00000    ....    MOVT     r0,#0x800
        0x08001ef2:    f005f8e9    ....    BL       assert_failed ; 0x80070c8
        0x08001ef6:    6868        hh      LDR      r0,[r5,#4]
        0x08001ef8:    f5b01f88    ....    CMP      r0,#0x110000
        0x08001efc:    da0a        ..      BGE      0x8001f14 ; HAL_GPIO_Init + 100
        0x08001efe:    2812        .(      CMP      r0,#0x12
        0x08001f00:    d81c        ..      BHI      0x8001f3c ; HAL_GPIO_Init + 140
        0x08001f02:    2101        .!      MOVS     r1,#1
        0x08001f04:    fa01f000    ....    LSL      r0,r1,r0
        0x08001f08:    210f        .!      MOVS     r1,#0xf
        0x08001f0a:    f2c00106    ....    MOVT     r1,#6
        0x08001f0e:    4208        .B      TST      r0,r1
        0x08001f10:    d11b        ..      BNE      0x8001f4a ; HAL_GPIO_Init + 154
        0x08001f12:    e013        ..      B        0x8001f3c ; HAL_GPIO_Init + 140
        0x08001f14:    f5b01f08    ....    CMP      r0,#0x220000
        0x08001f18:    da09        ..      BGE      0x8001f2e ; HAL_GPIO_Init + 126
        0x08001f1a:    f5b01f88    ....    CMP      r0,#0x110000
        0x08001f1e:    bf18        ..      IT       NE
        0x08001f20:    f5b01f90    ....    CMPNE    r0,#0x120000
        0x08001f24:    d011        ..      BEQ      0x8001f4a ; HAL_GPIO_Init + 154
        0x08001f26:    f5b01f04    ....    CMP      r0,#0x210000
        0x08001f2a:    d00e        ..      BEQ      0x8001f4a ; HAL_GPIO_Init + 154
        0x08001f2c:    e006        ..      B        0x8001f3c ; HAL_GPIO_Init + 140
        0x08001f2e:    bf18        ..      IT       NE
        0x08001f30:    f5b01f44    ..D.    CMPNE    r0,#0x310000
        0x08001f34:    d009        ..      BEQ      0x8001f4a ; HAL_GPIO_Init + 154
        0x08001f36:    f5b01f48    ..H.    CMP      r0,#0x320000
        0x08001f3a:    d006        ..      BEQ      0x8001f4a ; HAL_GPIO_Init + 154
        0x08001f3c:    f6475068    G.hP    MOV      r0,#0x7d68
        0x08001f40:    21b5        .!      MOVS     r1,#0xb5
        0x08001f42:    f6c00000    ....    MOVT     r0,#0x800
        0x08001f46:    f005f8bf    ....    BL       assert_failed ; 0x80070c8
        0x08001f4a:    6828        (h      LDR      r0,[r5,#0]
        0x08001f4c:    2800        .(      CMP      r0,#0
        0x08001f4e:    f00080ed    ....    BEQ.W    0x800212c ; HAL_GPIO_Init + 636
        0x08001f52:    f2424100    B..A    MOVW     r1,#0x2400
        0x08001f56:    220a        ."      MOVS     r2,#0xa
        0x08001f58:    f6c50102    ....    MOVT     r1,#0x5802
        0x08001f5c:    f04f0800    O...    MOV      r8,#0
        0x08001f60:    428c        .B      CMP      r4,r1
        0x08001f62:    f04f0c03    O...    MOV      r12,#3
        0x08001f66:    bf08        ..      IT       EQ
        0x08001f68:    2209        ."      MOVEQ    r2,#9
        0x08001f6a:    f04f0b00    O...    MOV      r11,#0
        0x08001f6e:    f04f0a01    O...    MOV      r10,#1
        0x08001f72:    9200        ..      STR      r2,[sp,#0]
        0x08001f74:    e00b        ..      B        0x8001f8e ; HAL_GPIO_Init + 222
        0x08001f76:    bf00        ..      NOP      
        0x08001f78:    6828        (h      LDR      r0,[r5,#0]
        0x08001f7a:    f10b0b04    ....    ADD      r11,r11,#4
        0x08001f7e:    fa30f10a    0...    LSRS     r1,r0,r10
        0x08001f82:    f10a0a01    ....    ADD      r10,r10,#1
        0x08001f86:    f1080802    ....    ADD      r8,r8,#2
        0x08001f8a:    f00080cf    ....    BEQ.W    0x800212c ; HAL_GPIO_Init + 636
        0x08001f8e:    f1aa0701    ....    SUB      r7,r10,#1
        0x08001f92:    2101        .!      MOVS     r1,#1
        0x08001f94:    fa01f607    ....    LSL      r6,r1,r7
        0x08001f98:    ea100906    ....    ANDS     r9,r0,r6
        0x08001f9c:    d0ec        ..      BEQ      0x8001f78 ; HAL_GPIO_Init + 200
        0x08001f9e:    6868        hh      LDR      r0,[r5,#4]
        0x08001fa0:    f0000003    ....    AND      r0,r0,#3
        0x08001fa4:    3801        .8      SUBS     r0,#1
        0x08001fa6:    2801        .(      CMP      r0,#1
        0x08001fa8:    d81c        ..      BHI      0x8001fe4 ; HAL_GPIO_Init + 308
        0x08001faa:    68e8        .h      LDR      r0,[r5,#0xc]
        0x08001fac:    2804        .(      CMP      r0,#4
        0x08001fae:    d308        ..      BCC      0x8001fc2 ; HAL_GPIO_Init + 274
        0x08001fb0:    f6475068    G.hP    MOV      r0,#0x7d68
        0x08001fb4:    21c4        .!      MOVS     r1,#0xc4
        0x08001fb6:    f6c00000    ....    MOVT     r0,#0x800
        0x08001fba:    f005f885    ....    BL       assert_failed ; 0x80070c8
        0x08001fbe:    f04f0c03    O...    MOV      r12,#3
        0x08001fc2:    68a0        .h      LDR      r0,[r4,#8]
        0x08001fc4:    fa0cf108    ....    LSL      r1,r12,r8
        0x08001fc8:    4388        .C      BICS     r0,r0,r1
        0x08001fca:    68e9        .h      LDR      r1,[r5,#0xc]
        0x08001fcc:    686a        jh      LDR      r2,[r5,#4]
        0x08001fce:    fa01f108    ....    LSL      r1,r1,r8
        0x08001fd2:    4308        .C      ORRS     r0,r0,r1
        0x08001fd4:    60a0        .`      STR      r0,[r4,#8]
        0x08001fd6:    f3c21100    ....    UBFX     r1,r2,#4,#1
        0x08001fda:    6860        `h      LDR      r0,[r4,#4]
        0x08001fdc:    43b0        .C      BICS     r0,r0,r6
        0x08001fde:    40b9        .@      LSLS     r1,r1,r7
        0x08001fe0:    4308        .C      ORRS     r0,r0,r1
        0x08001fe2:    6060        ``      STR      r0,[r4,#4]
        0x08001fe4:    6868        hh      LDR      r0,[r5,#4]
        0x08001fe6:    f0000003    ....    AND      r0,r0,#3
        0x08001fea:    2803        .(      CMP      r0,#3
        0x08001fec:    d014        ..      BEQ      0x8002018 ; HAL_GPIO_Init + 360
        0x08001fee:    68a8        .h      LDR      r0,[r5,#8]
        0x08001ff0:    2803        .(      CMP      r0,#3
        0x08001ff2:    d308        ..      BCC      0x8002006 ; HAL_GPIO_Init + 342
        0x08001ff4:    f6475068    G.hP    MOV      r0,#0x7d68
        0x08001ff8:    21d6        .!      MOVS     r1,#0xd6
        0x08001ffa:    f6c00000    ....    MOVT     r0,#0x800
        0x08001ffe:    f005f863    ..c.    BL       assert_failed ; 0x80070c8
        0x08002002:    f04f0c03    O...    MOV      r12,#3
        0x08002006:    68e0        .h      LDR      r0,[r4,#0xc]
        0x08002008:    fa0cf108    ....    LSL      r1,r12,r8
        0x0800200c:    68aa        .h      LDR      r2,[r5,#8]
        0x0800200e:    4388        .C      BICS     r0,r0,r1
        0x08002010:    fa02f108    ....    LSL      r1,r2,r8
        0x08002014:    4308        .C      ORRS     r0,r0,r1
        0x08002016:    60e0        .`      STR      r0,[r4,#0xc]
        0x08002018:    6868        hh      LDR      r0,[r5,#4]
        0x0800201a:    f0000003    ....    AND      r0,r0,#3
        0x0800201e:    2802        .(      CMP      r0,#2
        0x08002020:    d127        '.      BNE      0x8002072 ; HAL_GPIO_Init + 450
        0x08002022:    9801        ..      LDR      r0,[sp,#4]
        0x08002024:    280b        .(      CMP      r0,#0xb
        0x08002026:    d308        ..      BCC      0x800203a ; HAL_GPIO_Init + 394
        0x08002028:    f6475068    G.hP    MOV      r0,#0x7d68
        0x0800202c:    21e3        .!      MOVS     r1,#0xe3
        0x0800202e:    f6c00000    ....    MOVT     r0,#0x800
        0x08002032:    f005f849    ..I.    BL       assert_failed ; 0x80070c8
        0x08002036:    f04f0c03    O...    MOV      r12,#3
        0x0800203a:    6928        (i      LDR      r0,[r5,#0x10]
        0x0800203c:    2810        .(      CMP      r0,#0x10
        0x0800203e:    d308        ..      BCC      0x8002052 ; HAL_GPIO_Init + 418
        0x08002040:    f6475068    G.hP    MOV      r0,#0x7d68
        0x08002044:    21e4        .!      MOVS     r1,#0xe4
        0x08002046:    f6c00000    ....    MOVT     r0,#0x800
        0x0800204a:    f005f83d    ..=.    BL       assert_failed ; 0x80070c8
        0x0800204e:    f04f0c03    O...    MOV      r12,#3
        0x08002052:    f06f0003    o...    MVN      r0,#3
        0x08002056:    f00b021c    ....    AND      r2,r11,#0x1c
        0x0800205a:    ea000057    ..W.    AND      r0,r0,r7,LSR #1
        0x0800205e:    230f        .#      MOVS     r3,#0xf
        0x08002060:    4420         D      ADD      r0,r0,r4
        0x08002062:    4093        .@      LSLS     r3,r3,r2
        0x08002064:    6a01        .j      LDR      r1,[r0,#0x20]
        0x08002066:    692e        .i      LDR      r6,[r5,#0x10]
        0x08002068:    4399        .C      BICS     r1,r1,r3
        0x0800206a:    fa06f202    ....    LSL      r2,r6,r2
        0x0800206e:    4311        .C      ORRS     r1,r1,r2
        0x08002070:    6201        .b      STR      r1,[r0,#0x20]
        0x08002072:    6820         h      LDR      r0,[r4,#0]
        0x08002074:    fa0cf108    ....    LSL      r1,r12,r8
        0x08002078:    686a        jh      LDR      r2,[r5,#4]
        0x0800207a:    4388        .C      BICS     r0,r0,r1
        0x0800207c:    f0020103    ....    AND      r1,r2,#3
        0x08002080:    f4123f40    ..@?    TST      r2,#0x30000
        0x08002084:    fa01f108    ....    LSL      r1,r1,r8
        0x08002088:    ea400001    @...    ORR      r0,r0,r1
        0x0800208c:    6020         `      STR      r0,[r4,#0]
        0x0800208e:    f43faf73    ?.s.    BEQ      0x8001f78 ; HAL_GPIO_Init + 200
        0x08002092:    f24441f4    D..A    MOV      r1,#0x44f4
        0x08002096:    f2404608    @..F    MOVW     r6,#0x408
        0x0800209a:    f6c50102    ....    MOVT     r1,#0x5802
        0x0800209e:    f6c50600    ....    MOVT     r6,#0x5800
        0x080020a2:    6808        .h      LDR      r0,[r1,#0]
        0x080020a4:    f0400002    @...    ORR      r0,r0,#2
        0x080020a8:    6008        .`      STR      r0,[r1,#0]
        0x080020aa:    6808        .h      LDR      r0,[r1,#0]
        0x080020ac:    f00b010c    ....    AND      r1,r11,#0xc
        0x080020b0:    f0000002    ....    AND      r0,r0,#2
        0x080020b4:    9002        ..      STR      r0,[sp,#8]
        0x080020b6:    9802        ..      LDR      r0,[sp,#8]
        0x080020b8:    f0270003    '...    BIC      r0,r7,#3
        0x080020bc:    9b01        ..      LDR      r3,[sp,#4]
        0x080020be:    9a00        ..      LDR      r2,[sp,#0]
        0x080020c0:    2b09        .+      CMP      r3,#9
        0x080020c2:    f04f070f    O...    MOV      r7,#0xf
        0x080020c6:    bf38        8.      IT       CC
        0x080020c8:    461a        .F      MOVCC    r2,r3
        0x080020ca:    5983        .Y      LDR      r3,[r0,r6]
        0x080020cc:    408f        .@      LSLS     r7,r7,r1
        0x080020ce:    43bb        .C      BICS     r3,r3,r7
        0x080020d0:    fa02f101    ....    LSL      r1,r2,r1
        0x080020d4:    f04f47b0    O..G    MOV      r7,#0x58000000
        0x080020d8:    4319        .C      ORRS     r1,r1,r3
        0x080020da:    5181        .Q      STR      r1,[r0,r6]
        0x080020dc:    6838        8h      LDR      r0,[r7,#0]
        0x080020de:    6869        ih      LDR      r1,[r5,#4]
        0x080020e0:    ea400209    @...    ORR      r2,r0,r9
        0x080020e4:    02cb        ..      LSLS     r3,r1,#11
        0x080020e6:    bf58        X.      IT       PL
        0x080020e8:    ea200209     ...    BICPL    r2,r0,r9
        0x080020ec:    028b        ..      LSLS     r3,r1,#10
        0x080020ee:    603a        :`      STR      r2,[r7,#0]
        0x080020f0:    f2400704    @...    MOVW     r7,#4
        0x080020f4:    f6c50700    ....    MOVT     r7,#0x5800
        0x080020f8:    6838        8h      LDR      r0,[r7,#0]
        0x080020fa:    ea400209    @...    ORR      r2,r0,r9
        0x080020fe:    bf58        X.      IT       PL
        0x08002100:    ea200209     ...    BICPL    r2,r0,r9
        0x08002104:    038b        ..      LSLS     r3,r1,#14
        0x08002106:    603a        :`      STR      r2,[r7,#0]
        0x08002108:    f8d70080    ....    LDR      r0,[r7,#0x80]
        0x0800210c:    ea400209    @...    ORR      r2,r0,r9
        0x08002110:    bf58        X.      IT       PL
        0x08002112:    ea200209     ...    BICPL    r2,r0,r9
        0x08002116:    03c9        ..      LSLS     r1,r1,#15
        0x08002118:    f8c72080    ...     STR      r2,[r7,#0x80]
        0x0800211c:    6ff8        .o      LDR      r0,[r7,#0x7c]
        0x0800211e:    ea400209    @...    ORR      r2,r0,r9
        0x08002122:    bf58        X.      IT       PL
        0x08002124:    ea200209     ...    BICPL    r2,r0,r9
        0x08002128:    67fa        .g      STR      r2,[r7,#0x7c]
        0x0800212a:    e725        %.      B        0x8001f78 ; HAL_GPIO_Init + 200
        0x0800212c:    b003        ..      ADD      sp,sp,#0xc
        0x0800212e:    e8bd8ff0    ....    POP      {r4-r11,pc}
        0x08002132:    0000        ..      MOVS     r0,r0
        0x08002134:    0000        ..      MOVS     r0,r0
        0x08002136:    0000        ..      MOVS     r0,r0
    HAL_GPIO_ReadPin
        0x08002138:    b5b0        ..      PUSH     {r4,r5,r7,lr}
        0x0800213a:    460c        .F      MOV      r4,r1
        0x0800213c:    4605        .F      MOV      r5,r0
        0x0800213e:    b939        9.      CBNZ     r1,0x8002150 ; HAL_GPIO_ReadPin + 24
        0x08002140:    f6475068    G.hP    MOV      r0,#0x7d68
        0x08002144:    f44f71c5    O..q    MOV      r1,#0x18a
        0x08002148:    f6c00000    ....    MOVT     r0,#0x800
        0x0800214c:    f004ffbc    ....    BL       assert_failed ; 0x80070c8
        0x08002150:    6928        (i      LDR      r0,[r5,#0x10]
        0x08002152:    4020         @      ANDS     r0,r0,r4
        0x08002154:    bf18        ..      IT       NE
        0x08002156:    2001        .       MOVNE    r0,#1
        0x08002158:    bdb0        ..      POP      {r4,r5,r7,pc}
        0x0800215a:    0000        ..      MOVS     r0,r0
        0x0800215c:    0000        ..      MOVS     r0,r0
        0x0800215e:    0000        ..      MOVS     r0,r0
    HAL_GPIO_WritePin
        0x08002160:    b570        p.      PUSH     {r4-r6,lr}
        0x08002162:    460c        .F      MOV      r4,r1
        0x08002164:    4616        .F      MOV      r6,r2
        0x08002166:    4605        .F      MOV      r5,r0
        0x08002168:    b121        !.      CBZ      r1,0x8002174 ; HAL_GPIO_WritePin + 20
        0x0800216a:    b16e        n.      CBZ      r6,0x8002188 ; HAL_GPIO_WritePin + 40
        0x0800216c:    2e01        ..      CMP      r6,#1
        0x0800216e:    d10e        ..      BNE      0x800218e ; HAL_GPIO_WritePin + 46
        0x08002170:    61ac        .a      STR      r4,[r5,#0x18]
        0x08002172:    bd70        p.      POP      {r4-r6,pc}
        0x08002174:    f6475068    G.hP    MOV      r0,#0x7d68
        0x08002178:    f44f71d5    O..q    MOV      r1,#0x1aa
        0x0800217c:    f6c00000    ....    MOVT     r0,#0x800
        0x08002180:    f004ffa2    ....    BL       assert_failed ; 0x80070c8
        0x08002184:    2e00        ..      CMP      r6,#0
        0x08002186:    d1f1        ..      BNE      0x800216c ; HAL_GPIO_WritePin + 12
        0x08002188:    0424        $.      LSLS     r4,r4,#16
        0x0800218a:    61ac        .a      STR      r4,[r5,#0x18]
        0x0800218c:    bd70        p.      POP      {r4-r6,pc}
        0x0800218e:    f6475068    G.hP    MOV      r0,#0x7d68
        0x08002192:    f24011ab    @...    MOV      r1,#0x1ab
        0x08002196:    f6c00000    ....    MOVT     r0,#0x800
        0x0800219a:    f004ff95    ....    BL       assert_failed ; 0x80070c8
        0x0800219e:    61ac        .a      STR      r4,[r5,#0x18]
        0x080021a0:    bd70        p.      POP      {r4-r6,pc}
        0x080021a2:    0000        ..      MOVS     r0,r0
        0x080021a4:    0000        ..      MOVS     r0,r0
        0x080021a6:    0000        ..      MOVS     r0,r0
    HAL_GetREVID
        0x080021a8:    f2410000    A...    MOVW     r0,#0x1000
        0x080021ac:    f6c54000    ...@    MOVT     r0,#0x5c00
        0x080021b0:    6800        .h      LDR      r0,[r0,#0]
        0x080021b2:    0c00        ..      LSRS     r0,r0,#16
        0x080021b4:    4770        pG      BX       lr
        0x080021b6:    0000        ..      MOVS     r0,r0
    HAL_GetTick
        0x080021b8:    f64010f8    @...    MOV      r0,#0x9f8
        0x080021bc:    f2c24000    ...@    MOVT     r0,#0x2400
        0x080021c0:    6800        .h      LDR      r0,[r0,#0]
        0x080021c2:    4770        pG      BX       lr
        0x080021c4:    0000        ..      MOVS     r0,r0
        0x080021c6:    0000        ..      MOVS     r0,r0
    HAL_IncTick
        0x080021c8:    f2400008    @...    MOVW     r0,#8
        0x080021cc:    f64011f8    @...    MOV      r1,#0x9f8
        0x080021d0:    f2c24000    ...@    MOVT     r0,#0x2400
        0x080021d4:    f2c24100    ...A    MOVT     r1,#0x2400
        0x080021d8:    7800        .x      LDRB     r0,[r0,#0]
        0x080021da:    680a        .h      LDR      r2,[r1,#0]
        0x080021dc:    4410        .D      ADD      r0,r0,r2
        0x080021de:    6008        .`      STR      r0,[r1,#0]
        0x080021e0:    4770        pG      BX       lr
        0x080021e2:    0000        ..      MOVS     r0,r0
        0x080021e4:    0000        ..      MOVS     r0,r0
        0x080021e6:    0000        ..      MOVS     r0,r0
    HAL_Init
        0x080021e8:    b580        ..      PUSH     {r7,lr}
        0x080021ea:    2003        .       MOVS     r0,#3
        0x080021ec:    f000f8a0    ....    BL       HAL_NVIC_SetPriorityGrouping ; 0x8002330
        0x080021f0:    f001fe82    ....    BL       HAL_RCC_GetSysClockFreq ; 0x8003ef8
        0x080021f4:    f2444118    D..A    MOV      r1,#0x4418
        0x080021f8:    f647430e    G..C    MOV      r3,#0x7c0e
        0x080021fc:    f6c50102    ....    MOVT     r1,#0x5802
        0x08002200:    f6c00300    ....    MOVT     r3,#0x800
        0x08002204:    680a        .h      LDR      r2,[r1,#0]
        0x08002206:    6809        .h      LDR      r1,[r1,#0]
        0x08002208:    f001010f    ....    AND      r1,r1,#0xf
        0x0800220c:    f3c22203    ..."    UBFX     r2,r2,#8,#4
        0x08002210:    5c59        Y\      LDRB     r1,[r3,r1]
        0x08002212:    5c9a        .\      LDRB     r2,[r3,r2]
        0x08002214:    f001011f    ....    AND      r1,r1,#0x1f
        0x08002218:    f002021f    ....    AND      r2,r2,#0x1f
        0x0800221c:    40d0        .@      LSRS     r0,r0,r2
        0x0800221e:    f2400204    @...    MOVW     r2,#4
        0x08002222:    f2c24200    ...B    MOVT     r2,#0x2400
        0x08002226:    fa20f101     ...    LSR      r1,r0,r1
        0x0800222a:    6011        .`      STR      r1,[r2,#0]
        0x0800222c:    f2400100    @...    MOVW     r1,#0
        0x08002230:    f2c24100    ...A    MOVT     r1,#0x2400
        0x08002234:    6008        .`      STR      r0,[r1,#0]
        0x08002236:    2000        .       MOVS     r0,#0
        0x08002238:    f000f80a    ....    BL       HAL_InitTick ; 0x8002250
        0x0800223c:    2800        .(      CMP      r0,#0
        0x0800223e:    bf1c        ..      ITT      NE
        0x08002240:    2001        .       MOVNE    r0,#1
        0x08002242:    bd80        ..      POPNE    {r7,pc}
        0x08002244:    f000f830    ..0.    BL       HAL_MspInit ; 0x80022a8
        0x08002248:    2000        .       MOVS     r0,#0
        0x0800224a:    bd80        ..      POP      {r7,pc}
        0x0800224c:    0000        ..      MOVS     r0,r0
        0x0800224e:    0000        ..      MOVS     r0,r0
    HAL_InitTick
        0x08002250:    b5b0        ..      PUSH     {r4,r5,r7,lr}
        0x08002252:    f2400108    @...    MOVW     r1,#8
        0x08002256:    f2c24100    ...A    MOVT     r1,#0x2400
        0x0800225a:    7809        .x      LDRB     r1,[r1,#0]
        0x0800225c:    b301        ..      CBZ      r1,0x80022a0 ; HAL_InitTick + 80
        0x0800225e:    4604        .F      MOV      r4,r0
        0x08002260:    f2400000    @...    MOVW     r0,#0
        0x08002264:    f2c24000    ...@    MOVT     r0,#0x2400
        0x08002268:    f44f727a    O.zr    MOV      r2,#0x3e8
        0x0800226c:    fbb2f1f1    ....    UDIV     r1,r2,r1
        0x08002270:    6800        .h      LDR      r0,[r0,#0]
        0x08002272:    fbb0f0f1    ....    UDIV     r0,r0,r1
        0x08002276:    f002fbbb    ....    BL       HAL_SYSTICK_Config ; 0x80049f0
        0x0800227a:    2c0f        .,      CMP      r4,#0xf
        0x0800227c:    f04f0501    O...    MOV      r5,#1
        0x08002280:    d80c        ..      BHI      0x800229c ; HAL_InitTick + 76
        0x08002282:    b958        X.      CBNZ     r0,0x800229c ; HAL_InitTick + 76
        0x08002284:    f04f30ff    O..0    MOV      r0,#0xffffffff
        0x08002288:    2200        ."      MOVS     r2,#0
        0x0800228a:    4621        !F      MOV      r1,r4
        0x0800228c:    2500        .%      MOVS     r5,#0
        0x0800228e:    f000f82b    ..+.    BL       HAL_NVIC_SetPriority ; 0x80022e8
        0x08002292:    f240000c    @...    MOVW     r0,#0xc
        0x08002296:    f2c24000    ...@    MOVT     r0,#0x2400
        0x0800229a:    6004        .`      STR      r4,[r0,#0]
        0x0800229c:    4628        (F      MOV      r0,r5
        0x0800229e:    bdb0        ..      POP      {r4,r5,r7,pc}
        0x080022a0:    2001        .       MOVS     r0,#1
        0x080022a2:    bdb0        ..      POP      {r4,r5,r7,pc}
        0x080022a4:    0000        ..      MOVS     r0,r0
        0x080022a6:    0000        ..      MOVS     r0,r0
    HAL_MspInit
        0x080022a8:    b081        ..      SUB      sp,sp,#4
        0x080022aa:    f24440f4    D..@    MOV      r0,#0x44f4
        0x080022ae:    f6c50002    ....    MOVT     r0,#0x5802
        0x080022b2:    6801        .h      LDR      r1,[r0,#0]
        0x080022b4:    f0410102    A...    ORR      r1,r1,#2
        0x080022b8:    6001        .`      STR      r1,[r0,#0]
        0x080022ba:    6800        .h      LDR      r0,[r0,#0]
        0x080022bc:    f0000002    ....    AND      r0,r0,#2
        0x080022c0:    9000        ..      STR      r0,[sp,#0]
        0x080022c2:    9800        ..      LDR      r0,[sp,#0]
        0x080022c4:    b001        ..      ADD      sp,sp,#4
        0x080022c6:    4770        pG      BX       lr
    HAL_NVIC_EnableIRQ
        0x080022c8:    b510        ..      PUSH     {r4,lr}
        0x080022ca:    4604        .F      MOV      r4,r0
        0x080022cc:    f1b03fff    ...?    CMP      r0,#0xffffffff
        0x080022d0:    dc06        ..      BGT      0x80022e0 ; HAL_NVIC_EnableIRQ + 24
        0x080022d2:    f64750dc    G..P    MOV      r0,#0x7ddc
        0x080022d6:    21bd        .!      MOVS     r1,#0xbd
        0x080022d8:    f6c00000    ....    MOVT     r0,#0x800
        0x080022dc:    f004fef4    ....    BL       assert_failed ; 0x80070c8
        0x080022e0:    4620         F      MOV      r0,r4
        0x080022e2:    f004feb1    ....    BL       __NVIC_EnableIRQ ; 0x8007048
        0x080022e6:    bd10        ..      POP      {r4,pc}
    HAL_NVIC_SetPriority
        0x080022e8:    b570        p.      PUSH     {r4-r6,lr}
        0x080022ea:    4615        .F      MOV      r5,r2
        0x080022ec:    2a10        .*      CMP      r2,#0x10
        0x080022ee:    460e        .F      MOV      r6,r1
        0x080022f0:    4604        .F      MOV      r4,r0
        0x080022f2:    d306        ..      BCC      0x8002302 ; HAL_NVIC_SetPriority + 26
        0x080022f4:    f64750dc    G..P    MOV      r0,#0x7ddc
        0x080022f8:    21a9        .!      MOVS     r1,#0xa9
        0x080022fa:    f6c00000    ....    MOVT     r0,#0x800
        0x080022fe:    f004fee3    ....    BL       assert_failed ; 0x80070c8
        0x08002302:    2e10        ..      CMP      r6,#0x10
        0x08002304:    d306        ..      BCC      0x8002314 ; HAL_NVIC_SetPriority + 44
        0x08002306:    f64750dc    G..P    MOV      r0,#0x7ddc
        0x0800230a:    21aa        .!      MOVS     r1,#0xaa
        0x0800230c:    f6c00000    ....    MOVT     r0,#0x800
        0x08002310:    f004feda    ....    BL       assert_failed ; 0x80070c8
        0x08002314:    f004fea8    ....    BL       __NVIC_GetPriorityGrouping ; 0x8007068
        0x08002318:    4631        1F      MOV      r1,r6
        0x0800231a:    462a        *F      MOV      r2,r5
        0x0800231c:    f003fd0c    ....    BL       NVIC_EncodePriority ; 0x8005d38
        0x08002320:    4601        .F      MOV      r1,r0
        0x08002322:    4620         F      MOV      r0,r4
        0x08002324:    f004fea8    ....    BL       __NVIC_SetPriority ; 0x8007078
        0x08002328:    bd70        p.      POP      {r4-r6,pc}
        0x0800232a:    0000        ..      MOVS     r0,r0
        0x0800232c:    0000        ..      MOVS     r0,r0
        0x0800232e:    0000        ..      MOVS     r0,r0
    HAL_NVIC_SetPriorityGrouping
        0x08002330:    b510        ..      PUSH     {r4,lr}
        0x08002332:    4604        .F      MOV      r4,r0
        0x08002334:    3803        .8      SUBS     r0,#3
        0x08002336:    2805        .(      CMP      r0,#5
        0x08002338:    d306        ..      BCC      0x8002348 ; HAL_NVIC_SetPriorityGrouping + 24
        0x0800233a:    f64750dc    G..P    MOV      r0,#0x7ddc
        0x0800233e:    2191        .!      MOVS     r1,#0x91
        0x08002340:    f6c00000    ....    MOVT     r0,#0x800
        0x08002344:    f004fec0    ....    BL       assert_failed ; 0x80070c8
        0x08002348:    4620         F      MOV      r0,r4
        0x0800234a:    f004fea9    ....    BL       __NVIC_SetPriorityGrouping ; 0x80070a0
        0x0800234e:    bd10        ..      POP      {r4,pc}
    HAL_PWREx_ConfigSupply
        0x08002350:    b5b0        ..      PUSH     {r4,r5,r7,lr}
        0x08002352:    4604        .F      MOV      r4,r0
        0x08002354:    3801        .8      SUBS     r0,#1
        0x08002356:    2802        .(      CMP      r0,#2
        0x08002358:    d307        ..      BCC      0x800236a ; HAL_PWREx_ConfigSupply + 26
        0x0800235a:    f64750a1    G..P    MOV      r0,#0x7da1
        0x0800235e:    f44f719f    O..q    MOV      r1,#0x13e
        0x08002362:    f6c00000    ....    MOVT     r0,#0x800
        0x08002366:    f004feaf    ....    BL       assert_failed ; 0x80070c8
        0x0800236a:    f644050c    D...    MOV      r5,#0x480c
        0x0800236e:    f6c50502    ....    MOVT     r5,#0x5802
        0x08002372:    6828        (h      LDR      r0,[r5,#0]
        0x08002374:    0740        @.      LSLS     r0,r0,#29
        0x08002376:    6828        (h      LDR      r0,[r5,#0]
        0x08002378:    d405        ..      BMI      0x8002386 ; HAL_PWREx_ConfigSupply + 54
        0x0800237a:    f0000007    ....    AND      r0,r0,#7
        0x0800237e:    1b00        ..      SUBS     r0,r0,r4
        0x08002380:    bf18        ..      IT       NE
        0x08002382:    2001        .       MOVNE    r0,#1
        0x08002384:    bdb0        ..      POP      {r4,r5,r7,pc}
        0x08002386:    f0200007     ...    BIC      r0,r0,#7
        0x0800238a:    4320         C      ORRS     r0,r0,r4
        0x0800238c:    6028        (`      STR      r0,[r5,#0]
        0x0800238e:    f7ffff13    ....    BL       HAL_GetTick ; 0x80021b8
        0x08002392:    4604        .F      MOV      r4,r0
        0x08002394:    f8550c08    U...    LDR      r0,[r5,#-8]
        0x08002398:    0480        ..      LSLS     r0,r0,#18
        0x0800239a:    d407        ..      BMI      0x80023ac ; HAL_PWREx_ConfigSupply + 92
        0x0800239c:    f7ffff0c    ....    BL       HAL_GetTick ; 0x80021b8
        0x080023a0:    1b00        ..      SUBS     r0,r0,r4
        0x080023a2:    f5b07f7a    ..z.    CMP      r0,#0x3e8
        0x080023a6:    d9f5        ..      BLS      0x8002394 ; HAL_PWREx_ConfigSupply + 68
        0x080023a8:    2001        .       MOVS     r0,#1
        0x080023aa:    bdb0        ..      POP      {r4,r5,r7,pc}
        0x080023ac:    2000        .       MOVS     r0,#0
        0x080023ae:    bdb0        ..      POP      {r4,r5,r7,pc}
    HAL_RCCEx_GetD3PCLK1Freq
        0x080023b0:    b580        ..      PUSH     {r7,lr}
        0x080023b2:    f001fd51    ..Q.    BL       HAL_RCC_GetHCLKFreq ; 0x8003e58
        0x080023b6:    f2444120    D. A    MOV      r1,#0x4420
        0x080023ba:    f647420e    G..B    MOV      r2,#0x7c0e
        0x080023be:    f6c50102    ....    MOVT     r1,#0x5802
        0x080023c2:    f6c00200    ....    MOVT     r2,#0x800
        0x080023c6:    6809        .h      LDR      r1,[r1,#0]
        0x080023c8:    f3c11102    ....    UBFX     r1,r1,#4,#3
        0x080023cc:    5c51        Q\      LDRB     r1,[r2,r1]
        0x080023ce:    f001011f    ....    AND      r1,r1,#0x1f
        0x080023d2:    40c8        .@      LSRS     r0,r0,r1
        0x080023d4:    bd80        ..      POP      {r7,pc}
        0x080023d6:    0000        ..      MOVS     r0,r0
    HAL_RCCEx_GetPLL1ClockFreq
        0x080023d8:    b580        ..      PUSH     {r7,lr}
        0x080023da:    f2444e30    D.0N    MOV      lr,#0x4430
        0x080023de:    f6c50e02    ....    MOVT     lr,#0x5802
        0x080023e2:    f85e3c08    ^..<    LDR      r3,[lr,#-8]
        0x080023e6:    f85e1c08    ^...    LDR      r1,[lr,#-8]
        0x080023ea:    f3c11c05    ....    UBFX     r12,r1,#4,#6
        0x080023ee:    f85e1c04    ^...    LDR      r1,[lr,#-4]
        0x080023f2:    f1bc0f00    ....    CMP      r12,#0
        0x080023f6:    f8de2004    ...     LDR      r2,[lr,#4]
        0x080023fa:    d016        ..      BEQ      0x800242a ; HAL_RCCEx_GetPLL1ClockFreq + 82
        0x080023fc:    f3c202cc    ....    UBFX     r2,r2,#3,#13
        0x08002400:    f0010101    ....    AND      r1,r1,#1
        0x08002404:    4351        QC      MULS     r1,r2,r1
        0x08002406:    f0030303    ....    AND      r3,r3,#3
        0x0800240a:    2b02        .+      CMP      r3,#2
        0x0800240c:    ee001a10    ....    VMOV     s0,r1
        0x08002410:    eeb80a40    ..@.    VCVT.F32.U32 s0,s0
        0x08002414:    d00e        ..      BEQ      0x8002434 ; HAL_RCCEx_GetPLL1ClockFreq + 92
        0x08002416:    2b01        .+      CMP      r3,#1
        0x08002418:    d00f        ..      BEQ      0x800243a ; HAL_RCCEx_GetPLL1ClockFreq + 98
        0x0800241a:    b91b        ..      CBNZ     r3,0x8002424 ; HAL_RCCEx_GetPLL1ClockFreq + 76
        0x0800241c:    f85e1c30    ^.0.    LDR      r1,[lr,#-0x30]
        0x08002420:    0689        ..      LSLS     r1,r1,#26
        0x08002422:    d40d        ..      BMI      0x8002440 ; HAL_RCCEx_GetPLL1ClockFreq + 104
        0x08002424:    ed9f1a34    ..4.    VLDR     s2,[pc,#208] ; [0x80024f8] = 0x4c742400
        0x08002428:    e018        ..      B        0x800245c ; HAL_RCCEx_GetPLL1ClockFreq + 132
        0x0800242a:    2100        .!      MOVS     r1,#0
        0x0800242c:    6081        .`      STR      r1,[r0,#8]
        0x0800242e:    e9c01100    ....    STRD     r1,r1,[r0,#0]
        0x08002432:    bd80        ..      POP      {r7,pc}
        0x08002434:    ed9f1a2f    ../.    VLDR     s2,[pc,#188] ; [0x80024f4] = 0x4bbebc20
        0x08002438:    e010        ..      B        0x800245c ; HAL_RCCEx_GetPLL1ClockFreq + 132
        0x0800243a:    ed9f1a2d    ..-.    VLDR     s2,[pc,#180] ; [0x80024f0] = 0x4a742400
        0x0800243e:    e00d        ..      B        0x800245c ; HAL_RCCEx_GetPLL1ClockFreq + 132
        0x08002440:    f85e1c30    ^.0.    LDR      r1,[lr,#-0x30]
        0x08002444:    f2490200    I...    MOVW     r2,#0x9000
        0x08002448:    f2c032d0    ...2    MOVT     r2,#0x3d0
        0x0800244c:    f3c101c1    ....    UBFX     r1,r1,#3,#2
        0x08002450:    fa22f101    "...    LSR      r1,r2,r1
        0x08002454:    ee011a10    ....    VMOV     s2,r1
        0x08002458:    eeb81a41    ..A.    VCVT.F32.U32 s2,s2
        0x0800245c:    f8de1000    ....    LDR      r1,[lr,#0]
        0x08002460:    ed9f3a26    ..&:    VLDR     s6,[pc,#152] ; [0x80024fc] = 0x39000000
        0x08002464:    f36f215f    o._!    BFC      r1,#9,#23
        0x08002468:    ee021a10    ....    VMOV     s4,r1
        0x0800246c:    f8de1000    ....    LDR      r1,[lr,#0]
        0x08002470:    f3c12146    ..F!    UBFX     r1,r1,#9,#7
        0x08002474:    eeb82a42    ..B*    VCVT.F32.U32 s4,s4
        0x08002478:    ee002a03    ...*    VMLA.F32 s4,s0,s6
        0x0800247c:    ee00ca10    ....    VMOV     s0,r12
        0x08002480:    eeb73a00    ...:    VMOV.F32 s6,#1.00000000
        0x08002484:    eeb80a40    ..@.    VCVT.F32.U32 s0,s0
        0x08002488:    ee810a00    ....    VDIV.F32 s0,s2,s0
        0x0800248c:    ee321a03    2...    VADD.F32 s2,s4,s6
        0x08002490:    ee021a10    ....    VMOV     s4,r1
        0x08002494:    eeb82a42    ..B*    VCVT.F32.U32 s4,s4
        0x08002498:    ee200a01     ...    VMUL.F32 s0,s0,s2
        0x0800249c:    ee321a03    2...    VADD.F32 s2,s4,s6
        0x080024a0:    ee801a01    ....    VDIV.F32 s2,s0,s2
        0x080024a4:    eebc1ac1    ....    VCVT.U32.F32 s2,s2
        0x080024a8:    ed801a00    ....    VSTR     s2,[r0,#0]
        0x080024ac:    f8de1000    ....    LDR      r1,[lr,#0]
        0x080024b0:    f3c14106    ...A    UBFX     r1,r1,#16,#7
        0x080024b4:    ee011a10    ....    VMOV     s2,r1
        0x080024b8:    eeb81a41    ..A.    VCVT.F32.U32 s2,s2
        0x080024bc:    ee311a03    1...    VADD.F32 s2,s2,s6
        0x080024c0:    ee801a01    ....    VDIV.F32 s2,s0,s2
        0x080024c4:    eebc1ac1    ....    VCVT.U32.F32 s2,s2
        0x080024c8:    ed801a01    ....    VSTR     s2,[r0,#4]
        0x080024cc:    f8de1000    ....    LDR      r1,[lr,#0]
        0x080024d0:    f3c16106    ...a    UBFX     r1,r1,#24,#7
        0x080024d4:    ee011a10    ....    VMOV     s2,r1
        0x080024d8:    eeb81a41    ..A.    VCVT.F32.U32 s2,s2
        0x080024dc:    ee311a03    1...    VADD.F32 s2,s2,s6
        0x080024e0:    ee800a01    ....    VDIV.F32 s0,s0,s2
        0x080024e4:    eebc0ac0    ....    VCVT.U32.F32 s0,s0
        0x080024e8:    ee101a10    ....    VMOV     r1,s0
        0x080024ec:    6081        .`      STR      r1,[r0,#8]
        0x080024ee:    bd80        ..      POP      {r7,pc}
    $d.52
        0x080024f0:    4a742400    .$tJ    DCD    1249125376
        0x080024f4:    4bbebc20     ..K    DCD    1270791200
        0x080024f8:    4c742400    .$tL    DCD    1282679808
        0x080024fc:    39000000    ...9    DCD    956301312
    $t.53
    HAL_RCCEx_GetPLL2ClockFreq
        0x08002500:    b580        ..      PUSH     {r7,lr}
        0x08002502:    f2444e38    D.8N    MOV      lr,#0x4438
        0x08002506:    f6c50e02    ....    MOVT     lr,#0x5802
        0x0800250a:    f85e3c10    ^..<    LDR      r3,[lr,#-0x10]
        0x0800250e:    f85e1c10    ^...    LDR      r1,[lr,#-0x10]
        0x08002512:    f3c13c05    ...<    UBFX     r12,r1,#12,#6
        0x08002516:    f85e1c0c    ^...    LDR      r1,[lr,#-0xc]
        0x0800251a:    f1bc0f00    ....    CMP      r12,#0
        0x0800251e:    f8de2004    ...     LDR      r2,[lr,#4]
        0x08002522:    d014        ..      BEQ      0x800254e ; HAL_RCCEx_GetPLL2ClockFreq + 78
        0x08002524:    f3c11100    ....    UBFX     r1,r1,#4,#1
        0x08002528:    f3c202cc    ....    UBFX     r2,r2,#3,#13
        0x0800252c:    4351        QC      MULS     r1,r2,r1
        0x0800252e:    ee001a10    ....    VMOV     s0,r1
        0x08002532:    f0030103    ....    AND      r1,r3,#3
        0x08002536:    2902        .)      CMP      r1,#2
        0x08002538:    eeb80a40    ..@.    VCVT.F32.U32 s0,s0
        0x0800253c:    d00c        ..      BEQ      0x8002558 ; HAL_RCCEx_GetPLL2ClockFreq + 88
        0x0800253e:    b971        q.      CBNZ     r1,0x800255e ; HAL_RCCEx_GetPLL2ClockFreq + 94
        0x08002540:    f85e1c38    ^.8.    LDR      r1,[lr,#-0x38]
        0x08002544:    0689        ..      LSLS     r1,r1,#26
        0x08002546:    d40d        ..      BMI      0x8002564 ; HAL_RCCEx_GetPLL2ClockFreq + 100
        0x08002548:    ed9f1a34    ..4.    VLDR     s2,[pc,#208] ; [0x800261c] = 0x4c742400
        0x0800254c:    e018        ..      B        0x8002580 ; HAL_RCCEx_GetPLL2ClockFreq + 128
        0x0800254e:    2100        .!      MOVS     r1,#0
        0x08002550:    6081        .`      STR      r1,[r0,#8]
        0x08002552:    e9c01100    ....    STRD     r1,r1,[r0,#0]
        0x08002556:    bd80        ..      POP      {r7,pc}
        0x08002558:    ed9f1a2f    ../.    VLDR     s2,[pc,#188] ; [0x8002618] = 0x4bbebc20
        0x0800255c:    e010        ..      B        0x8002580 ; HAL_RCCEx_GetPLL2ClockFreq + 128
        0x0800255e:    ed9f1a2d    ..-.    VLDR     s2,[pc,#180] ; [0x8002614] = 0x4a742400
        0x08002562:    e00d        ..      B        0x8002580 ; HAL_RCCEx_GetPLL2ClockFreq + 128
        0x08002564:    f85e1c38    ^.8.    LDR      r1,[lr,#-0x38]
        0x08002568:    f2490200    I...    MOVW     r2,#0x9000
        0x0800256c:    f2c032d0    ...2    MOVT     r2,#0x3d0
        0x08002570:    f3c101c1    ....    UBFX     r1,r1,#3,#2
        0x08002574:    fa22f101    "...    LSR      r1,r2,r1
        0x08002578:    ee011a10    ....    VMOV     s2,r1
        0x0800257c:    eeb81a41    ..A.    VCVT.F32.U32 s2,s2
        0x08002580:    f8de1000    ....    LDR      r1,[lr,#0]
        0x08002584:    ed9f3a26    ..&:    VLDR     s6,[pc,#152] ; [0x8002620] = 0x39000000
        0x08002588:    f36f215f    o._!    BFC      r1,#9,#23
        0x0800258c:    ee021a10    ....    VMOV     s4,r1
        0x08002590:    f8de1000    ....    LDR      r1,[lr,#0]
        0x08002594:    f3c12146    ..F!    UBFX     r1,r1,#9,#7
        0x08002598:    eeb82a42    ..B*    VCVT.F32.U32 s4,s4
        0x0800259c:    ee002a03    ...*    VMLA.F32 s4,s0,s6
        0x080025a0:    ee00ca10    ....    VMOV     s0,r12
        0x080025a4:    eeb73a00    ...:    VMOV.F32 s6,#1.00000000
        0x080025a8:    eeb80a40    ..@.    VCVT.F32.U32 s0,s0
        0x080025ac:    ee810a00    ....    VDIV.F32 s0,s2,s0
        0x080025b0:    ee321a03    2...    VADD.F32 s2,s4,s6
        0x080025b4:    ee021a10    ....    VMOV     s4,r1
        0x080025b8:    eeb82a42    ..B*    VCVT.F32.U32 s4,s4
        0x080025bc:    ee200a01     ...    VMUL.F32 s0,s0,s2
        0x080025c0:    ee321a03    2...    VADD.F32 s2,s4,s6
        0x080025c4:    ee801a01    ....    VDIV.F32 s2,s0,s2
        0x080025c8:    eebc1ac1    ....    VCVT.U32.F32 s2,s2
        0x080025cc:    ed801a00    ....    VSTR     s2,[r0,#0]
        0x080025d0:    f8de1000    ....    LDR      r1,[lr,#0]
        0x080025d4:    f3c14106    ...A    UBFX     r1,r1,#16,#7
        0x080025d8:    ee011a10    ....    VMOV     s2,r1
        0x080025dc:    eeb81a41    ..A.    VCVT.F32.U32 s2,s2
        0x080025e0:    ee311a03    1...    VADD.F32 s2,s2,s6
        0x080025e4:    ee801a01    ....    VDIV.F32 s2,s0,s2
        0x080025e8:    eebc1ac1    ....    VCVT.U32.F32 s2,s2
        0x080025ec:    ed801a01    ....    VSTR     s2,[r0,#4]
        0x080025f0:    f8de1000    ....    LDR      r1,[lr,#0]
        0x080025f4:    f3c16106    ...a    UBFX     r1,r1,#24,#7
        0x080025f8:    ee011a10    ....    VMOV     s2,r1
        0x080025fc:    eeb81a41    ..A.    VCVT.F32.U32 s2,s2
        0x08002600:    ee311a03    1...    VADD.F32 s2,s2,s6
        0x08002604:    ee800a01    ....    VDIV.F32 s0,s0,s2
        0x08002608:    eebc0ac0    ....    VCVT.U32.F32 s0,s0
        0x0800260c:    ee101a10    ....    VMOV     r1,s0
        0x08002610:    6081        .`      STR      r1,[r0,#8]
        0x08002612:    bd80        ..      POP      {r7,pc}
    $d.54
        0x08002614:    4a742400    .$tJ    DCD    1249125376
        0x08002618:    4bbebc20     ..K    DCD    1270791200
        0x0800261c:    4c742400    .$tL    DCD    1282679808
        0x08002620:    39000000    ...9    DCD    956301312
        0x08002624:    00000000    ....    DCD    0
    $t.55
    HAL_RCCEx_GetPLL3ClockFreq
        0x08002628:    b580        ..      PUSH     {r7,lr}
        0x0800262a:    f2444e40    D.@N    MOV      lr,#0x4440
        0x0800262e:    f6c50e02    ....    MOVT     lr,#0x5802
        0x08002632:    f85e3c18    ^..<    LDR      r3,[lr,#-0x18]
        0x08002636:    f85e1c18    ^...    LDR      r1,[lr,#-0x18]
        0x0800263a:    f3c15c05    ...\    UBFX     r12,r1,#20,#6
        0x0800263e:    f85e1c14    ^...    LDR      r1,[lr,#-0x14]
        0x08002642:    f1bc0f00    ....    CMP      r12,#0
        0x08002646:    f8de2004    ...     LDR      r2,[lr,#4]
        0x0800264a:    d014        ..      BEQ      0x8002676 ; HAL_RCCEx_GetPLL3ClockFreq + 78
        0x0800264c:    f3c12100    ...!    UBFX     r1,r1,#8,#1
        0x08002650:    f3c202cc    ....    UBFX     r2,r2,#3,#13
        0x08002654:    4351        QC      MULS     r1,r2,r1
        0x08002656:    ee001a10    ....    VMOV     s0,r1
        0x0800265a:    f0030103    ....    AND      r1,r3,#3
        0x0800265e:    2902        .)      CMP      r1,#2
        0x08002660:    eeb80a40    ..@.    VCVT.F32.U32 s0,s0
        0x08002664:    d00c        ..      BEQ      0x8002680 ; HAL_RCCEx_GetPLL3ClockFreq + 88
        0x08002666:    b971        q.      CBNZ     r1,0x8002686 ; HAL_RCCEx_GetPLL3ClockFreq + 94
        0x08002668:    f85e1c40    ^.@.    LDR      r1,[lr,#-0x40]
        0x0800266c:    0689        ..      LSLS     r1,r1,#26
        0x0800266e:    d40d        ..      BMI      0x800268c ; HAL_RCCEx_GetPLL3ClockFreq + 100
        0x08002670:    ed9f1a34    ..4.    VLDR     s2,[pc,#208] ; [0x8002744] = 0x4c742400
        0x08002674:    e018        ..      B        0x80026a8 ; HAL_RCCEx_GetPLL3ClockFreq + 128
        0x08002676:    2100        .!      MOVS     r1,#0
        0x08002678:    6081        .`      STR      r1,[r0,#8]
        0x0800267a:    e9c01100    ....    STRD     r1,r1,[r0,#0]
        0x0800267e:    bd80        ..      POP      {r7,pc}
        0x08002680:    ed9f1a2f    ../.    VLDR     s2,[pc,#188] ; [0x8002740] = 0x4bbebc20
        0x08002684:    e010        ..      B        0x80026a8 ; HAL_RCCEx_GetPLL3ClockFreq + 128
        0x08002686:    ed9f1a2d    ..-.    VLDR     s2,[pc,#180] ; [0x800273c] = 0x4a742400
        0x0800268a:    e00d        ..      B        0x80026a8 ; HAL_RCCEx_GetPLL3ClockFreq + 128
        0x0800268c:    f85e1c40    ^.@.    LDR      r1,[lr,#-0x40]
        0x08002690:    f2490200    I...    MOVW     r2,#0x9000
        0x08002694:    f2c032d0    ...2    MOVT     r2,#0x3d0
        0x08002698:    f3c101c1    ....    UBFX     r1,r1,#3,#2
        0x0800269c:    fa22f101    "...    LSR      r1,r2,r1
        0x080026a0:    ee011a10    ....    VMOV     s2,r1
        0x080026a4:    eeb81a41    ..A.    VCVT.F32.U32 s2,s2
        0x080026a8:    f8de1000    ....    LDR      r1,[lr,#0]
        0x080026ac:    ed9f3a26    ..&:    VLDR     s6,[pc,#152] ; [0x8002748] = 0x39000000
        0x080026b0:    f36f215f    o._!    BFC      r1,#9,#23
        0x080026b4:    ee021a10    ....    VMOV     s4,r1
        0x080026b8:    f8de1000    ....    LDR      r1,[lr,#0]
        0x080026bc:    f3c12146    ..F!    UBFX     r1,r1,#9,#7
        0x080026c0:    eeb82a42    ..B*    VCVT.F32.U32 s4,s4
        0x080026c4:    ee002a03    ...*    VMLA.F32 s4,s0,s6
        0x080026c8:    ee00ca10    ....    VMOV     s0,r12
        0x080026cc:    eeb73a00    ...:    VMOV.F32 s6,#1.00000000
        0x080026d0:    eeb80a40    ..@.    VCVT.F32.U32 s0,s0
        0x080026d4:    ee810a00    ....    VDIV.F32 s0,s2,s0
        0x080026d8:    ee321a03    2...    VADD.F32 s2,s4,s6
        0x080026dc:    ee021a10    ....    VMOV     s4,r1
        0x080026e0:    eeb82a42    ..B*    VCVT.F32.U32 s4,s4
        0x080026e4:    ee200a01     ...    VMUL.F32 s0,s0,s2
        0x080026e8:    ee321a03    2...    VADD.F32 s2,s4,s6
        0x080026ec:    ee801a01    ....    VDIV.F32 s2,s0,s2
        0x080026f0:    eebc1ac1    ....    VCVT.U32.F32 s2,s2
        0x080026f4:    ed801a00    ....    VSTR     s2,[r0,#0]
        0x080026f8:    f8de1000    ....    LDR      r1,[lr,#0]
        0x080026fc:    f3c14106    ...A    UBFX     r1,r1,#16,#7
        0x08002700:    ee011a10    ....    VMOV     s2,r1
        0x08002704:    eeb81a41    ..A.    VCVT.F32.U32 s2,s2
        0x08002708:    ee311a03    1...    VADD.F32 s2,s2,s6
        0x0800270c:    ee801a01    ....    VDIV.F32 s2,s0,s2
        0x08002710:    eebc1ac1    ....    VCVT.U32.F32 s2,s2
        0x08002714:    ed801a01    ....    VSTR     s2,[r0,#4]
        0x08002718:    f8de1000    ....    LDR      r1,[lr,#0]
        0x0800271c:    f3c16106    ...a    UBFX     r1,r1,#24,#7
        0x08002720:    ee011a10    ....    VMOV     s2,r1
        0x08002724:    eeb81a41    ..A.    VCVT.F32.U32 s2,s2
        0x08002728:    ee311a03    1...    VADD.F32 s2,s2,s6
        0x0800272c:    ee800a01    ....    VDIV.F32 s0,s0,s2
        0x08002730:    eebc0ac0    ....    VCVT.U32.F32 s0,s0
        0x08002734:    ee101a10    ....    VMOV     r1,s0
        0x08002738:    6081        .`      STR      r1,[r0,#8]
        0x0800273a:    bd80        ..      POP      {r7,pc}
    $d.56
        0x0800273c:    4a742400    .$tJ    DCD    1249125376
        0x08002740:    4bbebc20     ..K    DCD    1270791200
        0x08002744:    4c742400    .$tL    DCD    1282679808
        0x08002748:    39000000    ...9    DCD    956301312
        0x0800274c:    00000000    ....    DCD    0
    $t.36
    HAL_RCCEx_GetPeriphCLKFreq
        0x08002750:    b580        ..      PUSH     {r7,lr}
        0x08002752:    b084        ..      SUB      sp,sp,#0x10
        0x08002754:    4602        .F      MOV      r2,r0
        0x08002756:    f64173ff    A..s    MOV      r3,#0x1fff
        0x0800275a:    2000        .       MOVS     r0,#0
        0x0800275c:    1a9b        ..      SUBS     r3,r3,r2
        0x0800275e:    eb700301    p...    SBCS     r3,r0,r1
        0x08002762:    db29        ).      BLT      0x80027b8 ; HAL_RCCEx_GetPeriphCLKFreq + 104
        0x08002764:    f24033ff    @..3    MOV      r3,#0x3ff
        0x08002768:    1a9b        ..      SUBS     r3,r3,r2
        0x0800276a:    eb700301    p...    SBCS     r3,r0,r1
        0x0800276e:    da4f        O.      BGE      0x8002810 ; HAL_RCCEx_GetPeriphCLKFreq + 192
        0x08002770:    f4826380    ...c    EOR      r3,r2,#0x400
        0x08002774:    430b        .C      ORRS     r3,r3,r1
        0x08002776:    f00080ad    ....    BEQ.W    0x80028d4 ; HAL_RCCEx_GetPeriphCLKFreq + 388
        0x0800277a:    f4826300    ...c    EOR      r3,r2,#0x800
        0x0800277e:    430b        .C      ORRS     r3,r3,r1
        0x08002780:    f00080bb    ....    BEQ.W    0x80028fa ; HAL_RCCEx_GetPeriphCLKFreq + 426
        0x08002784:    f4825280    ...R    EOR      r2,r2,#0x1000
        0x08002788:    4311        .C      ORRS     r1,r1,r2
        0x0800278a:    f040817a    @.z.    BNE.W    0x8002a82 ; HAL_RCCEx_GetPeriphCLKFreq + 818
        0x0800278e:    f2444100    D..A    MOVW     r1,#0x4400
        0x08002792:    f6c50102    ....    MOVT     r1,#0x5802
        0x08002796:    6d08        .m      LDR      r0,[r1,#0x50]
        0x08002798:    f3c03202    ...2    UBFX     r2,r0,#12,#3
        0x0800279c:    2a04        .*      CMP      r2,#4
        0x0800279e:    f200815d    ..].    BHI.W    0x8002a5c ; HAL_RCCEx_GetPeriphCLKFreq + 780
        0x080027a2:    f2480000    H...    MOVW     r0,#0x8000
        0x080027a6:    f2c000bb    ....    MOVT     r0,#0xbb
        0x080027aa:    e8dff012    ....    TBH      [pc,r2,LSL #1]
    $d.37
        0x080027ae:    00b9        ..      DCW    185
        0x080027b0:    00e700e0    ....    DCD    15139040
        0x080027b4:    00f0016a    j...    DCD    15729002
    $t.38
        0x080027b8:    f64773ff    G..s    MOV      r3,#0x7fff
        0x080027bc:    1a9b        ..      SUBS     r3,r3,r2
        0x080027be:    eb700301    p...    SBCS     r3,r0,r1
        0x080027c2:    da43        C.      BGE      0x800284c ; HAL_RCCEx_GetPeriphCLKFreq + 252
        0x080027c4:    f4824300    ...C    EOR      r3,r2,#0x8000
        0x080027c8:    430b        .C      ORRS     r3,r3,r1
        0x080027ca:    f00080ad    ....    BEQ.W    0x8002928 ; HAL_RCCEx_GetPeriphCLKFreq + 472
        0x080027ce:    f4823380    ...3    EOR      r3,r2,#0x10000
        0x080027d2:    430b        .C      ORRS     r3,r3,r1
        0x080027d4:    f00080c0    ....    BEQ.W    0x8002958 ; HAL_RCCEx_GetPeriphCLKFreq + 520
        0x080027d8:    f4822200    ..."    EOR      r2,r2,#0x80000
        0x080027dc:    4311        .C      ORRS     r1,r1,r2
        0x080027de:    f0408150    @.P.    BNE.W    0x8002a82 ; HAL_RCCEx_GetPeriphCLKFreq + 818
        0x080027e2:    f2444000    D..@    MOVW     r0,#0x4400
        0x080027e6:    f6c50002    ....    MOVT     r0,#0x5802
        0x080027ea:    6d81        .m      LDR      r1,[r0,#0x58]
        0x080027ec:    f4013140    ..@1    AND      r1,r1,#0x30000
        0x080027f0:    f5b13f00    ...?    CMP      r1,#0x20000
        0x080027f4:    f000811a    ....    BEQ.W    0x8002a2c ; HAL_RCCEx_GetPeriphCLKFreq + 732
        0x080027f8:    f5b13f80    ...?    CMP      r1,#0x10000
        0x080027fc:    f0008122    ..".    BEQ.W    0x8002a44 ; HAL_RCCEx_GetPeriphCLKFreq + 756
        0x08002800:    2900        .)      CMP      r1,#0
        0x08002802:    f040812b    @.+.    BNE.W    0x8002a5c ; HAL_RCCEx_GetPeriphCLKFreq + 780
        0x08002806:    6800        .h      LDR      r0,[r0,#0]
        0x08002808:    0100        ..      LSLS     r0,r0,#4
        0x0800280a:    f1408127    @.'.    BPL.W    0x8002a5c ; HAL_RCCEx_GetPeriphCLKFreq + 780
        0x0800280e:    e0b1        ..      B        0x8002974 ; HAL_RCCEx_GetPeriphCLKFreq + 548
        0x08002810:    f4827380    ...s    EOR      r3,r2,#0x100
        0x08002814:    430b        .C      ORRS     r3,r3,r1
        0x08002816:    d035        5.      BEQ      0x8002884 ; HAL_RCCEx_GetPeriphCLKFreq + 308
        0x08002818:    f4827200    ...r    EOR      r2,r2,#0x200
        0x0800281c:    4311        .C      ORRS     r1,r1,r2
        0x0800281e:    f0408130    @.0.    BNE.W    0x8002a82 ; HAL_RCCEx_GetPeriphCLKFreq + 818
        0x08002822:    f2444100    D..A    MOVW     r1,#0x4400
        0x08002826:    f6c50102    ....    MOVT     r1,#0x5802
        0x0800282a:    6d08        .m      LDR      r0,[r1,#0x50]
        0x0800282c:    f3c01282    ....    UBFX     r2,r0,#6,#3
        0x08002830:    2a04        .*      CMP      r2,#4
        0x08002832:    f2008113    ....    BHI.W    0x8002a5c ; HAL_RCCEx_GetPeriphCLKFreq + 780
        0x08002836:    f2480000    H...    MOVW     r0,#0x8000
        0x0800283a:    f2c000bb    ....    MOVT     r0,#0xbb
        0x0800283e:    e8dff012    ....    TBH      [pc,r2,LSL #1]
    $d.39
        0x08002842:    006f        o.      DCW    111
        0x08002844:    009d0096    ....    DCD    10289302
        0x08002848:    00a60120     ...    DCD    10879264
    $t.40
        0x0800284c:    f4825300    ...S    EOR      r3,r2,#0x2000
        0x08002850:    430b        .C      ORRS     r3,r3,r1
        0x08002852:    d02c        ,.      BEQ      0x80028ae ; HAL_RCCEx_GetPeriphCLKFreq + 350
        0x08002854:    f4824280    ...B    EOR      r2,r2,#0x4000
        0x08002858:    4311        .C      ORRS     r1,r1,r2
        0x0800285a:    f0408112    @...    BNE.W    0x8002a82 ; HAL_RCCEx_GetPeriphCLKFreq + 818
        0x0800285e:    f2444000    D..@    MOVW     r0,#0x4400
        0x08002862:    f6c50002    ....    MOVT     r0,#0x5802
        0x08002866:    6d81        .m      LDR      r1,[r0,#0x58]
        0x08002868:    f3c17102    ...q    UBFX     r1,r1,#28,#3
        0x0800286c:    2905        .)      CMP      r1,#5
        0x0800286e:    f20080f5    ....    BHI.W    0x8002a5c ; HAL_RCCEx_GetPeriphCLKFreq + 780
        0x08002872:    e8dff001    ....    TBB      [pc,r1]
    $d.41
        0x08002876:    ac03        ..      DCW    44035
        0x08002878:    6ac8bab3    ...j    DCD    1791539891
    $t.42
        0x0800287c:    f7fffd98    ....    BL       HAL_RCCEx_GetD3PCLK1Freq ; 0x80023b0
        0x08002880:    b004        ..      ADD      sp,sp,#0x10
        0x08002882:    bd80        ..      POP      {r7,pc}
        0x08002884:    f2444100    D..A    MOVW     r1,#0x4400
        0x08002888:    f6c50102    ....    MOVT     r1,#0x5802
        0x0800288c:    6d08        .m      LDR      r0,[r1,#0x50]
        0x0800288e:    f0000207    ....    AND      r2,r0,#7
        0x08002892:    2a04        .*      CMP      r2,#4
        0x08002894:    f20080e2    ....    BHI.W    0x8002a5c ; HAL_RCCEx_GetPeriphCLKFreq + 780
        0x08002898:    f2480000    H...    MOVW     r0,#0x8000
        0x0800289c:    f2c000bb    ....    MOVT     r0,#0xbb
        0x080028a0:    e8dff012    ....    TBH      [pc,r2,LSL #1]
    $d.43
        0x080028a4:    0065003e    >.e.    DCD    6619198
        0x080028a8:    00ef006c    l...    DCD    15663212
        0x080028ac:    0075        u.      DCW    117
    $t.44
        0x080028ae:    f2444000    D..@    MOVW     r0,#0x4400
        0x080028b2:    f6c50002    ....    MOVT     r0,#0x5802
        0x080028b6:    6d01        .m      LDR      r1,[r0,#0x50]
        0x080028b8:    f3c14102    ...A    UBFX     r1,r1,#16,#3
        0x080028bc:    2905        .)      CMP      r1,#5
        0x080028be:    f20080cd    ....    BHI.W    0x8002a5c ; HAL_RCCEx_GetPeriphCLKFreq + 780
        0x080028c2:    e8dff001    ....    TBB      [pc,r1]
    $d.45
        0x080028c6:    8403        ..      DCW    33795
        0x080028c8:    42a0928b    ...B    DCD    1117819531
    $t.46
        0x080028cc:    f001faec    ....    BL       HAL_RCC_GetPCLK1Freq ; 0x8003ea8
        0x080028d0:    b004        ..      ADD      sp,sp,#0x10
        0x080028d2:    bd80        ..      POP      {r7,pc}
        0x080028d4:    f2444100    D..A    MOVW     r1,#0x4400
        0x080028d8:    f6c50102    ....    MOVT     r1,#0x5802
        0x080028dc:    6d88        .m      LDR      r0,[r1,#0x58]
        0x080028de:    f3c05242    ..BR    UBFX     r2,r0,#21,#3
        0x080028e2:    2a04        .*      CMP      r2,#4
        0x080028e4:    f20080ba    ....    BHI.W    0x8002a5c ; HAL_RCCEx_GetPeriphCLKFreq + 780
        0x080028e8:    f2480000    H...    MOVW     r0,#0x8000
        0x080028ec:    f2c000bb    ....    MOVT     r0,#0xbb
        0x080028f0:    e8dff002    ....    TBB      [pc,r2]
    $d.47
        0x080028f4:    c7443d16    .=D.    DCD    3343138070
        0x080028f8:    004d        M.      DCW    77
    $t.48
        0x080028fa:    f2444100    D..A    MOVW     r1,#0x4400
        0x080028fe:    f6c50102    ....    MOVT     r1,#0x5802
        0x08002902:    6d88        .m      LDR      r0,[r1,#0x58]
        0x08002904:    f3c06202    ...b    UBFX     r2,r0,#24,#3
        0x08002908:    2a04        .*      CMP      r2,#4
        0x0800290a:    f20080a7    ....    BHI.W    0x8002a5c ; HAL_RCCEx_GetPeriphCLKFreq + 780
        0x0800290e:    f2480000    H...    MOVW     r0,#0x8000
        0x08002912:    f2c000bb    ....    MOVT     r0,#0xbb
        0x08002916:    e8dff002    ....    TBB      [pc,r2]
    $d.49
        0x0800291a:    2a03        .*      DCW    10755
        0x0800291c:    003ab431    1.:.    DCD    3847217
    $t.50
        0x08002920:    6808        .h      LDR      r0,[r1,#0]
        0x08002922:    0180        ..      LSLS     r0,r0,#6
        0x08002924:    d47c        |.      BMI      0x8002a20 ; HAL_RCCEx_GetPeriphCLKFreq + 720
        0x08002926:    e099        ..      B        0x8002a5c ; HAL_RCCEx_GetPeriphCLKFreq + 780
        0x08002928:    f2444000    D..@    MOVW     r0,#0x4400
        0x0800292c:    f6c50002    ....    MOVT     r0,#0x5802
        0x08002930:    6d01        .m      LDR      r1,[r0,#0x50]
        0x08002932:    f0015140    ..@Q    AND      r1,r1,#0x30000000
        0x08002936:    f1b15f00    ..._    CMP      r1,#0x20000000
        0x0800293a:    f000808c    ....    BEQ.W    0x8002a56 ; HAL_RCCEx_GetPeriphCLKFreq + 774
        0x0800293e:    f1b15f80    ..._    CMP      r1,#0x10000000
        0x08002942:    d06a        j.      BEQ      0x8002a1a ; HAL_RCCEx_GetPeriphCLKFreq + 714
        0x08002944:    2900        .)      CMP      r1,#0
        0x08002946:    f0408089    @...    BNE.W    0x8002a5c ; HAL_RCCEx_GetPeriphCLKFreq + 780
        0x0800294a:    6800        .h      LDR      r0,[r0,#0]
        0x0800294c:    f6470140    G.@.    MOV      r1,#0x7840
        0x08002950:    0380        ..      LSLS     r0,r0,#14
        0x08002952:    f2c0117d    ..}.    MOVT     r1,#0x17d
        0x08002956:    e05c        \.      B        0x8002a12 ; HAL_RCCEx_GetPeriphCLKFreq + 706
        0x08002958:    f2444000    D..@    MOVW     r0,#0x4400
        0x0800295c:    f6c50002    ....    MOVT     r0,#0x5802
        0x08002960:    6cc1        .l      LDR      r1,[r0,#0x4c]
        0x08002962:    6800        .h      LDR      r0,[r0,#0]
        0x08002964:    03c9        ..      LSLS     r1,r1,#15
        0x08002966:    d42c        ,.      BMI      0x80029c2 ; HAL_RCCEx_GetPeriphCLKFreq + 626
        0x08002968:    0180        ..      LSLS     r0,r0,#6
        0x0800296a:    d577        w.      BPL      0x8002a5c ; HAL_RCCEx_GetPeriphCLKFreq + 780
        0x0800296c:    e058        X.      B        0x8002a20 ; HAL_RCCEx_GetPeriphCLKFreq + 720
        0x0800296e:    6808        .h      LDR      r0,[r1,#0]
        0x08002970:    0100        ..      LSLS     r0,r0,#4
        0x08002972:    d573        s.      BPL      0x8002a5c ; HAL_RCCEx_GetPeriphCLKFreq + 780
        0x08002974:    a801        ..      ADD      r0,sp,#4
        0x08002976:    f7fffdc3    ....    BL       HAL_RCCEx_GetPLL2ClockFreq ; 0x8002500
        0x0800297a:    e005        ..      B        0x8002988 ; HAL_RCCEx_GetPeriphCLKFreq + 568
        0x0800297c:    6808        .h      LDR      r0,[r1,#0]
        0x0800297e:    0080        ..      LSLS     r0,r0,#2
        0x08002980:    d56c        l.      BPL      0x8002a5c ; HAL_RCCEx_GetPeriphCLKFreq + 780
        0x08002982:    a801        ..      ADD      r0,sp,#4
        0x08002984:    f7fffe50    ..P.    BL       HAL_RCCEx_GetPLL3ClockFreq ; 0x8002628
        0x08002988:    9801        ..      LDR      r0,[sp,#4]
        0x0800298a:    b004        ..      ADD      sp,sp,#0x10
        0x0800298c:    bd80        ..      POP      {r7,pc}
        0x0800298e:    6cc8        .l      LDR      r0,[r1,#0x4c]
        0x08002990:    680b        .h      LDR      r3,[r1,#0]
        0x08002992:    f0105240    ..@R    ANDS     r2,r0,#0x30000000
        0x08002996:    6808        .h      LDR      r0,[r1,#0]
        0x08002998:    d102        ..      BNE      0x80029a0 ; HAL_RCCEx_GetPeriphCLKFreq + 592
        0x0800299a:    f0130304    ....    ANDS     r3,r3,#4
        0x0800299e:    d128        (.      BNE      0x80029f2 ; HAL_RCCEx_GetPeriphCLKFreq + 674
        0x080029a0:    f1b25f80    ..._    CMP      r2,#0x10000000
        0x080029a4:    d102        ..      BNE      0x80029ac ; HAL_RCCEx_GetPeriphCLKFreq + 604
        0x080029a6:    f4107080    ...p    ANDS     r0,r0,#0x100
        0x080029aa:    d160        `.      BNE      0x8002a6e ; HAL_RCCEx_GetPeriphCLKFreq + 798
        0x080029ac:    6808        .h      LDR      r0,[r1,#0]
        0x080029ae:    f4103000    ...0    ANDS     r0,r0,#0x20000
        0x080029b2:    bf1c        ..      ITT      NE
        0x080029b4:    f6470040    G.@.    MOVNE    r0,#0x7840
        0x080029b8:    f2c0107d    ..}.    MOVTNE   r0,#0x17d
        0x080029bc:    f1b25f00    ..._    CMP      r2,#0x20000000
        0x080029c0:    e06b        k.      B        0x8002a9a ; HAL_RCCEx_GetPeriphCLKFreq + 842
        0x080029c2:    0100        ..      LSLS     r0,r0,#4
        0x080029c4:    d54a        J.      BPL      0x8002a5c ; HAL_RCCEx_GetPeriphCLKFreq + 780
        0x080029c6:    a801        ..      ADD      r0,sp,#4
        0x080029c8:    f7fffd9a    ....    BL       HAL_RCCEx_GetPLL2ClockFreq ; 0x8002500
        0x080029cc:    e040        @.      B        0x8002a50 ; HAL_RCCEx_GetPeriphCLKFreq + 768
        0x080029ce:    6800        .h      LDR      r0,[r0,#0]
        0x080029d0:    0100        ..      LSLS     r0,r0,#4
        0x080029d2:    d543        C.      BPL      0x8002a5c ; HAL_RCCEx_GetPeriphCLKFreq + 780
        0x080029d4:    a801        ..      ADD      r0,sp,#4
        0x080029d6:    f7fffd93    ....    BL       HAL_RCCEx_GetPLL2ClockFreq ; 0x8002500
        0x080029da:    e024        $.      B        0x8002a26 ; HAL_RCCEx_GetPeriphCLKFreq + 726
        0x080029dc:    6800        .h      LDR      r0,[r0,#0]
        0x080029de:    0080        ..      LSLS     r0,r0,#2
        0x080029e0:    d53c        <.      BPL      0x8002a5c ; HAL_RCCEx_GetPeriphCLKFreq + 780
        0x080029e2:    a801        ..      ADD      r0,sp,#4
        0x080029e4:    f7fffe20    .. .    BL       HAL_RCCEx_GetPLL3ClockFreq ; 0x8002628
        0x080029e8:    e01d        ..      B        0x8002a26 ; HAL_RCCEx_GetPeriphCLKFreq + 726
        0x080029ea:    6801        .h      LDR      r1,[r0,#0]
        0x080029ec:    0749        I.      LSLS     r1,r1,#29
        0x080029ee:    d535        5.      BPL      0x8002a5c ; HAL_RCCEx_GetPeriphCLKFreq + 780
        0x080029f0:    6800        .h      LDR      r0,[r0,#0]
        0x080029f2:    f3c000c1    ....    UBFX     r0,r0,#3,#2
        0x080029f6:    f2490100    I...    MOVW     r1,#0x9000
        0x080029fa:    f2c031d0    ...1    MOVT     r1,#0x3d0
        0x080029fe:    fa21f000    !...    LSR      r0,r1,r0
        0x08002a02:    b004        ..      ADD      sp,sp,#0x10
        0x08002a04:    bd80        ..      POP      {r7,pc}
        0x08002a06:    6800        .h      LDR      r0,[r0,#0]
        0x08002a08:    f6401100    @...    MOVW     r1,#0x900
        0x08002a0c:    05c0        ..      LSLS     r0,r0,#23
        0x08002a0e:    f2c0013d    ..=.    MOVT     r1,#0x3d
        0x08002a12:    ea0170e0    ...p    AND      r0,r1,r0,ASR #31
        0x08002a16:    b004        ..      ADD      sp,sp,#0x10
        0x08002a18:    bd80        ..      POP      {r7,pc}
        0x08002a1a:    6800        .h      LDR      r0,[r0,#0]
        0x08002a1c:    0180        ..      LSLS     r0,r0,#6
        0x08002a1e:    d51d        ..      BPL      0x8002a5c ; HAL_RCCEx_GetPeriphCLKFreq + 780
        0x08002a20:    a801        ..      ADD      r0,sp,#4
        0x08002a22:    f7fffcd9    ....    BL       HAL_RCCEx_GetPLL1ClockFreq ; 0x80023d8
        0x08002a26:    9802        ..      LDR      r0,[sp,#8]
        0x08002a28:    b004        ..      ADD      sp,sp,#0x10
        0x08002a2a:    bd80        ..      POP      {r7,pc}
        0x08002a2c:    6cc1        .l      LDR      r1,[r0,#0x4c]
        0x08002a2e:    6803        .h      LDR      r3,[r0,#0]
        0x08002a30:    f0115140    ..@Q    ANDS     r1,r1,#0x30000000
        0x08002a34:    6802        .h      LDR      r2,[r0,#0]
        0x08002a36:    d114        ..      BNE      0x8002a62 ; HAL_RCCEx_GetPeriphCLKFreq + 786
        0x08002a38:    f0130304    ....    ANDS     r3,r3,#4
        0x08002a3c:    d011        ..      BEQ      0x8002a62 ; HAL_RCCEx_GetPeriphCLKFreq + 786
        0x08002a3e:    f3c200c1    ....    UBFX     r0,r2,#3,#2
        0x08002a42:    e7d8        ..      B        0x80029f6 ; HAL_RCCEx_GetPeriphCLKFreq + 678
        0x08002a44:    6800        .h      LDR      r0,[r0,#0]
        0x08002a46:    0080        ..      LSLS     r0,r0,#2
        0x08002a48:    d508        ..      BPL      0x8002a5c ; HAL_RCCEx_GetPeriphCLKFreq + 780
        0x08002a4a:    a801        ..      ADD      r0,sp,#4
        0x08002a4c:    f7fffdec    ....    BL       HAL_RCCEx_GetPLL3ClockFreq ; 0x8002628
        0x08002a50:    9803        ..      LDR      r0,[sp,#0xc]
        0x08002a52:    b004        ..      ADD      sp,sp,#0x10
        0x08002a54:    bd80        ..      POP      {r7,pc}
        0x08002a56:    6800        .h      LDR      r0,[r0,#0]
        0x08002a58:    0100        ..      LSLS     r0,r0,#4
        0x08002a5a:    d40e        ..      BMI      0x8002a7a ; HAL_RCCEx_GetPeriphCLKFreq + 810
        0x08002a5c:    2000        .       MOVS     r0,#0
        0x08002a5e:    b004        ..      ADD      sp,sp,#0x10
        0x08002a60:    bd80        ..      POP      {r7,pc}
        0x08002a62:    f1b15f80    ..._    CMP      r1,#0x10000000
        0x08002a66:    d10e        ..      BNE      0x8002a86 ; HAL_RCCEx_GetPeriphCLKFreq + 822
        0x08002a68:    f4127280    ...r    ANDS     r2,r2,#0x100
        0x08002a6c:    d00b        ..      BEQ      0x8002a86 ; HAL_RCCEx_GetPeriphCLKFreq + 822
        0x08002a6e:    f6401000    @...    MOVW     r0,#0x900
        0x08002a72:    f2c0003d    ..=.    MOVT     r0,#0x3d
        0x08002a76:    b004        ..      ADD      sp,sp,#0x10
        0x08002a78:    bd80        ..      POP      {r7,pc}
        0x08002a7a:    a801        ..      ADD      r0,sp,#4
        0x08002a7c:    f7fffd40    ..@.    BL       HAL_RCCEx_GetPLL2ClockFreq ; 0x8002500
        0x08002a80:    9802        ..      LDR      r0,[sp,#8]
        0x08002a82:    b004        ..      ADD      sp,sp,#0x10
        0x08002a84:    bd80        ..      POP      {r7,pc}
        0x08002a86:    6800        .h      LDR      r0,[r0,#0]
        0x08002a88:    f4103000    ...0    ANDS     r0,r0,#0x20000
        0x08002a8c:    bf1c        ..      ITT      NE
        0x08002a8e:    f6470040    G.@.    MOVNE    r0,#0x7840
        0x08002a92:    f2c0107d    ..}.    MOVTNE   r0,#0x17d
        0x08002a96:    f1b15f00    ..._    CMP      r1,#0x20000000
        0x08002a9a:    bf18        ..      IT       NE
        0x08002a9c:    2000        .       MOVNE    r0,#0
        0x08002a9e:    b004        ..      ADD      sp,sp,#0x10
        0x08002aa0:    bd80        ..      POP      {r7,pc}
        0x08002aa2:    0000        ..      MOVS     r0,r0
        0x08002aa4:    0000        ..      MOVS     r0,r0
        0x08002aa6:    0000        ..      MOVS     r0,r0
    HAL_RCCEx_PeriphCLKConfig
        0x08002aa8:    e92d43f0    -..C    PUSH     {r4-r9,lr}
        0x08002aac:    b081        ..      SUB      sp,sp,#4
        0x08002aae:    4604        .F      MOV      r4,r0
        0x08002ab0:    78c0        .x      LDRB     r0,[r0,#3]
        0x08002ab2:    f244492c    D.,I    MOV      r9,#0x442c
        0x08002ab6:    0700        ..      LSLS     r0,r0,#28
        0x08002ab8:    f6c50902    ....    MOVT     r9,#0x5802
        0x08002abc:    d401        ..      BMI      0x8002ac2 ; HAL_RCCEx_PeriphCLKConfig + 26
        0x08002abe:    2500        .%      MOVS     r5,#0
        0x08002ac0:    e02e        ..      B        0x8002b20 ; HAL_RCCEx_PeriphCLKConfig + 120
        0x08002ac2:    6ea0        .n      LDR      r0,[r4,#0x68]
        0x08002ac4:    ea4f5030    O.0P    ROR      r0,r0,#20
        0x08002ac8:    2803        .(      CMP      r0,#3
        0x08002aca:    d80d        ..      BHI      0x8002ae8 ; HAL_RCCEx_PeriphCLKConfig + 64
        0x08002acc:    2500        .%      MOVS     r5,#0
        0x08002ace:    e8dff000    ....    TBB      [pc,r0]
    $d.1
        0x08002ad2:    0e02        ..      DCW    3586
        0x08002ad4:    1417        ..      DCW    5143
    $t.2
        0x08002ad6:    f8d90000    ....    LDR      r0,[r9,#0]
        0x08002ada:    2500        .%      MOVS     r5,#0
        0x08002adc:    f4403000    @..0    ORR      r0,r0,#0x20000
        0x08002ae0:    f8c90000    ....    STR      r0,[r9,#0]
        0x08002ae4:    b955        U.      CBNZ     r5,0x8002afc ; HAL_RCCEx_PeriphCLKConfig + 84
        0x08002ae6:    e013        ..      B        0x8002b10 ; HAL_RCCEx_PeriphCLKConfig + 104
        0x08002ae8:    2501        .%      MOVS     r5,#1
        0x08002aea:    b93d        =.      CBNZ     r5,0x8002afc ; HAL_RCCEx_PeriphCLKConfig + 84
        0x08002aec:    e010        ..      B        0x8002b10 ; HAL_RCCEx_PeriphCLKConfig + 104
        0x08002aee:    f1040008    ....    ADD      r0,r4,#8
        0x08002af2:    2102        .!      MOVS     r1,#2
        0x08002af4:    f003f954    ..T.    BL       RCCEx_PLL2_Config ; 0x8005da0
        0x08002af8:    4605        .F      MOV      r5,r0
        0x08002afa:    b14d        M.      CBZ      r5,0x8002b10 ; HAL_RCCEx_PeriphCLKConfig + 104
        0x08002afc:    46a8        .F      MOV      r8,r5
        0x08002afe:    e011        ..      B        0x8002b24 ; HAL_RCCEx_PeriphCLKConfig + 124
        0x08002b00:    f1040028    ..(.    ADD      r0,r4,#0x28
        0x08002b04:    2102        .!      MOVS     r1,#2
        0x08002b06:    f003fa3f    ..?.    BL       RCCEx_PLL3_Config ; 0x8005f88
        0x08002b0a:    4605        .F      MOV      r5,r0
        0x08002b0c:    2d00        .-      CMP      r5,#0
        0x08002b0e:    d1f5        ..      BNE      0x8002afc ; HAL_RCCEx_PeriphCLKConfig + 84
        0x08002b10:    f8d90024    ..$.    LDR      r0,[r9,#0x24]
        0x08002b14:    6ea1        .n      LDR      r1,[r4,#0x68]
        0x08002b16:    f4201040     .@.    BIC      r0,r0,#0x300000
        0x08002b1a:    4308        .C      ORRS     r0,r0,r1
        0x08002b1c:    f8c90024    ..$.    STR      r0,[r9,#0x24]
        0x08002b20:    f04f0800    O...    MOV      r8,#0
        0x08002b24:    7860        `x      LDRB     r0,[r4,#1]
        0x08002b26:    07c0        ..      LSLS     r0,r0,#31
        0x08002b28:    d030        0.      BEQ      0x8002b8c ; HAL_RCCEx_PeriphCLKConfig + 228
        0x08002b2a:    6da0        .m      LDR      r0,[r4,#0x58]
        0x08002b2c:    2804        .(      CMP      r0,#4
        0x08002b2e:    d807        ..      BHI      0x8002b40 ; HAL_RCCEx_PeriphCLKConfig + 152
        0x08002b30:    e8dff000    ....    TBB      [pc,r0]
    $d.3
        0x08002b34:    031c130a    ....    DCD    52171530
        0x08002b38:    0003        ..      DCW    3
    $t.4
        0x08002b3a:    b1fd        ..      CBZ      r5,0x8002b7c ; HAL_RCCEx_PeriphCLKConfig + 212
        0x08002b3c:    46a8        .F      MOV      r8,r5
        0x08002b3e:    e025        %.      B        0x8002b8c ; HAL_RCCEx_PeriphCLKConfig + 228
        0x08002b40:    2501        .%      MOVS     r5,#1
        0x08002b42:    2d00        .-      CMP      r5,#0
        0x08002b44:    d1fa        ..      BNE      0x8002b3c ; HAL_RCCEx_PeriphCLKConfig + 148
        0x08002b46:    e019        ..      B        0x8002b7c ; HAL_RCCEx_PeriphCLKConfig + 212
        0x08002b48:    f8d90000    ....    LDR      r0,[r9,#0]
        0x08002b4c:    f4403000    @..0    ORR      r0,r0,#0x20000
        0x08002b50:    f8c90000    ....    STR      r0,[r9,#0]
        0x08002b54:    2d00        .-      CMP      r5,#0
        0x08002b56:    d1f1        ..      BNE      0x8002b3c ; HAL_RCCEx_PeriphCLKConfig + 148
        0x08002b58:    e010        ..      B        0x8002b7c ; HAL_RCCEx_PeriphCLKConfig + 212
        0x08002b5a:    f1040008    ....    ADD      r0,r4,#8
        0x08002b5e:    2100        .!      MOVS     r1,#0
        0x08002b60:    f003f91e    ....    BL       RCCEx_PLL2_Config ; 0x8005da0
        0x08002b64:    4605        .F      MOV      r5,r0
        0x08002b66:    2d00        .-      CMP      r5,#0
        0x08002b68:    d1e8        ..      BNE      0x8002b3c ; HAL_RCCEx_PeriphCLKConfig + 148
        0x08002b6a:    e007        ..      B        0x8002b7c ; HAL_RCCEx_PeriphCLKConfig + 212
        0x08002b6c:    f1040028    ..(.    ADD      r0,r4,#0x28
        0x08002b70:    2100        .!      MOVS     r1,#0
        0x08002b72:    f003fa09    ....    BL       RCCEx_PLL3_Config ; 0x8005f88
        0x08002b76:    4605        .F      MOV      r5,r0
        0x08002b78:    2d00        .-      CMP      r5,#0
        0x08002b7a:    d1df        ..      BNE      0x8002b3c ; HAL_RCCEx_PeriphCLKConfig + 148
        0x08002b7c:    f8d90024    ..$.    LDR      r0,[r9,#0x24]
        0x08002b80:    6da1        .m      LDR      r1,[r4,#0x58]
        0x08002b82:    f0200007     ...    BIC      r0,r0,#7
        0x08002b86:    4308        .C      ORRS     r0,r0,r1
        0x08002b88:    f8c90024    ..$.    STR      r0,[r9,#0x24]
        0x08002b8c:    7860        `x      LDRB     r0,[r4,#1]
        0x08002b8e:    0780        ..      LSLS     r0,r0,#30
        0x08002b90:    d532        2.      BPL      0x8002bf8 ; HAL_RCCEx_PeriphCLKConfig + 336
        0x08002b92:    6de0        .m      LDR      r0,[r4,#0x5c]
        0x08002b94:    ea4f10b0    O...    ROR      r0,r0,#6
        0x08002b98:    2804        .(      CMP      r0,#4
        0x08002b9a:    d807        ..      BHI      0x8002bac ; HAL_RCCEx_PeriphCLKConfig + 260
        0x08002b9c:    e8dff000    ....    TBB      [pc,r0]
    $d.5
        0x08002ba0:    031c130a    ....    DCD    52171530
        0x08002ba4:    0003        ..      DCW    3
    $t.6
        0x08002ba6:    b1fd        ..      CBZ      r5,0x8002be8 ; HAL_RCCEx_PeriphCLKConfig + 320
        0x08002ba8:    46a8        .F      MOV      r8,r5
        0x08002baa:    e025        %.      B        0x8002bf8 ; HAL_RCCEx_PeriphCLKConfig + 336
        0x08002bac:    2501        .%      MOVS     r5,#1
        0x08002bae:    2d00        .-      CMP      r5,#0
        0x08002bb0:    d1fa        ..      BNE      0x8002ba8 ; HAL_RCCEx_PeriphCLKConfig + 256
        0x08002bb2:    e019        ..      B        0x8002be8 ; HAL_RCCEx_PeriphCLKConfig + 320
        0x08002bb4:    f8d90000    ....    LDR      r0,[r9,#0]
        0x08002bb8:    f4403000    @..0    ORR      r0,r0,#0x20000
        0x08002bbc:    f8c90000    ....    STR      r0,[r9,#0]
        0x08002bc0:    2d00        .-      CMP      r5,#0
        0x08002bc2:    d1f1        ..      BNE      0x8002ba8 ; HAL_RCCEx_PeriphCLKConfig + 256
        0x08002bc4:    e010        ..      B        0x8002be8 ; HAL_RCCEx_PeriphCLKConfig + 320
        0x08002bc6:    f1040008    ....    ADD      r0,r4,#8
        0x08002bca:    2100        .!      MOVS     r1,#0
        0x08002bcc:    f003f8e8    ....    BL       RCCEx_PLL2_Config ; 0x8005da0
        0x08002bd0:    4605        .F      MOV      r5,r0
        0x08002bd2:    2d00        .-      CMP      r5,#0
        0x08002bd4:    d1e8        ..      BNE      0x8002ba8 ; HAL_RCCEx_PeriphCLKConfig + 256
        0x08002bd6:    e007        ..      B        0x8002be8 ; HAL_RCCEx_PeriphCLKConfig + 320
        0x08002bd8:    f1040028    ..(.    ADD      r0,r4,#0x28
        0x08002bdc:    2100        .!      MOVS     r1,#0
        0x08002bde:    f003f9d3    ....    BL       RCCEx_PLL3_Config ; 0x8005f88
        0x08002be2:    4605        .F      MOV      r5,r0
        0x08002be4:    2d00        .-      CMP      r5,#0
        0x08002be6:    d1df        ..      BNE      0x8002ba8 ; HAL_RCCEx_PeriphCLKConfig + 256
        0x08002be8:    f8d90024    ..$.    LDR      r0,[r9,#0x24]
        0x08002bec:    6de1        .m      LDR      r1,[r4,#0x5c]
        0x08002bee:    f42070e0     ..p    BIC      r0,r0,#0x1c0
        0x08002bf2:    4308        .C      ORRS     r0,r0,r1
        0x08002bf4:    f8c90024    ..$.    STR      r0,[r9,#0x24]
        0x08002bf8:    7860        `x      LDRB     r0,[r4,#1]
        0x08002bfa:    0740        @.      LSLS     r0,r0,#29
        0x08002bfc:    d534        4.      BPL      0x8002c68 ; HAL_RCCEx_PeriphCLKConfig + 448
        0x08002bfe:    f8d400a8    ....    LDR      r0,[r4,#0xa8]
        0x08002c02:    ea4f5070    O.pP    ROR      r0,r0,#21
        0x08002c06:    2804        .(      CMP      r0,#4
        0x08002c08:    d807        ..      BHI      0x8002c1a ; HAL_RCCEx_PeriphCLKConfig + 370
        0x08002c0a:    e8dff000    ....    TBB      [pc,r0]
    $d.7
        0x08002c0e:    130a        ..      DCW    4874
        0x08002c10:    0003031c    ....    DCD    197404
    $t.8
        0x08002c14:    b1fd        ..      CBZ      r5,0x8002c56 ; HAL_RCCEx_PeriphCLKConfig + 430
        0x08002c16:    46a8        .F      MOV      r8,r5
        0x08002c18:    e026        &.      B        0x8002c68 ; HAL_RCCEx_PeriphCLKConfig + 448
        0x08002c1a:    2501        .%      MOVS     r5,#1
        0x08002c1c:    2d00        .-      CMP      r5,#0
        0x08002c1e:    d1fa        ..      BNE      0x8002c16 ; HAL_RCCEx_PeriphCLKConfig + 366
        0x08002c20:    e019        ..      B        0x8002c56 ; HAL_RCCEx_PeriphCLKConfig + 430
        0x08002c22:    f8d90000    ....    LDR      r0,[r9,#0]
        0x08002c26:    f4403000    @..0    ORR      r0,r0,#0x20000
        0x08002c2a:    f8c90000    ....    STR      r0,[r9,#0]
        0x08002c2e:    2d00        .-      CMP      r5,#0
        0x08002c30:    d1f1        ..      BNE      0x8002c16 ; HAL_RCCEx_PeriphCLKConfig + 366
        0x08002c32:    e010        ..      B        0x8002c56 ; HAL_RCCEx_PeriphCLKConfig + 430
        0x08002c34:    f1040008    ....    ADD      r0,r4,#8
        0x08002c38:    2100        .!      MOVS     r1,#0
        0x08002c3a:    f003f8b1    ....    BL       RCCEx_PLL2_Config ; 0x8005da0
        0x08002c3e:    4605        .F      MOV      r5,r0
        0x08002c40:    2d00        .-      CMP      r5,#0
        0x08002c42:    d1e8        ..      BNE      0x8002c16 ; HAL_RCCEx_PeriphCLKConfig + 366
        0x08002c44:    e007        ..      B        0x8002c56 ; HAL_RCCEx_PeriphCLKConfig + 430
        0x08002c46:    f1040028    ..(.    ADD      r0,r4,#0x28
        0x08002c4a:    2100        .!      MOVS     r1,#0
        0x08002c4c:    f003f99c    ....    BL       RCCEx_PLL3_Config ; 0x8005f88
        0x08002c50:    4605        .F      MOV      r5,r0
        0x08002c52:    2d00        .-      CMP      r5,#0
        0x08002c54:    d1df        ..      BNE      0x8002c16 ; HAL_RCCEx_PeriphCLKConfig + 366
        0x08002c56:    f8d9002c    ..,.    LDR      r0,[r9,#0x2c]
        0x08002c5a:    f8d410a8    ....    LDR      r1,[r4,#0xa8]
        0x08002c5e:    f4200060     .`.    BIC      r0,r0,#0xe00000
        0x08002c62:    4308        .C      ORRS     r0,r0,r1
        0x08002c64:    f8c9002c    ..,.    STR      r0,[r9,#0x2c]
        0x08002c68:    7860        `x      LDRB     r0,[r4,#1]
        0x08002c6a:    0700        ..      LSLS     r0,r0,#28
        0x08002c6c:    d534        4.      BPL      0x8002cd8 ; HAL_RCCEx_PeriphCLKConfig + 560
        0x08002c6e:    f8d400ac    ....    LDR      r0,[r4,#0xac]
        0x08002c72:    ea4f6030    O.0`    ROR      r0,r0,#24
        0x08002c76:    2804        .(      CMP      r0,#4
        0x08002c78:    d807        ..      BHI      0x8002c8a ; HAL_RCCEx_PeriphCLKConfig + 482
        0x08002c7a:    e8dff000    ....    TBB      [pc,r0]
    $d.9
        0x08002c7e:    130a        ..      DCW    4874
        0x08002c80:    0003031c    ....    DCD    197404
    $t.10
        0x08002c84:    b1fd        ..      CBZ      r5,0x8002cc6 ; HAL_RCCEx_PeriphCLKConfig + 542
        0x08002c86:    46a8        .F      MOV      r8,r5
        0x08002c88:    e026        &.      B        0x8002cd8 ; HAL_RCCEx_PeriphCLKConfig + 560
        0x08002c8a:    2501        .%      MOVS     r5,#1
        0x08002c8c:    2d00        .-      CMP      r5,#0
        0x08002c8e:    d1fa        ..      BNE      0x8002c86 ; HAL_RCCEx_PeriphCLKConfig + 478
        0x08002c90:    e019        ..      B        0x8002cc6 ; HAL_RCCEx_PeriphCLKConfig + 542
        0x08002c92:    f8d90000    ....    LDR      r0,[r9,#0]
        0x08002c96:    f4403000    @..0    ORR      r0,r0,#0x20000
        0x08002c9a:    f8c90000    ....    STR      r0,[r9,#0]
        0x08002c9e:    2d00        .-      CMP      r5,#0
        0x08002ca0:    d1f1        ..      BNE      0x8002c86 ; HAL_RCCEx_PeriphCLKConfig + 478
        0x08002ca2:    e010        ..      B        0x8002cc6 ; HAL_RCCEx_PeriphCLKConfig + 542
        0x08002ca4:    f1040008    ....    ADD      r0,r4,#8
        0x08002ca8:    2100        .!      MOVS     r1,#0
        0x08002caa:    f003f879    ..y.    BL       RCCEx_PLL2_Config ; 0x8005da0
        0x08002cae:    4605        .F      MOV      r5,r0
        0x08002cb0:    2d00        .-      CMP      r5,#0
        0x08002cb2:    d1e8        ..      BNE      0x8002c86 ; HAL_RCCEx_PeriphCLKConfig + 478
        0x08002cb4:    e007        ..      B        0x8002cc6 ; HAL_RCCEx_PeriphCLKConfig + 542
        0x08002cb6:    f1040028    ..(.    ADD      r0,r4,#0x28
        0x08002cba:    2100        .!      MOVS     r1,#0
        0x08002cbc:    f003f964    ..d.    BL       RCCEx_PLL3_Config ; 0x8005f88
        0x08002cc0:    4605        .F      MOV      r5,r0
        0x08002cc2:    2d00        .-      CMP      r5,#0
        0x08002cc4:    d1df        ..      BNE      0x8002c86 ; HAL_RCCEx_PeriphCLKConfig + 478
        0x08002cc6:    f8d9002c    ..,.    LDR      r0,[r9,#0x2c]
        0x08002cca:    f8d410ac    ....    LDR      r1,[r4,#0xac]
        0x08002cce:    f02060e0     ..`    BIC      r0,r0,#0x7000000
        0x08002cd2:    4308        .C      ORRS     r0,r0,r1
        0x08002cd4:    f8c9002c    ..,.    STR      r0,[r9,#0x2c]
        0x08002cd8:    78e0        .x      LDRB     r0,[r4,#3]
        0x08002cda:    0780        ..      LSLS     r0,r0,#30
        0x08002cdc:    d528        (.      BPL      0x8002d30 ; HAL_RCCEx_PeriphCLKConfig + 648
        0x08002cde:    6ce0        .l      LDR      r0,[r4,#0x4c]
        0x08002ce0:    ea4f1030    O.0.    ROR      r0,r0,#4
        0x08002ce4:    2803        .(      CMP      r0,#3
        0x08002ce6:    d806        ..      BHI      0x8002cf6 ; HAL_RCCEx_PeriphCLKConfig + 590
        0x08002ce8:    e8dff000    ....    TBB      [pc,r0]
    $d.11
        0x08002cec:    02120902    ....    DCD    34736386
    $t.12
        0x08002cf0:    b1b5        ..      CBZ      r5,0x8002d20 ; HAL_RCCEx_PeriphCLKConfig + 632
        0x08002cf2:    46a8        .F      MOV      r8,r5
        0x08002cf4:    e01c        ..      B        0x8002d30 ; HAL_RCCEx_PeriphCLKConfig + 648
        0x08002cf6:    2501        .%      MOVS     r5,#1
        0x08002cf8:    2d00        .-      CMP      r5,#0
        0x08002cfa:    d1fa        ..      BNE      0x8002cf2 ; HAL_RCCEx_PeriphCLKConfig + 586
        0x08002cfc:    e010        ..      B        0x8002d20 ; HAL_RCCEx_PeriphCLKConfig + 632
        0x08002cfe:    f8d90000    ....    LDR      r0,[r9,#0]
        0x08002d02:    f4403000    @..0    ORR      r0,r0,#0x20000
        0x08002d06:    f8c90000    ....    STR      r0,[r9,#0]
        0x08002d0a:    2d00        .-      CMP      r5,#0
        0x08002d0c:    d1f1        ..      BNE      0x8002cf2 ; HAL_RCCEx_PeriphCLKConfig + 586
        0x08002d0e:    e007        ..      B        0x8002d20 ; HAL_RCCEx_PeriphCLKConfig + 632
        0x08002d10:    f1040008    ....    ADD      r0,r4,#8
        0x08002d14:    2102        .!      MOVS     r1,#2
        0x08002d16:    f003f843    ..C.    BL       RCCEx_PLL2_Config ; 0x8005da0
        0x08002d1a:    4605        .F      MOV      r5,r0
        0x08002d1c:    2d00        .-      CMP      r5,#0
        0x08002d1e:    d1e8        ..      BNE      0x8002cf2 ; HAL_RCCEx_PeriphCLKConfig + 586
        0x08002d20:    f8d90020    .. .    LDR      r0,[r9,#0x20]
        0x08002d24:    6ce1        .l      LDR      r1,[r4,#0x4c]
        0x08002d26:    f0200030     .0.    BIC      r0,r0,#0x30
        0x08002d2a:    4308        .C      ORRS     r0,r0,r1
        0x08002d2c:    f8c90020    .. .    STR      r0,[r9,#0x20]
        0x08002d30:    7860        `x      LDRB     r0,[r4,#1]
        0x08002d32:    06c0        ..      LSLS     r0,r0,#27
        0x08002d34:    d532        2.      BPL      0x8002d9c ; HAL_RCCEx_PeriphCLKConfig + 756
        0x08002d36:    6e20         n      LDR      r0,[r4,#0x60]
        0x08002d38:    ea4f3030    O.00    ROR      r0,r0,#12
        0x08002d3c:    2804        .(      CMP      r0,#4
        0x08002d3e:    d807        ..      BHI      0x8002d50 ; HAL_RCCEx_PeriphCLKConfig + 680
        0x08002d40:    e8dff000    ....    TBB      [pc,r0]
    $d.13
        0x08002d44:    031c130a    ....    DCD    52171530
        0x08002d48:    0003        ..      DCW    3
    $t.14
        0x08002d4a:    b1fd        ..      CBZ      r5,0x8002d8c ; HAL_RCCEx_PeriphCLKConfig + 740
        0x08002d4c:    46a8        .F      MOV      r8,r5
        0x08002d4e:    e025        %.      B        0x8002d9c ; HAL_RCCEx_PeriphCLKConfig + 756
        0x08002d50:    2501        .%      MOVS     r5,#1
        0x08002d52:    2d00        .-      CMP      r5,#0
        0x08002d54:    d1fa        ..      BNE      0x8002d4c ; HAL_RCCEx_PeriphCLKConfig + 676
        0x08002d56:    e019        ..      B        0x8002d8c ; HAL_RCCEx_PeriphCLKConfig + 740
        0x08002d58:    f8d90000    ....    LDR      r0,[r9,#0]
        0x08002d5c:    f4403000    @..0    ORR      r0,r0,#0x20000
        0x08002d60:    f8c90000    ....    STR      r0,[r9,#0]
        0x08002d64:    2d00        .-      CMP      r5,#0
        0x08002d66:    d1f1        ..      BNE      0x8002d4c ; HAL_RCCEx_PeriphCLKConfig + 676
        0x08002d68:    e010        ..      B        0x8002d8c ; HAL_RCCEx_PeriphCLKConfig + 740
        0x08002d6a:    f1040008    ....    ADD      r0,r4,#8
        0x08002d6e:    2100        .!      MOVS     r1,#0
        0x08002d70:    f003f816    ....    BL       RCCEx_PLL2_Config ; 0x8005da0
        0x08002d74:    4605        .F      MOV      r5,r0
        0x08002d76:    2d00        .-      CMP      r5,#0
        0x08002d78:    d1e8        ..      BNE      0x8002d4c ; HAL_RCCEx_PeriphCLKConfig + 676
        0x08002d7a:    e007        ..      B        0x8002d8c ; HAL_RCCEx_PeriphCLKConfig + 740
        0x08002d7c:    f1040028    ..(.    ADD      r0,r4,#0x28
        0x08002d80:    2100        .!      MOVS     r1,#0
        0x08002d82:    f003f901    ....    BL       RCCEx_PLL3_Config ; 0x8005f88
        0x08002d86:    4605        .F      MOV      r5,r0
        0x08002d88:    2d00        .-      CMP      r5,#0
        0x08002d8a:    d1df        ..      BNE      0x8002d4c ; HAL_RCCEx_PeriphCLKConfig + 676
        0x08002d8c:    f8d90024    ..$.    LDR      r0,[r9,#0x24]
        0x08002d90:    6e21        !n      LDR      r1,[r4,#0x60]
        0x08002d92:    f42040e0     ..@    BIC      r0,r0,#0x7000
        0x08002d96:    4308        .C      ORRS     r0,r0,r1
        0x08002d98:    f8c90024    ..$.    STR      r0,[r9,#0x24]
        0x08002d9c:    7860        `x      LDRB     r0,[r4,#1]
        0x08002d9e:    0680        ..      LSLS     r0,r0,#26
        0x08002da0:    d526        &.      BPL      0x8002df0 ; HAL_RCCEx_PeriphCLKConfig + 840
        0x08002da2:    6e60        `n      LDR      r0,[r4,#0x64]
        0x08002da4:    ea4f4030    O.0@    ROR      r0,r0,#16
        0x08002da8:    2805        .(      CMP      r0,#5
        0x08002daa:    d807        ..      BHI      0x8002dbc ; HAL_RCCEx_PeriphCLKConfig + 788
        0x08002dac:    e8dff000    ....    TBB      [pc,r0]
    $d.15
        0x08002db0:    03100a03    ....    DCD    51382787
        0x08002db4:    0303        ..      DCW    771
    $t.16
        0x08002db6:    b19d        ..      CBZ      r5,0x8002de0 ; HAL_RCCEx_PeriphCLKConfig + 824
        0x08002db8:    46a8        .F      MOV      r8,r5
        0x08002dba:    e019        ..      B        0x8002df0 ; HAL_RCCEx_PeriphCLKConfig + 840
        0x08002dbc:    2501        .%      MOVS     r5,#1
        0x08002dbe:    2d00        .-      CMP      r5,#0
        0x08002dc0:    d1fa        ..      BNE      0x8002db8 ; HAL_RCCEx_PeriphCLKConfig + 784
        0x08002dc2:    e00d        ..      B        0x8002de0 ; HAL_RCCEx_PeriphCLKConfig + 824
        0x08002dc4:    f1040008    ....    ADD      r0,r4,#8
        0x08002dc8:    2101        .!      MOVS     r1,#1
        0x08002dca:    f002ffe9    ....    BL       RCCEx_PLL2_Config ; 0x8005da0
        0x08002dce:    e004        ..      B        0x8002dda ; HAL_RCCEx_PeriphCLKConfig + 818
        0x08002dd0:    f1040028    ..(.    ADD      r0,r4,#0x28
        0x08002dd4:    2101        .!      MOVS     r1,#1
        0x08002dd6:    f003f8d7    ....    BL       RCCEx_PLL3_Config ; 0x8005f88
        0x08002dda:    4605        .F      MOV      r5,r0
        0x08002ddc:    2d00        .-      CMP      r5,#0
        0x08002dde:    d1eb        ..      BNE      0x8002db8 ; HAL_RCCEx_PeriphCLKConfig + 784
        0x08002de0:    f8d90024    ..$.    LDR      r0,[r9,#0x24]
        0x08002de4:    6e61        an      LDR      r1,[r4,#0x64]
        0x08002de6:    f42020e0     ..     BIC      r0,r0,#0x70000
        0x08002dea:    4308        .C      ORRS     r0,r0,r1
        0x08002dec:    f8c90024    ..$.    STR      r0,[r9,#0x24]
        0x08002df0:    7860        `x      LDRB     r0,[r4,#1]
        0x08002df2:    0640        @.      LSLS     r0,r0,#25
        0x08002df4:    d528        (.      BPL      0x8002e48 ; HAL_RCCEx_PeriphCLKConfig + 928
        0x08002df6:    f8d400b0    ....    LDR      r0,[r4,#0xb0]
        0x08002dfa:    ea4f7030    O.0p    ROR      r0,r0,#28
        0x08002dfe:    2805        .(      CMP      r0,#5
        0x08002e00:    d807        ..      BHI      0x8002e12 ; HAL_RCCEx_PeriphCLKConfig + 874
        0x08002e02:    e8dff000    ....    TBB      [pc,r0]
    $d.17
        0x08002e06:    0a03        ..      DCW    2563
        0x08002e08:    03030310    ....    DCD    50529040
    $t.18
        0x08002e0c:    b19d        ..      CBZ      r5,0x8002e36 ; HAL_RCCEx_PeriphCLKConfig + 910
        0x08002e0e:    46a8        .F      MOV      r8,r5
        0x08002e10:    e01a        ..      B        0x8002e48 ; HAL_RCCEx_PeriphCLKConfig + 928
        0x08002e12:    2501        .%      MOVS     r5,#1
        0x08002e14:    2d00        .-      CMP      r5,#0
        0x08002e16:    d1fa        ..      BNE      0x8002e0e ; HAL_RCCEx_PeriphCLKConfig + 870
        0x08002e18:    e00d        ..      B        0x8002e36 ; HAL_RCCEx_PeriphCLKConfig + 910
        0x08002e1a:    f1040008    ....    ADD      r0,r4,#8
        0x08002e1e:    2101        .!      MOVS     r1,#1
        0x08002e20:    f002ffbe    ....    BL       RCCEx_PLL2_Config ; 0x8005da0
        0x08002e24:    e004        ..      B        0x8002e30 ; HAL_RCCEx_PeriphCLKConfig + 904
        0x08002e26:    f1040028    ..(.    ADD      r0,r4,#0x28
        0x08002e2a:    2101        .!      MOVS     r1,#1
        0x08002e2c:    f003f8ac    ....    BL       RCCEx_PLL3_Config ; 0x8005f88
        0x08002e30:    4605        .F      MOV      r5,r0
        0x08002e32:    2d00        .-      CMP      r5,#0
        0x08002e34:    d1eb        ..      BNE      0x8002e0e ; HAL_RCCEx_PeriphCLKConfig + 870
        0x08002e36:    f8d9002c    ..,.    LDR      r0,[r9,#0x2c]
        0x08002e3a:    f8d410b0    ....    LDR      r1,[r4,#0xb0]
        0x08002e3e:    f02040e0     ..@    BIC      r0,r0,#0x70000000
        0x08002e42:    4308        .C      ORRS     r0,r0,r1
        0x08002e44:    f8c9002c    ..,.    STR      r0,[r9,#0x2c]
        0x08002e48:    7860        `x      LDRB     r0,[r4,#1]
        0x08002e4a:    0600        ..      LSLS     r0,r0,#24
        0x08002e4c:    d520         .      BPL      0x8002e90 ; HAL_RCCEx_PeriphCLKConfig + 1000
        0x08002e4e:    6f20         o      LDR      r0,[r4,#0x70]
        0x08002e50:    b1d8        ..      CBZ      r0,0x8002e8a ; HAL_RCCEx_PeriphCLKConfig + 994
        0x08002e52:    f1b05f00    ..._    CMP      r0,#0x20000000
        0x08002e56:    d012        ..      BEQ      0x8002e7e ; HAL_RCCEx_PeriphCLKConfig + 982
        0x08002e58:    f1b05f80    ..._    CMP      r0,#0x10000000
        0x08002e5c:    d125        %.      BNE      0x8002eaa ; HAL_RCCEx_PeriphCLKConfig + 1026
        0x08002e5e:    f8d90000    ....    LDR      r0,[r9,#0]
        0x08002e62:    f4403000    @..0    ORR      r0,r0,#0x20000
        0x08002e66:    f8c90000    ....    STR      r0,[r9,#0]
        0x08002e6a:    b985        ..      CBNZ     r5,0x8002e8e ; HAL_RCCEx_PeriphCLKConfig + 998
        0x08002e6c:    f8d90024    ..$.    LDR      r0,[r9,#0x24]
        0x08002e70:    6f21        !o      LDR      r1,[r4,#0x70]
        0x08002e72:    f0205040     .@P    BIC      r0,r0,#0x30000000
        0x08002e76:    4308        .C      ORRS     r0,r0,r1
        0x08002e78:    f8c90024    ..$.    STR      r0,[r9,#0x24]
        0x08002e7c:    e008        ..      B        0x8002e90 ; HAL_RCCEx_PeriphCLKConfig + 1000
        0x08002e7e:    f1040008    ....    ADD      r0,r4,#8
        0x08002e82:    2101        .!      MOVS     r1,#1
        0x08002e84:    f002ff8c    ....    BL       RCCEx_PLL2_Config ; 0x8005da0
        0x08002e88:    4605        .F      MOV      r5,r0
        0x08002e8a:    2d00        .-      CMP      r5,#0
        0x08002e8c:    d0ee        ..      BEQ      0x8002e6c ; HAL_RCCEx_PeriphCLKConfig + 964
        0x08002e8e:    46a8        .F      MOV      r8,r5
        0x08002e90:    78e0        .x      LDRB     r0,[r4,#3]
        0x08002e92:    07c0        ..      LSLS     r0,r0,#31
        0x08002e94:    d02a        *.      BEQ      0x8002eec ; HAL_RCCEx_PeriphCLKConfig + 1092
        0x08002e96:    6ca0        .l      LDR      r0,[r4,#0x48]
        0x08002e98:    2803        .(      CMP      r0,#3
        0x08002e9a:    d80a        ..      BHI      0x8002eb2 ; HAL_RCCEx_PeriphCLKConfig + 1034
        0x08002e9c:    e8dff000    ....    TBB      [pc,r0]
    $d.19
        0x08002ea0:    02160d02    ....    DCD    34999554
    $t.20
        0x08002ea4:    b1d5        ..      CBZ      r5,0x8002edc ; HAL_RCCEx_PeriphCLKConfig + 1076
        0x08002ea6:    46a8        .F      MOV      r8,r5
        0x08002ea8:    e020         .      B        0x8002eec ; HAL_RCCEx_PeriphCLKConfig + 1092
        0x08002eaa:    2501        .%      MOVS     r5,#1
        0x08002eac:    2d00        .-      CMP      r5,#0
        0x08002eae:    d1ee        ..      BNE      0x8002e8e ; HAL_RCCEx_PeriphCLKConfig + 998
        0x08002eb0:    e7dc        ..      B        0x8002e6c ; HAL_RCCEx_PeriphCLKConfig + 964
        0x08002eb2:    2501        .%      MOVS     r5,#1
        0x08002eb4:    2d00        .-      CMP      r5,#0
        0x08002eb6:    d1f6        ..      BNE      0x8002ea6 ; HAL_RCCEx_PeriphCLKConfig + 1022
        0x08002eb8:    e010        ..      B        0x8002edc ; HAL_RCCEx_PeriphCLKConfig + 1076
        0x08002eba:    f8d90000    ....    LDR      r0,[r9,#0]
        0x08002ebe:    f4403000    @..0    ORR      r0,r0,#0x20000
        0x08002ec2:    f8c90000    ....    STR      r0,[r9,#0]
        0x08002ec6:    2d00        .-      CMP      r5,#0
        0x08002ec8:    d1ed        ..      BNE      0x8002ea6 ; HAL_RCCEx_PeriphCLKConfig + 1022
        0x08002eca:    e007        ..      B        0x8002edc ; HAL_RCCEx_PeriphCLKConfig + 1076
        0x08002ecc:    f1040008    ....    ADD      r0,r4,#8
        0x08002ed0:    2102        .!      MOVS     r1,#2
        0x08002ed2:    f002ff65    ..e.    BL       RCCEx_PLL2_Config ; 0x8005da0
        0x08002ed6:    4605        .F      MOV      r5,r0
        0x08002ed8:    2d00        .-      CMP      r5,#0
        0x08002eda:    d1e4        ..      BNE      0x8002ea6 ; HAL_RCCEx_PeriphCLKConfig + 1022
        0x08002edc:    f8d90020    .. .    LDR      r0,[r9,#0x20]
        0x08002ee0:    6ca1        .l      LDR      r1,[r4,#0x48]
        0x08002ee2:    f0200003     ...    BIC      r0,r0,#3
        0x08002ee6:    4308        .C      ORRS     r0,r0,r1
        0x08002ee8:    f8c90020    .. .    STR      r0,[r9,#0x20]
        0x08002eec:    78a0        .x      LDRB     r0,[r4,#2]
        0x08002eee:    0640        @.      LSLS     r0,r0,#25
        0x08002ef0:    f140824e    @.N.    BPL.W    0x8003390 ; HAL_RCCEx_PeriphCLKConfig + 2280
        0x08002ef4:    f24021ff    @..!    MOV      r1,#0x2ff
        0x08002ef8:    f8d400b4    ....    LDR      r0,[r4,#0xb4]
        0x08002efc:    f2c00102    ....    MOVT     r1,#2
        0x08002f00:    4288        .B      CMP      r0,r1
        0x08002f02:    dc1a        ..      BGT      0x8002f3a ; HAL_RCCEx_PeriphCLKConfig + 1170
        0x08002f04:    f24021ff    @..!    MOV      r1,#0x2ff
        0x08002f08:    f2c00101    ....    MOVT     r1,#1
        0x08002f0c:    4288        .B      CMP      r0,r1
        0x08002f0e:    dc3a        :.      BGT      0x8002f86 ; HAL_RCCEx_PeriphCLKConfig + 1246
        0x08002f10:    f5b04f03    ...O    CMP      r0,#0x8300
        0x08002f14:    da75        u.      BGE      0x8003002 ; HAL_RCCEx_PeriphCLKConfig + 1370
        0x08002f16:    f5b04f86    ...O    CMP      r0,#0x4300
        0x08002f1a:    f28080d0    ....    BGE.W    0x80030be ; HAL_RCCEx_PeriphCLKConfig + 1558
        0x08002f1e:    f5b05f0c    ..._    CMP      r0,#0x2300
        0x08002f22:    f2808156    ..V.    BGE.W    0x80031d2 ; HAL_RCCEx_PeriphCLKConfig + 1834
        0x08002f26:    f5b07f80    ....    CMP      r0,#0x100
        0x08002f2a:    f00081eb    ....    BEQ.W    0x8003304 ; HAL_RCCEx_PeriphCLKConfig + 2140
        0x08002f2e:    f5b07f00    ....    CMP      r0,#0x200
        0x08002f32:    f00081e7    ....    BEQ.W    0x8003304 ; HAL_RCCEx_PeriphCLKConfig + 2140
        0x08002f36:    f000bd42    ..B.    B.W      0x80039be ; HAL_RCCEx_PeriphCLKConfig + 3862
        0x08002f3a:    f24021ff    @..!    MOV      r1,#0x2ff
        0x08002f3e:    f2c00103    ....    MOVT     r1,#3
        0x08002f42:    4288        .B      CMP      r0,r1
        0x08002f44:    dc3f        ?.      BGT      0x8002fc6 ; HAL_RCCEx_PeriphCLKConfig + 1310
        0x08002f46:    f24821ff    H..!    MOV      r1,#0x82ff
        0x08002f4a:    f2c00102    ....    MOVT     r1,#2
        0x08002f4e:    4288        .B      CMP      r0,r1
        0x08002f50:    dc69        i.      BGT      0x8003026 ; HAL_RCCEx_PeriphCLKConfig + 1406
        0x08002f52:    f24421ff    D..!    MOV      r1,#0x42ff
        0x08002f56:    f2c00102    ....    MOVT     r1,#2
        0x08002f5a:    4288        .B      CMP      r0,r1
        0x08002f5c:    f30080bd    ....    BGT.W    0x80030da ; HAL_RCCEx_PeriphCLKConfig + 1586
        0x08002f60:    f24221ff    B..!    MOV      r1,#0x22ff
        0x08002f64:    f2c00102    ....    MOVT     r1,#2
        0x08002f68:    4288        .B      CMP      r0,r1
        0x08002f6a:    f300813a    ..:.    BGT.W    0x80031e2 ; HAL_RCCEx_PeriphCLKConfig + 1850
        0x08002f6e:    f2403100    @..1    MOVW     r1,#0x300
        0x08002f72:    f2c00102    ....    MOVT     r1,#2
        0x08002f76:    4288        .B      CMP      r0,r1
        0x08002f78:    f00081c4    ....    BEQ.W    0x8003304 ; HAL_RCCEx_PeriphCLKConfig + 2140
        0x08002f7c:    f2413100    A..1    MOVW     r1,#0x1300
        0x08002f80:    f2c00102    ....    MOVT     r1,#2
        0x08002f84:    e1bb        ..      B        0x80032fe ; HAL_RCCEx_PeriphCLKConfig + 2134
        0x08002f86:    f24821ff    H..!    MOV      r1,#0x82ff
        0x08002f8a:    f2c00101    ....    MOVT     r1,#1
        0x08002f8e:    4288        .B      CMP      r0,r1
        0x08002f90:    dc63        c.      BGT      0x800305a ; HAL_RCCEx_PeriphCLKConfig + 1458
        0x08002f92:    f24421ff    D..!    MOV      r1,#0x42ff
        0x08002f96:    f2c00101    ....    MOVT     r1,#1
        0x08002f9a:    4288        .B      CMP      r0,r1
        0x08002f9c:    f30080b0    ....    BGT.W    0x8003100 ; HAL_RCCEx_PeriphCLKConfig + 1624
        0x08002fa0:    f24221ff    B..!    MOV      r1,#0x22ff
        0x08002fa4:    f2c00101    ....    MOVT     r1,#1
        0x08002fa8:    4288        .B      CMP      r0,r1
        0x08002faa:    f3008126    ..&.    BGT.W    0x80031fa ; HAL_RCCEx_PeriphCLKConfig + 1874
        0x08002fae:    f2403100    @..1    MOVW     r1,#0x300
        0x08002fb2:    f2c00101    ....    MOVT     r1,#1
        0x08002fb6:    4288        .B      CMP      r0,r1
        0x08002fb8:    f00081a4    ....    BEQ.W    0x8003304 ; HAL_RCCEx_PeriphCLKConfig + 2140
        0x08002fbc:    f2413100    A..1    MOVW     r1,#0x1300
        0x08002fc0:    f2c00101    ....    MOVT     r1,#1
        0x08002fc4:    e19b        ..      B        0x80032fe ; HAL_RCCEx_PeriphCLKConfig + 2134
        0x08002fc6:    f24821ff    H..!    MOV      r1,#0x82ff
        0x08002fca:    f2c00103    ....    MOVT     r1,#3
        0x08002fce:    4288        .B      CMP      r0,r1
        0x08002fd0:    dc5d        ].      BGT      0x800308e ; HAL_RCCEx_PeriphCLKConfig + 1510
        0x08002fd2:    f24421ff    D..!    MOV      r1,#0x42ff
        0x08002fd6:    f2c00103    ....    MOVT     r1,#3
        0x08002fda:    4288        .B      CMP      r0,r1
        0x08002fdc:    f30080a3    ....    BGT.W    0x8003126 ; HAL_RCCEx_PeriphCLKConfig + 1662
        0x08002fe0:    f24221ff    B..!    MOV      r1,#0x22ff
        0x08002fe4:    f2c00103    ....    MOVT     r1,#3
        0x08002fe8:    4288        .B      CMP      r0,r1
        0x08002fea:    f3008111    ....    BGT.W    0x8003210 ; HAL_RCCEx_PeriphCLKConfig + 1896
        0x08002fee:    f2403100    @..1    MOVW     r1,#0x300
        0x08002ff2:    f2c00103    ....    MOVT     r1,#3
        0x08002ff6:    4288        .B      CMP      r0,r1
        0x08002ff8:    f0008184    ....    BEQ.W    0x8003304 ; HAL_RCCEx_PeriphCLKConfig + 2140
        0x08002ffc:    f2413100    A..1    MOVW     r1,#0x1300
        0x08003000:    e17b        {.      B        0x80032fa ; HAL_RCCEx_PeriphCLKConfig + 2130
        0x08003002:    f5b04f43    ..CO    CMP      r0,#0xc300
        0x08003006:    f280809f    ....    BGE.W    0x8003148 ; HAL_RCCEx_PeriphCLKConfig + 1696
        0x0800300a:    f5b04f23    ..#O    CMP      r0,#0xa300
        0x0800300e:    f2808108    ....    BGE.W    0x8003222 ; HAL_RCCEx_PeriphCLKConfig + 1914
        0x08003012:    f5b04f03    ...O    CMP      r0,#0x8300
        0x08003016:    f0008175    ..u.    BEQ.W    0x8003304 ; HAL_RCCEx_PeriphCLKConfig + 2140
        0x0800301a:    f5b04f13    ...O    CMP      r0,#0x9300
        0x0800301e:    f0008171    ..q.    BEQ.W    0x8003304 ; HAL_RCCEx_PeriphCLKConfig + 2140
        0x08003022:    f000bccc    ....    B.W      0x80039be ; HAL_RCCEx_PeriphCLKConfig + 3862
        0x08003026:    f24c21ff    L..!    MOV      r1,#0xc2ff
        0x0800302a:    f2c00102    ....    MOVT     r1,#2
        0x0800302e:    4288        .B      CMP      r0,r1
        0x08003030:    f3008098    ....    BGT.W    0x8003164 ; HAL_RCCEx_PeriphCLKConfig + 1724
        0x08003034:    f24a21ff    J..!    MOV      r1,#0xa2ff
        0x08003038:    f2c00102    ....    MOVT     r1,#2
        0x0800303c:    4288        .B      CMP      r0,r1
        0x0800303e:    f30080f6    ....    BGT.W    0x800322e ; HAL_RCCEx_PeriphCLKConfig + 1926
        0x08003042:    f2483100    H..1    MOVW     r1,#0x8300
        0x08003046:    f2c00102    ....    MOVT     r1,#2
        0x0800304a:    4288        .B      CMP      r0,r1
        0x0800304c:    f000815a    ..Z.    BEQ.W    0x8003304 ; HAL_RCCEx_PeriphCLKConfig + 2140
        0x08003050:    f2493100    I..1    MOVW     r1,#0x9300
        0x08003054:    f2c00102    ....    MOVT     r1,#2
        0x08003058:    e151        Q.      B        0x80032fe ; HAL_RCCEx_PeriphCLKConfig + 2134
        0x0800305a:    f24c21ff    L..!    MOV      r1,#0xc2ff
        0x0800305e:    f2c00101    ....    MOVT     r1,#1
        0x08003062:    4288        .B      CMP      r0,r1
        0x08003064:    f3008091    ....    BGT.W    0x800318a ; HAL_RCCEx_PeriphCLKConfig + 1762
        0x08003068:    f24a21ff    J..!    MOV      r1,#0xa2ff
        0x0800306c:    f2c00101    ....    MOVT     r1,#1
        0x08003070:    4288        .B      CMP      r0,r1
        0x08003072:    f30080e7    ....    BGT.W    0x8003244 ; HAL_RCCEx_PeriphCLKConfig + 1948
        0x08003076:    f2483100    H..1    MOVW     r1,#0x8300
        0x0800307a:    f2c00101    ....    MOVT     r1,#1
        0x0800307e:    4288        .B      CMP      r0,r1
        0x08003080:    f0008140    ..@.    BEQ.W    0x8003304 ; HAL_RCCEx_PeriphCLKConfig + 2140
        0x08003084:    f2493100    I..1    MOVW     r1,#0x9300
        0x08003088:    f2c00101    ....    MOVT     r1,#1
        0x0800308c:    e137        7.      B        0x80032fe ; HAL_RCCEx_PeriphCLKConfig + 2134
        0x0800308e:    f24c21ff    L..!    MOV      r1,#0xc2ff
        0x08003092:    f2c00103    ....    MOVT     r1,#3
        0x08003096:    4288        .B      CMP      r0,r1
        0x08003098:    f300808a    ....    BGT.W    0x80031b0 ; HAL_RCCEx_PeriphCLKConfig + 1800
        0x0800309c:    f24a21ff    J..!    MOV      r1,#0xa2ff
        0x080030a0:    f2c00103    ....    MOVT     r1,#3
        0x080030a4:    4288        .B      CMP      r0,r1
        0x080030a6:    f30080d8    ....    BGT.W    0x800325a ; HAL_RCCEx_PeriphCLKConfig + 1970
        0x080030aa:    f2483100    H..1    MOVW     r1,#0x8300
        0x080030ae:    f2c00103    ....    MOVT     r1,#3
        0x080030b2:    4288        .B      CMP      r0,r1
        0x080030b4:    f0008126    ..&.    BEQ.W    0x8003304 ; HAL_RCCEx_PeriphCLKConfig + 2140
        0x080030b8:    f2493100    I..1    MOVW     r1,#0x9300
        0x080030bc:    e11d        ..      B        0x80032fa ; HAL_RCCEx_PeriphCLKConfig + 2130
        0x080030be:    f5b04fc6    ...O    CMP      r0,#0x6300
        0x080030c2:    f28080d3    ....    BGE.W    0x800326c ; HAL_RCCEx_PeriphCLKConfig + 1988
        0x080030c6:    f5b04f86    ...O    CMP      r0,#0x4300
        0x080030ca:    f000811b    ....    BEQ.W    0x8003304 ; HAL_RCCEx_PeriphCLKConfig + 2140
        0x080030ce:    f5b04fa6    ...O    CMP      r0,#0x5300
        0x080030d2:    f0008117    ....    BEQ.W    0x8003304 ; HAL_RCCEx_PeriphCLKConfig + 2140
        0x080030d6:    f000bc72    ..r.    B.W      0x80039be ; HAL_RCCEx_PeriphCLKConfig + 3862
        0x080030da:    f24621ff    F..!    MOV      r1,#0x62ff
        0x080030de:    f2c00102    ....    MOVT     r1,#2
        0x080030e2:    4288        .B      CMP      r0,r1
        0x080030e4:    f30080c7    ....    BGT.W    0x8003276 ; HAL_RCCEx_PeriphCLKConfig + 1998
        0x080030e8:    f2443100    D..1    MOVW     r1,#0x4300
        0x080030ec:    f2c00102    ....    MOVT     r1,#2
        0x080030f0:    4288        .B      CMP      r0,r1
        0x080030f2:    f0008107    ....    BEQ.W    0x8003304 ; HAL_RCCEx_PeriphCLKConfig + 2140
        0x080030f6:    f2453100    E..1    MOVW     r1,#0x5300
        0x080030fa:    f2c00102    ....    MOVT     r1,#2
        0x080030fe:    e0fe        ..      B        0x80032fe ; HAL_RCCEx_PeriphCLKConfig + 2134
        0x08003100:    f24621ff    F..!    MOV      r1,#0x62ff
        0x08003104:    f2c00101    ....    MOVT     r1,#1
        0x08003108:    4288        .B      CMP      r0,r1
        0x0800310a:    f30080bf    ....    BGT.W    0x800328c ; HAL_RCCEx_PeriphCLKConfig + 2020
        0x0800310e:    f2443100    D..1    MOVW     r1,#0x4300
        0x08003112:    f2c00101    ....    MOVT     r1,#1
        0x08003116:    4288        .B      CMP      r0,r1
        0x08003118:    f00080f4    ....    BEQ.W    0x8003304 ; HAL_RCCEx_PeriphCLKConfig + 2140
        0x0800311c:    f2453100    E..1    MOVW     r1,#0x5300
        0x08003120:    f2c00101    ....    MOVT     r1,#1
        0x08003124:    e0eb        ..      B        0x80032fe ; HAL_RCCEx_PeriphCLKConfig + 2134
        0x08003126:    f24621ff    F..!    MOV      r1,#0x62ff
        0x0800312a:    f2c00103    ....    MOVT     r1,#3
        0x0800312e:    4288        .B      CMP      r0,r1
        0x08003130:    f30080b7    ....    BGT.W    0x80032a2 ; HAL_RCCEx_PeriphCLKConfig + 2042
        0x08003134:    f2443100    D..1    MOVW     r1,#0x4300
        0x08003138:    f2c00103    ....    MOVT     r1,#3
        0x0800313c:    4288        .B      CMP      r0,r1
        0x0800313e:    f00080e1    ....    BEQ.W    0x8003304 ; HAL_RCCEx_PeriphCLKConfig + 2140
        0x08003142:    f2453100    E..1    MOVW     r1,#0x5300
        0x08003146:    e0d8        ..      B        0x80032fa ; HAL_RCCEx_PeriphCLKConfig + 2130
        0x08003148:    f5b04f63    ..cO    CMP      r0,#0xe300
        0x0800314c:    f28080b2    ....    BGE.W    0x80032b4 ; HAL_RCCEx_PeriphCLKConfig + 2060
        0x08003150:    f5b04f43    ..CO    CMP      r0,#0xc300
        0x08003154:    f00080d6    ....    BEQ.W    0x8003304 ; HAL_RCCEx_PeriphCLKConfig + 2140
        0x08003158:    f5b04f53    ..SO    CMP      r0,#0xd300
        0x0800315c:    f00080d2    ....    BEQ.W    0x8003304 ; HAL_RCCEx_PeriphCLKConfig + 2140
        0x08003160:    f000bc2d    ..-.    B.W      0x80039be ; HAL_RCCEx_PeriphCLKConfig + 3862
        0x08003164:    f24e21ff    N..!    MOV      r1,#0xe2ff
        0x08003168:    f2c00102    ....    MOVT     r1,#2
        0x0800316c:    4288        .B      CMP      r0,r1
        0x0800316e:    f30080a6    ....    BGT.W    0x80032be ; HAL_RCCEx_PeriphCLKConfig + 2070
        0x08003172:    f24c3100    L..1    MOVW     r1,#0xc300
        0x08003176:    f2c00102    ....    MOVT     r1,#2
        0x0800317a:    4288        .B      CMP      r0,r1
        0x0800317c:    f00080c2    ....    BEQ.W    0x8003304 ; HAL_RCCEx_PeriphCLKConfig + 2140
        0x08003180:    f24d3100    M..1    MOVW     r1,#0xd300
        0x08003184:    f2c00102    ....    MOVT     r1,#2
        0x08003188:    e0b9        ..      B        0x80032fe ; HAL_RCCEx_PeriphCLKConfig + 2134
        0x0800318a:    f24e21ff    N..!    MOV      r1,#0xe2ff
        0x0800318e:    f2c00101    ....    MOVT     r1,#1
        0x08003192:    4288        .B      CMP      r0,r1
        0x08003194:    f300809e    ....    BGT.W    0x80032d4 ; HAL_RCCEx_PeriphCLKConfig + 2092
        0x08003198:    f24c3100    L..1    MOVW     r1,#0xc300
        0x0800319c:    f2c00101    ....    MOVT     r1,#1
        0x080031a0:    4288        .B      CMP      r0,r1
        0x080031a2:    f00080af    ....    BEQ.W    0x8003304 ; HAL_RCCEx_PeriphCLKConfig + 2140
        0x080031a6:    f24d3100    M..1    MOVW     r1,#0xd300
        0x080031aa:    f2c00101    ....    MOVT     r1,#1
        0x080031ae:    e0a6        ..      B        0x80032fe ; HAL_RCCEx_PeriphCLKConfig + 2134
        0x080031b0:    f24e21ff    N..!    MOV      r1,#0xe2ff
        0x080031b4:    f2c00103    ....    MOVT     r1,#3
        0x080031b8:    4288        .B      CMP      r0,r1
        0x080031ba:    f3008096    ....    BGT.W    0x80032ea ; HAL_RCCEx_PeriphCLKConfig + 2114
        0x080031be:    f24c3100    L..1    MOVW     r1,#0xc300
        0x080031c2:    f2c00103    ....    MOVT     r1,#3
        0x080031c6:    4288        .B      CMP      r0,r1
        0x080031c8:    f000809c    ....    BEQ.W    0x8003304 ; HAL_RCCEx_PeriphCLKConfig + 2140
        0x080031cc:    f24d3100    M..1    MOVW     r1,#0xd300
        0x080031d0:    e093        ..      B        0x80032fa ; HAL_RCCEx_PeriphCLKConfig + 2130
        0x080031d2:    f0008097    ....    BEQ.W    0x8003304 ; HAL_RCCEx_PeriphCLKConfig + 2140
        0x080031d6:    f5b05f4c    ..L_    CMP      r0,#0x3300
        0x080031da:    f0008093    ....    BEQ.W    0x8003304 ; HAL_RCCEx_PeriphCLKConfig + 2140
        0x080031de:    f000bbee    ....    B.W      0x80039be ; HAL_RCCEx_PeriphCLKConfig + 3862
        0x080031e2:    f2423100    B..1    MOVW     r1,#0x2300
        0x080031e6:    f2c00102    ....    MOVT     r1,#2
        0x080031ea:    4288        .B      CMP      r0,r1
        0x080031ec:    f000808a    ....    BEQ.W    0x8003304 ; HAL_RCCEx_PeriphCLKConfig + 2140
        0x080031f0:    f2433100    C..1    MOVW     r1,#0x3300
        0x080031f4:    f2c00102    ....    MOVT     r1,#2
        0x080031f8:    e081        ..      B        0x80032fe ; HAL_RCCEx_PeriphCLKConfig + 2134
        0x080031fa:    f2423100    B..1    MOVW     r1,#0x2300
        0x080031fe:    f2c00101    ....    MOVT     r1,#1
        0x08003202:    4288        .B      CMP      r0,r1
        0x08003204:    d07e        ~.      BEQ      0x8003304 ; HAL_RCCEx_PeriphCLKConfig + 2140
        0x08003206:    f2433100    C..1    MOVW     r1,#0x3300
        0x0800320a:    f2c00101    ....    MOVT     r1,#1
        0x0800320e:    e076        v.      B        0x80032fe ; HAL_RCCEx_PeriphCLKConfig + 2134
        0x08003210:    f2423100    B..1    MOVW     r1,#0x2300
        0x08003214:    f2c00103    ....    MOVT     r1,#3
        0x08003218:    4288        .B      CMP      r0,r1
        0x0800321a:    d073        s.      BEQ      0x8003304 ; HAL_RCCEx_PeriphCLKConfig + 2140
        0x0800321c:    f2433100    C..1    MOVW     r1,#0x3300
        0x08003220:    e06b        k.      B        0x80032fa ; HAL_RCCEx_PeriphCLKConfig + 2130
        0x08003222:    d06f        o.      BEQ      0x8003304 ; HAL_RCCEx_PeriphCLKConfig + 2140
        0x08003224:    f5b04f33    ..3O    CMP      r0,#0xb300
        0x08003228:    d06c        l.      BEQ      0x8003304 ; HAL_RCCEx_PeriphCLKConfig + 2140
        0x0800322a:    f000bbc8    ....    B.W      0x80039be ; HAL_RCCEx_PeriphCLKConfig + 3862
        0x0800322e:    f24a3100    J..1    MOVW     r1,#0xa300
        0x08003232:    f2c00102    ....    MOVT     r1,#2
        0x08003236:    4288        .B      CMP      r0,r1
        0x08003238:    d064        d.      BEQ      0x8003304 ; HAL_RCCEx_PeriphCLKConfig + 2140
        0x0800323a:    f24b3100    K..1    MOVW     r1,#0xb300
        0x0800323e:    f2c00102    ....    MOVT     r1,#2
        0x08003242:    e05c        \.      B        0x80032fe ; HAL_RCCEx_PeriphCLKConfig + 2134
        0x08003244:    f24a3100    J..1    MOVW     r1,#0xa300
        0x08003248:    f2c00101    ....    MOVT     r1,#1
        0x0800324c:    4288        .B      CMP      r0,r1
        0x0800324e:    d059        Y.      BEQ      0x8003304 ; HAL_RCCEx_PeriphCLKConfig + 2140
        0x08003250:    f24b3100    K..1    MOVW     r1,#0xb300
        0x08003254:    f2c00101    ....    MOVT     r1,#1
        0x08003258:    e051        Q.      B        0x80032fe ; HAL_RCCEx_PeriphCLKConfig + 2134
        0x0800325a:    f24a3100    J..1    MOVW     r1,#0xa300
        0x0800325e:    f2c00103    ....    MOVT     r1,#3
        0x08003262:    4288        .B      CMP      r0,r1
        0x08003264:    d04e        N.      BEQ      0x8003304 ; HAL_RCCEx_PeriphCLKConfig + 2140
        0x08003266:    f24b3100    K..1    MOVW     r1,#0xb300
        0x0800326a:    e046        F.      B        0x80032fa ; HAL_RCCEx_PeriphCLKConfig + 2130
        0x0800326c:    d04a        J.      BEQ      0x8003304 ; HAL_RCCEx_PeriphCLKConfig + 2140
        0x0800326e:    f5b04fe6    ...O    CMP      r0,#0x7300
        0x08003272:    d047        G.      BEQ      0x8003304 ; HAL_RCCEx_PeriphCLKConfig + 2140
        0x08003274:    e3a3        ..      B        0x80039be ; HAL_RCCEx_PeriphCLKConfig + 3862
        0x08003276:    f2463100    F..1    MOVW     r1,#0x6300
        0x0800327a:    f2c00102    ....    MOVT     r1,#2
        0x0800327e:    4288        .B      CMP      r0,r1
        0x08003280:    d040        @.      BEQ      0x8003304 ; HAL_RCCEx_PeriphCLKConfig + 2140
        0x08003282:    f2473100    G..1    MOVW     r1,#0x7300
        0x08003286:    f2c00102    ....    MOVT     r1,#2
        0x0800328a:    e038        8.      B        0x80032fe ; HAL_RCCEx_PeriphCLKConfig + 2134
        0x0800328c:    f2463100    F..1    MOVW     r1,#0x6300
        0x08003290:    f2c00101    ....    MOVT     r1,#1
        0x08003294:    4288        .B      CMP      r0,r1
        0x08003296:    d035        5.      BEQ      0x8003304 ; HAL_RCCEx_PeriphCLKConfig + 2140
        0x08003298:    f2473100    G..1    MOVW     r1,#0x7300
        0x0800329c:    f2c00101    ....    MOVT     r1,#1
        0x080032a0:    e02d        -.      B        0x80032fe ; HAL_RCCEx_PeriphCLKConfig + 2134
        0x080032a2:    f2463100    F..1    MOVW     r1,#0x6300
        0x080032a6:    f2c00103    ....    MOVT     r1,#3
        0x080032aa:    4288        .B      CMP      r0,r1
        0x080032ac:    d02a        *.      BEQ      0x8003304 ; HAL_RCCEx_PeriphCLKConfig + 2140
        0x080032ae:    f2473100    G..1    MOVW     r1,#0x7300
        0x080032b2:    e022        ".      B        0x80032fa ; HAL_RCCEx_PeriphCLKConfig + 2130
        0x080032b4:    d026        &.      BEQ      0x8003304 ; HAL_RCCEx_PeriphCLKConfig + 2140
        0x080032b6:    f5b04f73    ..sO    CMP      r0,#0xf300
        0x080032ba:    d023        #.      BEQ      0x8003304 ; HAL_RCCEx_PeriphCLKConfig + 2140
        0x080032bc:    e37f        ..      B        0x80039be ; HAL_RCCEx_PeriphCLKConfig + 3862
        0x080032be:    f24e3100    N..1    MOVW     r1,#0xe300
        0x080032c2:    f2c00102    ....    MOVT     r1,#2
        0x080032c6:    4288        .B      CMP      r0,r1
        0x080032c8:    d01c        ..      BEQ      0x8003304 ; HAL_RCCEx_PeriphCLKConfig + 2140
        0x080032ca:    f24f3100    O..1    MOVW     r1,#0xf300
        0x080032ce:    f2c00102    ....    MOVT     r1,#2
        0x080032d2:    e014        ..      B        0x80032fe ; HAL_RCCEx_PeriphCLKConfig + 2134
        0x080032d4:    f24e3100    N..1    MOVW     r1,#0xe300
        0x080032d8:    f2c00101    ....    MOVT     r1,#1
        0x080032dc:    4288        .B      CMP      r0,r1
        0x080032de:    d011        ..      BEQ      0x8003304 ; HAL_RCCEx_PeriphCLKConfig + 2140
        0x080032e0:    f24f3100    O..1    MOVW     r1,#0xf300
        0x080032e4:    f2c00101    ....    MOVT     r1,#1
        0x080032e8:    e009        ..      B        0x80032fe ; HAL_RCCEx_PeriphCLKConfig + 2134
        0x080032ea:    f24e3100    N..1    MOVW     r1,#0xe300
        0x080032ee:    f2c00103    ....    MOVT     r1,#3
        0x080032f2:    4288        .B      CMP      r0,r1
        0x080032f4:    d006        ..      BEQ      0x8003304 ; HAL_RCCEx_PeriphCLKConfig + 2140
        0x080032f6:    f24f3100    O..1    MOVW     r1,#0xf300
        0x080032fa:    f2c00103    ....    MOVT     r1,#3
        0x080032fe:    4288        .B      CMP      r0,r1
        0x08003300:    f040835d    @.].    BNE.W    0x80039be ; HAL_RCCEx_PeriphCLKConfig + 3862
        0x08003304:    f8d903d4    ....    LDR      r0,[r9,#0x3d4]
        0x08003308:    f4407080    @..p    ORR      r0,r0,#0x100
        0x0800330c:    f8c903d4    ....    STR      r0,[r9,#0x3d4]
        0x08003310:    f7feff52    ..R.    BL       HAL_GetTick ; 0x80021b8
        0x08003314:    4606        .F      MOV      r6,r0
        0x08003316:    bf00        ..      NOP      
        0x08003318:    f8d903d4    ....    LDR      r0,[r9,#0x3d4]
        0x0800331c:    05c0        ..      LSLS     r0,r0,#23
        0x0800331e:    d405        ..      BMI      0x800332c ; HAL_RCCEx_PeriphCLKConfig + 2180
        0x08003320:    f7feff4a    ..J.    BL       HAL_GetTick ; 0x80021b8
        0x08003324:    1b80        ..      SUBS     r0,r0,r6
        0x08003326:    2865        e(      CMP      r0,#0x65
        0x08003328:    d3f6        ..      BCC      0x8003318 ; HAL_RCCEx_PeriphCLKConfig + 2160
        0x0800332a:    2503        .%      MOVS     r5,#3
        0x0800332c:    bb7d        }.      CBNZ     r5,0x800338e ; HAL_RCCEx_PeriphCLKConfig + 2278
        0x0800332e:    f8d91044    ..D.    LDR      r1,[r9,#0x44]
        0x08003332:    f8d400b4    ....    LDR      r0,[r4,#0xb4]
        0x08003336:    4041        A@      EORS     r1,r1,r0
        0x08003338:    f4117f40    ..@.    TST      r1,#0x300
        0x0800333c:    d011        ..      BEQ      0x8003362 ; HAL_RCCEx_PeriphCLKConfig + 2234
        0x0800333e:    f8d91044    ..D.    LDR      r1,[r9,#0x44]
        0x08003342:    f8d92044    ..D     LDR      r2,[r9,#0x44]
        0x08003346:    f4423280    B..2    ORR      r2,r2,#0x10000
        0x0800334a:    f8c92044    ..D     STR      r2,[r9,#0x44]
        0x0800334e:    f8d92044    ..D     LDR      r2,[r9,#0x44]
        0x08003352:    f4217140    !.@q    BIC      r1,r1,#0x300
        0x08003356:    f4223280    "..2    BIC      r2,r2,#0x10000
        0x0800335a:    f8c92044    ..D     STR      r2,[r9,#0x44]
        0x0800335e:    f8c91044    ..D.    STR      r1,[r9,#0x44]
        0x08003362:    f5b07f80    ....    CMP      r0,#0x100
        0x08003366:    d10f        ..      BNE      0x8003388 ; HAL_RCCEx_PeriphCLKConfig + 2272
        0x08003368:    f7feff26    ..&.    BL       HAL_GetTick ; 0x80021b8
        0x0800336c:    4606        .F      MOV      r6,r0
        0x0800336e:    f2413789    A..7    MOV      r7,#0x1389
        0x08003372:    bf00        ..      NOP      
        0x08003374:    f8d90044    ..D.    LDR      r0,[r9,#0x44]
        0x08003378:    0780        ..      LSLS     r0,r0,#30
        0x0800337a:    d405        ..      BMI      0x8003388 ; HAL_RCCEx_PeriphCLKConfig + 2272
        0x0800337c:    f7feff1c    ....    BL       HAL_GetTick ; 0x80021b8
        0x08003380:    1b80        ..      SUBS     r0,r0,r6
        0x08003382:    42b8        .B      CMP      r0,r7
        0x08003384:    d3f6        ..      BCC      0x8003374 ; HAL_RCCEx_PeriphCLKConfig + 2252
        0x08003386:    2503        .%      MOVS     r5,#3
        0x08003388:    2d00        .-      CMP      r5,#0
        0x0800338a:    f00082f3    ....    BEQ.W    0x8003974 ; HAL_RCCEx_PeriphCLKConfig + 3788
        0x0800338e:    46a8        .F      MOV      r8,r5
        0x08003390:    7820         x      LDRB     r0,[r4,#0]
        0x08003392:    07c0        ..      LSLS     r0,r0,#31
        0x08003394:    d026        &.      BEQ      0x80033e4 ; HAL_RCCEx_PeriphCLKConfig + 2364
        0x08003396:    6fe0        .o      LDR      r0,[r4,#0x7c]
        0x08003398:    ea4f00f0    O...    ROR      r0,r0,#3
        0x0800339c:    2805        .(      CMP      r0,#5
        0x0800339e:    d807        ..      BHI      0x80033b0 ; HAL_RCCEx_PeriphCLKConfig + 2312
        0x080033a0:    e8dff000    ....    TBB      [pc,r0]
    $d.21
        0x080033a4:    03100a03    ....    DCD    51382787
        0x080033a8:    0303        ..      DCW    771
    $t.22
        0x080033aa:    b19d        ..      CBZ      r5,0x80033d4 ; HAL_RCCEx_PeriphCLKConfig + 2348
        0x080033ac:    46a8        .F      MOV      r8,r5
        0x080033ae:    e019        ..      B        0x80033e4 ; HAL_RCCEx_PeriphCLKConfig + 2364
        0x080033b0:    2501        .%      MOVS     r5,#1
        0x080033b2:    2d00        .-      CMP      r5,#0
        0x080033b4:    d1fa        ..      BNE      0x80033ac ; HAL_RCCEx_PeriphCLKConfig + 2308
        0x080033b6:    e00d        ..      B        0x80033d4 ; HAL_RCCEx_PeriphCLKConfig + 2348
        0x080033b8:    f1040008    ....    ADD      r0,r4,#8
        0x080033bc:    2101        .!      MOVS     r1,#1
        0x080033be:    f002fcef    ....    BL       RCCEx_PLL2_Config ; 0x8005da0
        0x080033c2:    e004        ..      B        0x80033ce ; HAL_RCCEx_PeriphCLKConfig + 2342
        0x080033c4:    f1040028    ..(.    ADD      r0,r4,#0x28
        0x080033c8:    2101        .!      MOVS     r1,#1
        0x080033ca:    f002fddd    ....    BL       RCCEx_PLL3_Config ; 0x8005f88
        0x080033ce:    4605        .F      MOV      r5,r0
        0x080033d0:    2d00        .-      CMP      r5,#0
        0x080033d2:    d1eb        ..      BNE      0x80033ac ; HAL_RCCEx_PeriphCLKConfig + 2308
        0x080033d4:    f8d90028    ..(.    LDR      r0,[r9,#0x28]
        0x080033d8:    6fe1        .o      LDR      r1,[r4,#0x7c]
        0x080033da:    f0200038     .8.    BIC      r0,r0,#0x38
        0x080033de:    4308        .C      ORRS     r0,r0,r1
        0x080033e0:    f8c90028    ..(.    STR      r0,[r9,#0x28]
        0x080033e4:    7820         x      LDRB     r0,[r4,#0]
        0x080033e6:    0780        ..      LSLS     r0,r0,#30
        0x080033e8:    d524        $.      BPL      0x8003434 ; HAL_RCCEx_PeriphCLKConfig + 2444
        0x080033ea:    6fa0        .o      LDR      r0,[r4,#0x78]
        0x080033ec:    2805        .(      CMP      r0,#5
        0x080033ee:    d807        ..      BHI      0x8003400 ; HAL_RCCEx_PeriphCLKConfig + 2392
        0x080033f0:    e8dff000    ....    TBB      [pc,r0]
    $d.23
        0x080033f4:    03100a03    ....    DCD    51382787
        0x080033f8:    0303        ..      DCW    771
    $t.24
        0x080033fa:    b19d        ..      CBZ      r5,0x8003424 ; HAL_RCCEx_PeriphCLKConfig + 2428
        0x080033fc:    46a8        .F      MOV      r8,r5
        0x080033fe:    e019        ..      B        0x8003434 ; HAL_RCCEx_PeriphCLKConfig + 2444
        0x08003400:    2501        .%      MOVS     r5,#1
        0x08003402:    2d00        .-      CMP      r5,#0
        0x08003404:    d1fa        ..      BNE      0x80033fc ; HAL_RCCEx_PeriphCLKConfig + 2388
        0x08003406:    e00d        ..      B        0x8003424 ; HAL_RCCEx_PeriphCLKConfig + 2428
        0x08003408:    f1040008    ....    ADD      r0,r4,#8
        0x0800340c:    2101        .!      MOVS     r1,#1
        0x0800340e:    f002fcc7    ....    BL       RCCEx_PLL2_Config ; 0x8005da0
        0x08003412:    e004        ..      B        0x800341e ; HAL_RCCEx_PeriphCLKConfig + 2422
        0x08003414:    f1040028    ..(.    ADD      r0,r4,#0x28
        0x08003418:    2101        .!      MOVS     r1,#1
        0x0800341a:    f002fdb5    ....    BL       RCCEx_PLL3_Config ; 0x8005f88
        0x0800341e:    4605        .F      MOV      r5,r0
        0x08003420:    2d00        .-      CMP      r5,#0
        0x08003422:    d1eb        ..      BNE      0x80033fc ; HAL_RCCEx_PeriphCLKConfig + 2388
        0x08003424:    f8d90028    ..(.    LDR      r0,[r9,#0x28]
        0x08003428:    6fa1        .o      LDR      r1,[r4,#0x78]
        0x0800342a:    f0200007     ...    BIC      r0,r0,#7
        0x0800342e:    4308        .C      ORRS     r0,r0,r1
        0x08003430:    f8c90028    ..(.    STR      r0,[r9,#0x28]
        0x08003434:    7820         x      LDRB     r0,[r4,#0]
        0x08003436:    0740        @.      LSLS     r0,r0,#29
        0x08003438:    d526        &.      BPL      0x8003488 ; HAL_RCCEx_PeriphCLKConfig + 2528
        0x0800343a:    f8d40094    ....    LDR      r0,[r4,#0x94]
        0x0800343e:    2805        .(      CMP      r0,#5
        0x08003440:    d807        ..      BHI      0x8003452 ; HAL_RCCEx_PeriphCLKConfig + 2474
        0x08003442:    e8dff000    ....    TBB      [pc,r0]
    $d.25
        0x08003446:    0a03        ..      DCW    2563
        0x08003448:    03030310    ....    DCD    50529040
    $t.26
        0x0800344c:    b19d        ..      CBZ      r5,0x8003476 ; HAL_RCCEx_PeriphCLKConfig + 2510
        0x0800344e:    46a8        .F      MOV      r8,r5
        0x08003450:    e01a        ..      B        0x8003488 ; HAL_RCCEx_PeriphCLKConfig + 2528
        0x08003452:    2501        .%      MOVS     r5,#1
        0x08003454:    2d00        .-      CMP      r5,#0
        0x08003456:    d1fa        ..      BNE      0x800344e ; HAL_RCCEx_PeriphCLKConfig + 2470
        0x08003458:    e00d        ..      B        0x8003476 ; HAL_RCCEx_PeriphCLKConfig + 2510
        0x0800345a:    f1040008    ....    ADD      r0,r4,#8
        0x0800345e:    2101        .!      MOVS     r1,#1
        0x08003460:    f002fc9e    ....    BL       RCCEx_PLL2_Config ; 0x8005da0
        0x08003464:    e004        ..      B        0x8003470 ; HAL_RCCEx_PeriphCLKConfig + 2504
        0x08003466:    f1040028    ..(.    ADD      r0,r4,#0x28
        0x0800346a:    2101        .!      MOVS     r1,#1
        0x0800346c:    f002fd8c    ....    BL       RCCEx_PLL3_Config ; 0x8005f88
        0x08003470:    4605        .F      MOV      r5,r0
        0x08003472:    2d00        .-      CMP      r5,#0
        0x08003474:    d1eb        ..      BNE      0x800344e ; HAL_RCCEx_PeriphCLKConfig + 2470
        0x08003476:    f8d9002c    ..,.    LDR      r0,[r9,#0x2c]
        0x0800347a:    f8d41094    ....    LDR      r1,[r4,#0x94]
        0x0800347e:    f0200007     ...    BIC      r0,r0,#7
        0x08003482:    4308        .C      ORRS     r0,r0,r1
        0x08003484:    f8c9002c    ..,.    STR      r0,[r9,#0x2c]
        0x08003488:    7820         x      LDRB     r0,[r4,#0]
        0x0800348a:    0680        ..      LSLS     r0,r0,#26
        0x0800348c:    d528        (.      BPL      0x80034e0 ; HAL_RCCEx_PeriphCLKConfig + 2616
        0x0800348e:    f8d40090    ....    LDR      r0,[r4,#0x90]
        0x08003492:    ea4f7030    O.0p    ROR      r0,r0,#28
        0x08003496:    2805        .(      CMP      r0,#5
        0x08003498:    d807        ..      BHI      0x80034aa ; HAL_RCCEx_PeriphCLKConfig + 2562
        0x0800349a:    e8dff000    ....    TBB      [pc,r0]
    $d.27
        0x0800349e:    0a03        ..      DCW    2563
        0x080034a0:    03030310    ....    DCD    50529040
    $t.28
        0x080034a4:    b19d        ..      CBZ      r5,0x80034ce ; HAL_RCCEx_PeriphCLKConfig + 2598
        0x080034a6:    46a8        .F      MOV      r8,r5
        0x080034a8:    e01a        ..      B        0x80034e0 ; HAL_RCCEx_PeriphCLKConfig + 2616
        0x080034aa:    2501        .%      MOVS     r5,#1
        0x080034ac:    2d00        .-      CMP      r5,#0
        0x080034ae:    d1fa        ..      BNE      0x80034a6 ; HAL_RCCEx_PeriphCLKConfig + 2558
        0x080034b0:    e00d        ..      B        0x80034ce ; HAL_RCCEx_PeriphCLKConfig + 2598
        0x080034b2:    f1040008    ....    ADD      r0,r4,#8
        0x080034b6:    2100        .!      MOVS     r1,#0
        0x080034b8:    f002fc72    ..r.    BL       RCCEx_PLL2_Config ; 0x8005da0
        0x080034bc:    e004        ..      B        0x80034c8 ; HAL_RCCEx_PeriphCLKConfig + 2592
        0x080034be:    f1040028    ..(.    ADD      r0,r4,#0x28
        0x080034c2:    2102        .!      MOVS     r1,#2
        0x080034c4:    f002fd60    ..`.    BL       RCCEx_PLL3_Config ; 0x8005f88
        0x080034c8:    4605        .F      MOV      r5,r0
        0x080034ca:    2d00        .-      CMP      r5,#0
        0x080034cc:    d1eb        ..      BNE      0x80034a6 ; HAL_RCCEx_PeriphCLKConfig + 2558
        0x080034ce:    f8d90028    ..(.    LDR      r0,[r9,#0x28]
        0x080034d2:    f8d41090    ....    LDR      r1,[r4,#0x90]
        0x080034d6:    f02040e0     ..@    BIC      r0,r0,#0x70000000
        0x080034da:    4308        .C      ORRS     r0,r0,r1
        0x080034dc:    f8c90028    ..(.    STR      r0,[r9,#0x28]
        0x080034e0:    7820         x      LDRB     r0,[r4,#0]
        0x080034e2:    0640        @.      LSLS     r0,r0,#25
        0x080034e4:    d528        (.      BPL      0x8003538 ; HAL_RCCEx_PeriphCLKConfig + 2704
        0x080034e6:    f8d4009c    ....    LDR      r0,[r4,#0x9c]
        0x080034ea:    ea4f20b0    O..     ROR      r0,r0,#10
        0x080034ee:    2805        .(      CMP      r0,#5
        0x080034f0:    d807        ..      BHI      0x8003502 ; HAL_RCCEx_PeriphCLKConfig + 2650
        0x080034f2:    e8dff000    ....    TBB      [pc,r0]
    $d.29
        0x080034f6:    0a03        ..      DCW    2563
        0x080034f8:    03030310    ....    DCD    50529040
    $t.30
        0x080034fc:    b19d        ..      CBZ      r5,0x8003526 ; HAL_RCCEx_PeriphCLKConfig + 2686
        0x080034fe:    46a8        .F      MOV      r8,r5
        0x08003500:    e01a        ..      B        0x8003538 ; HAL_RCCEx_PeriphCLKConfig + 2704
        0x08003502:    2501        .%      MOVS     r5,#1
        0x08003504:    2d00        .-      CMP      r5,#0
        0x08003506:    d1fa        ..      BNE      0x80034fe ; HAL_RCCEx_PeriphCLKConfig + 2646
        0x08003508:    e00d        ..      B        0x8003526 ; HAL_RCCEx_PeriphCLKConfig + 2686
        0x0800350a:    f1040008    ....    ADD      r0,r4,#8
        0x0800350e:    2100        .!      MOVS     r1,#0
        0x08003510:    f002fc46    ..F.    BL       RCCEx_PLL2_Config ; 0x8005da0
        0x08003514:    e004        ..      B        0x8003520 ; HAL_RCCEx_PeriphCLKConfig + 2680
        0x08003516:    f1040028    ..(.    ADD      r0,r4,#0x28
        0x0800351a:    2102        .!      MOVS     r1,#2
        0x0800351c:    f002fd34    ..4.    BL       RCCEx_PLL3_Config ; 0x8005f88
        0x08003520:    4605        .F      MOV      r5,r0
        0x08003522:    2d00        .-      CMP      r5,#0
        0x08003524:    d1eb        ..      BNE      0x80034fe ; HAL_RCCEx_PeriphCLKConfig + 2646
        0x08003526:    f8d9002c    ..,.    LDR      r0,[r9,#0x2c]
        0x0800352a:    f8d4109c    ....    LDR      r1,[r4,#0x9c]
        0x0800352e:    f42050e0     ..P    BIC      r0,r0,#0x1c00
        0x08003532:    4308        .C      ORRS     r0,r0,r1
        0x08003534:    f8c9002c    ..,.    STR      r0,[r9,#0x2c]
        0x08003538:    7820         x      LDRB     r0,[r4,#0]
        0x0800353a:    0600        ..      LSLS     r0,r0,#24
        0x0800353c:    d528        (.      BPL      0x8003590 ; HAL_RCCEx_PeriphCLKConfig + 2792
        0x0800353e:    f8d400a0    ....    LDR      r0,[r4,#0xa0]
        0x08003542:    ea4f3070    O.p0    ROR      r0,r0,#13
        0x08003546:    2805        .(      CMP      r0,#5
        0x08003548:    d807        ..      BHI      0x800355a ; HAL_RCCEx_PeriphCLKConfig + 2738
        0x0800354a:    e8dff000    ....    TBB      [pc,r0]
    $d.31
        0x0800354e:    0a03        ..      DCW    2563
        0x08003550:    03030310    ....    DCD    50529040
    $t.32
        0x08003554:    b19d        ..      CBZ      r5,0x800357e ; HAL_RCCEx_PeriphCLKConfig + 2774
        0x08003556:    46a8        .F      MOV      r8,r5
        0x08003558:    e01a        ..      B        0x8003590 ; HAL_RCCEx_PeriphCLKConfig + 2792
        0x0800355a:    2501        .%      MOVS     r5,#1
        0x0800355c:    2d00        .-      CMP      r5,#0
        0x0800355e:    d1fa        ..      BNE      0x8003556 ; HAL_RCCEx_PeriphCLKConfig + 2734
        0x08003560:    e00d        ..      B        0x800357e ; HAL_RCCEx_PeriphCLKConfig + 2774
        0x08003562:    f1040008    ....    ADD      r0,r4,#8
        0x08003566:    2100        .!      MOVS     r1,#0
        0x08003568:    f002fc1a    ....    BL       RCCEx_PLL2_Config ; 0x8005da0
        0x0800356c:    e004        ..      B        0x8003578 ; HAL_RCCEx_PeriphCLKConfig + 2768
        0x0800356e:    f1040028    ..(.    ADD      r0,r4,#0x28
        0x08003572:    2102        .!      MOVS     r1,#2
        0x08003574:    f002fd08    ....    BL       RCCEx_PLL3_Config ; 0x8005f88
        0x08003578:    4605        .F      MOV      r5,r0
        0x0800357a:    2d00        .-      CMP      r5,#0
        0x0800357c:    d1eb        ..      BNE      0x8003556 ; HAL_RCCEx_PeriphCLKConfig + 2734
        0x0800357e:    f8d9002c    ..,.    LDR      r0,[r9,#0x2c]
        0x08003582:    f8d410a0    ....    LDR      r1,[r4,#0xa0]
        0x08003586:    f4204060     .`@    BIC      r0,r0,#0xe000
        0x0800358a:    4308        .C      ORRS     r0,r0,r1
        0x0800358c:    f8c9002c    ..,.    STR      r0,[r9,#0x2c]
        0x08003590:    7820         x      LDRB     r0,[r4,#0]
        0x08003592:    0700        ..      LSLS     r0,r0,#28
        0x08003594:    d524        $.      BPL      0x80035e0 ; HAL_RCCEx_PeriphCLKConfig + 2872
        0x08003596:    f8d40084    ....    LDR      r0,[r4,#0x84]
        0x0800359a:    ea4f3030    O.00    ROR      r0,r0,#12
        0x0800359e:    2804        .(      CMP      r0,#4
        0x080035a0:    d307        ..      BCC      0x80035b2 ; HAL_RCCEx_PeriphCLKConfig + 2826
        0x080035a2:    f647502d    G.-P    MOV      r0,#0x7d2d
        0x080035a6:    f240510d    @..Q    MOV      r1,#0x50d
        0x080035aa:    f6c00000    ....    MOVT     r0,#0x800
        0x080035ae:    f003fd8b    ....    BL       assert_failed ; 0x80070c8
        0x080035b2:    f8d40084    ....    LDR      r0,[r4,#0x84]
        0x080035b6:    f5b05f80    ..._    CMP      r0,#0x1000
        0x080035ba:    d108        ..      BNE      0x80035ce ; HAL_RCCEx_PeriphCLKConfig + 2854
        0x080035bc:    f1040028    ..(.    ADD      r0,r4,#0x28
        0x080035c0:    2102        .!      MOVS     r1,#2
        0x080035c2:    f002fce1    ....    BL       RCCEx_PLL3_Config ; 0x8005f88
        0x080035c6:    2800        .(      CMP      r0,#0
        0x080035c8:    bf18        ..      IT       NE
        0x080035ca:    f04f0801    O...    MOVNE    r8,#1
        0x080035ce:    f8d90028    ..(.    LDR      r0,[r9,#0x28]
        0x080035d2:    f8d41084    ....    LDR      r1,[r4,#0x84]
        0x080035d6:    f4205040     .@P    BIC      r0,r0,#0x3000
        0x080035da:    4308        .C      ORRS     r0,r0,r1
        0x080035dc:    f8c90028    ..(.    STR      r0,[r9,#0x28]
        0x080035e0:    7820         x      LDRB     r0,[r4,#0]
        0x080035e2:    06c0        ..      LSLS     r0,r0,#27
        0x080035e4:    d524        $.      BPL      0x8003630 ; HAL_RCCEx_PeriphCLKConfig + 2952
        0x080035e6:    f8d40098    ....    LDR      r0,[r4,#0x98]
        0x080035ea:    ea4f2030    O.0     ROR      r0,r0,#8
        0x080035ee:    2804        .(      CMP      r0,#4
        0x080035f0:    d307        ..      BCC      0x8003602 ; HAL_RCCEx_PeriphCLKConfig + 2906
        0x080035f2:    f647502d    G.-P    MOV      r0,#0x7d2d
        0x080035f6:    f44f61a4    O..a    MOV      r1,#0x520
        0x080035fa:    f6c00000    ....    MOVT     r0,#0x800
        0x080035fe:    f003fd63    ..c.    BL       assert_failed ; 0x80070c8
        0x08003602:    f8d40098    ....    LDR      r0,[r4,#0x98]
        0x08003606:    f5b07f80    ....    CMP      r0,#0x100
        0x0800360a:    d108        ..      BNE      0x800361e ; HAL_RCCEx_PeriphCLKConfig + 2934
        0x0800360c:    f1040028    ..(.    ADD      r0,r4,#0x28
        0x08003610:    2102        .!      MOVS     r1,#2
        0x08003612:    f002fcb9    ....    BL       RCCEx_PLL3_Config ; 0x8005f88
        0x08003616:    2800        .(      CMP      r0,#0
        0x08003618:    bf18        ..      IT       NE
        0x0800361a:    f04f0801    O...    MOVNE    r8,#1
        0x0800361e:    f8d9002c    ..,.    LDR      r0,[r9,#0x2c]
        0x08003622:    f8d41098    ....    LDR      r1,[r4,#0x98]
        0x08003626:    f4207040     .@p    BIC      r0,r0,#0x300
        0x0800362a:    4308        .C      ORRS     r0,r0,r1
        0x0800362c:    f8c9002c    ..,.    STR      r0,[r9,#0x2c]
        0x08003630:    78a0        .x      LDRB     r0,[r4,#2]
        0x08003632:    0700        ..      LSLS     r0,r0,#28
        0x08003634:    d522        ".      BPL      0x800367c ; HAL_RCCEx_PeriphCLKConfig + 3028
        0x08003636:    f8d400a4    ....    LDR      r0,[r4,#0xa4]
        0x0800363a:    f5b03f00    ...?    CMP      r0,#0x20000
        0x0800363e:    d01a        ..      BEQ      0x8003676 ; HAL_RCCEx_PeriphCLKConfig + 3022
        0x08003640:    f5b03f80    ...?    CMP      r0,#0x10000
        0x08003644:    d011        ..      BEQ      0x800366a ; HAL_RCCEx_PeriphCLKConfig + 3010
        0x08003646:    bbc8        ..      CBNZ     r0,0x80036bc ; HAL_RCCEx_PeriphCLKConfig + 3092
        0x08003648:    f1040008    ....    ADD      r0,r4,#8
        0x0800364c:    2100        .!      MOVS     r1,#0
        0x0800364e:    f002fba7    ....    BL       RCCEx_PLL2_Config ; 0x8005da0
        0x08003652:    4605        .F      MOV      r5,r0
        0x08003654:    b98d        ..      CBNZ     r5,0x800367a ; HAL_RCCEx_PeriphCLKConfig + 3026
        0x08003656:    f8d9002c    ..,.    LDR      r0,[r9,#0x2c]
        0x0800365a:    f8d410a4    ....    LDR      r1,[r4,#0xa4]
        0x0800365e:    f4203040     .@0    BIC      r0,r0,#0x30000
        0x08003662:    4308        .C      ORRS     r0,r0,r1
        0x08003664:    f8c9002c    ..,.    STR      r0,[r9,#0x2c]
        0x08003668:    e008        ..      B        0x800367c ; HAL_RCCEx_PeriphCLKConfig + 3028
        0x0800366a:    f1040028    ..(.    ADD      r0,r4,#0x28
        0x0800366e:    2102        .!      MOVS     r1,#2
        0x08003670:    f002fc8a    ....    BL       RCCEx_PLL3_Config ; 0x8005f88
        0x08003674:    4605        .F      MOV      r5,r0
        0x08003676:    2d00        .-      CMP      r5,#0
        0x08003678:    d0ed        ..      BEQ      0x8003656 ; HAL_RCCEx_PeriphCLKConfig + 2990
        0x0800367a:    46a8        .F      MOV      r8,r5
        0x0800367c:    78a0        .x      LDRB     r0,[r4,#2]
        0x0800367e:    0740        @.      LSLS     r0,r0,#29
        0x08003680:    d529        ).      BPL      0x80036d6 ; HAL_RCCEx_PeriphCLKConfig + 3118
        0x08003682:    f8d40088    ....    LDR      r0,[r4,#0x88]
        0x08003686:    f5b01f40    ..@.    CMP      r0,#0x300000
        0x0800368a:    d021        !.      BEQ      0x80036d0 ; HAL_RCCEx_PeriphCLKConfig + 3112
        0x0800368c:    f5b01f00    ....    CMP      r0,#0x200000
        0x08003690:    d018        ..      BEQ      0x80036c4 ; HAL_RCCEx_PeriphCLKConfig + 3100
        0x08003692:    f5b01f80    ....    CMP      r0,#0x100000
        0x08003696:    f040815a    @.Z.    BNE.W    0x800394e ; HAL_RCCEx_PeriphCLKConfig + 3750
        0x0800369a:    f8d90000    ....    LDR      r0,[r9,#0]
        0x0800369e:    f4403000    @..0    ORR      r0,r0,#0x20000
        0x080036a2:    f8c90000    ....    STR      r0,[r9,#0]
        0x080036a6:    b9ad        ..      CBNZ     r5,0x80036d4 ; HAL_RCCEx_PeriphCLKConfig + 3116
        0x080036a8:    f8d90028    ..(.    LDR      r0,[r9,#0x28]
        0x080036ac:    f8d41088    ....    LDR      r1,[r4,#0x88]
        0x080036b0:    f4201040     .@.    BIC      r0,r0,#0x300000
        0x080036b4:    4308        .C      ORRS     r0,r0,r1
        0x080036b6:    f8c90028    ..(.    STR      r0,[r9,#0x28]
        0x080036ba:    e00c        ..      B        0x80036d6 ; HAL_RCCEx_PeriphCLKConfig + 3118
        0x080036bc:    2501        .%      MOVS     r5,#1
        0x080036be:    2d00        .-      CMP      r5,#0
        0x080036c0:    d1db        ..      BNE      0x800367a ; HAL_RCCEx_PeriphCLKConfig + 3026
        0x080036c2:    e7c8        ..      B        0x8003656 ; HAL_RCCEx_PeriphCLKConfig + 2990
        0x080036c4:    f1040028    ..(.    ADD      r0,r4,#0x28
        0x080036c8:    2101        .!      MOVS     r1,#1
        0x080036ca:    f002fc5d    ..].    BL       RCCEx_PLL3_Config ; 0x8005f88
        0x080036ce:    4605        .F      MOV      r5,r0
        0x080036d0:    2d00        .-      CMP      r5,#0
        0x080036d2:    d0e9        ..      BEQ      0x80036a8 ; HAL_RCCEx_PeriphCLKConfig + 3072
        0x080036d4:    46a8        .F      MOV      r8,r5
        0x080036d6:    78a0        .x      LDRB     r0,[r4,#2]
        0x080036d8:    07c0        ..      LSLS     r0,r0,#31
        0x080036da:    d02e        ..      BEQ      0x800373a ; HAL_RCCEx_PeriphCLKConfig + 3218
        0x080036dc:    6d20         m      LDR      r0,[r4,#0x50]
        0x080036de:    f4403080    @..0    ORR      r0,r0,#0x10000
        0x080036e2:    f5b03f80    ...?    CMP      r0,#0x10000
        0x080036e6:    d007        ..      BEQ      0x80036f8 ; HAL_RCCEx_PeriphCLKConfig + 3152
        0x080036e8:    f647502d    G.-P    MOV      r0,#0x7d2d
        0x080036ec:    f2405186    @..Q    MOV      r1,#0x586
        0x080036f0:    f6c00000    ....    MOVT     r0,#0x800
        0x080036f4:    f003fce8    ....    BL       assert_failed ; 0x80070c8
        0x080036f8:    6d20         m      LDR      r0,[r4,#0x50]
        0x080036fa:    f5b03f80    ...?    CMP      r0,#0x10000
        0x080036fe:    d010        ..      BEQ      0x8003722 ; HAL_RCCEx_PeriphCLKConfig + 3194
        0x08003700:    b9b8        ..      CBNZ     r0,0x8003732 ; HAL_RCCEx_PeriphCLKConfig + 3210
        0x08003702:    f8d90000    ....    LDR      r0,[r9,#0]
        0x08003706:    f4403000    @..0    ORR      r0,r0,#0x20000
        0x0800370a:    f8c90000    ....    STR      r0,[r9,#0]
        0x0800370e:    b99d        ..      CBNZ     r5,0x8003738 ; HAL_RCCEx_PeriphCLKConfig + 3216
        0x08003710:    f8d90020    .. .    LDR      r0,[r9,#0x20]
        0x08003714:    6d21        !m      LDR      r1,[r4,#0x50]
        0x08003716:    f4203080     ..0    BIC      r0,r0,#0x10000
        0x0800371a:    4308        .C      ORRS     r0,r0,r1
        0x0800371c:    f8c90020    .. .    STR      r0,[r9,#0x20]
        0x08003720:    e00b        ..      B        0x800373a ; HAL_RCCEx_PeriphCLKConfig + 3218
        0x08003722:    f1040008    ....    ADD      r0,r4,#8
        0x08003726:    2102        .!      MOVS     r1,#2
        0x08003728:    f002fb3a    ..:.    BL       RCCEx_PLL2_Config ; 0x8005da0
        0x0800372c:    4605        .F      MOV      r5,r0
        0x0800372e:    b91d        ..      CBNZ     r5,0x8003738 ; HAL_RCCEx_PeriphCLKConfig + 3216
        0x08003730:    e7ee        ..      B        0x8003710 ; HAL_RCCEx_PeriphCLKConfig + 3176
        0x08003732:    2501        .%      MOVS     r5,#1
        0x08003734:    2d00        .-      CMP      r5,#0
        0x08003736:    d0eb        ..      BEQ      0x8003710 ; HAL_RCCEx_PeriphCLKConfig + 3176
        0x08003738:    46a8        .F      MOV      r8,r5
        0x0800373a:    78e0        .x      LDRB     r0,[r4,#3]
        0x0800373c:    0680        ..      LSLS     r0,r0,#26
        0x0800373e:    d508        ..      BPL      0x8003752 ; HAL_RCCEx_PeriphCLKConfig + 3242
        0x08003740:    f1040028    ..(.    ADD      r0,r4,#0x28
        0x08003744:    2102        .!      MOVS     r1,#2
        0x08003746:    f002fc1f    ....    BL       RCCEx_PLL3_Config ; 0x8005f88
        0x0800374a:    2800        .(      CMP      r0,#0
        0x0800374c:    bf18        ..      IT       NE
        0x0800374e:    f04f0801    O...    MOVNE    r8,#1
        0x08003752:    6820         h      LDR      r0,[r4,#0]
        0x08003754:    0381        ..      LSLS     r1,r0,#14
        0x08003756:    d51b        ..      BPL      0x8003790 ; HAL_RCCEx_PeriphCLKConfig + 3304
        0x08003758:    f8d41080    ....    LDR      r1,[r4,#0x80]
        0x0800375c:    f06f0201    o...    MVN      r2,#1
        0x08003760:    eb022231    ..1"    ADD      r2,r2,r1,ROR #8
        0x08003764:    2a02        .*      CMP      r2,#2
        0x08003766:    d30b        ..      BCC      0x8003780 ; HAL_RCCEx_PeriphCLKConfig + 3288
        0x08003768:    ea4f2231    O.1"    ROR      r2,r1,#8
        0x0800376c:    b142        B.      CBZ      r2,0x8003780 ; HAL_RCCEx_PeriphCLKConfig + 3288
        0x0800376e:    2a01        .*      CMP      r2,#1
        0x08003770:    f04080f2    @...    BNE.W    0x8003958 ; HAL_RCCEx_PeriphCLKConfig + 3760
        0x08003774:    f8d92000    ...     LDR      r2,[r9,#0]
        0x08003778:    f4423200    B..2    ORR      r2,r2,#0x20000
        0x0800377c:    f8c92000    ...     STR      r2,[r9,#0]
        0x08003780:    b93d        =.      CBNZ     r5,0x8003792 ; HAL_RCCEx_PeriphCLKConfig + 3306
        0x08003782:    f8d92028    ..(     LDR      r2,[r9,#0x28]
        0x08003786:    f4227240    ".@r    BIC      r2,r2,#0x300
        0x0800378a:    4311        .C      ORRS     r1,r1,r2
        0x0800378c:    f8c91028    ..(.    STR      r1,[r9,#0x28]
        0x08003790:    4645        EF      MOV      r5,r8
        0x08003792:    02c0        ..      LSLS     r0,r0,#11
        0x08003794:    d515        ..      BPL      0x80037c2 ; HAL_RCCEx_PeriphCLKConfig + 3354
        0x08003796:    6f60        `o      LDR      r0,[r4,#0x74]
        0x08003798:    f0404000    @..@    ORR      r0,r0,#0x80000000
        0x0800379c:    f1b04f00    ...O    CMP      r0,#0x80000000
        0x080037a0:    d007        ..      BEQ      0x80037b2 ; HAL_RCCEx_PeriphCLKConfig + 3338
        0x080037a2:    f647502d    G.-P    MOV      r0,#0x7d2d
        0x080037a6:    f24051e5    @..Q    MOV      r1,#0x5e5
        0x080037aa:    f6c00000    ....    MOVT     r0,#0x800
        0x080037ae:    f003fc8b    ....    BL       assert_failed ; 0x80070c8
        0x080037b2:    f8d90024    ..$.    LDR      r0,[r9,#0x24]
        0x080037b6:    6f61        ao      LDR      r1,[r4,#0x74]
        0x080037b8:    f0204000     ..@    BIC      r0,r0,#0x80000000
        0x080037bc:    4308        .C      ORRS     r0,r0,r1
        0x080037be:    f8c90024    ..$.    STR      r0,[r9,#0x24]
        0x080037c2:    78e0        .x      LDRB     r0,[r4,#3]
        0x080037c4:    06c0        ..      LSLS     r0,r0,#27
        0x080037c6:    d517        ..      BPL      0x80037f8 ; HAL_RCCEx_PeriphCLKConfig + 3408
        0x080037c8:    f8d400b8    ....    LDR      r0,[r4,#0xb8]
        0x080037cc:    f4404080    @..@    ORR      r0,r0,#0x4000
        0x080037d0:    f5b04f80    ...O    CMP      r0,#0x4000
        0x080037d4:    d007        ..      BEQ      0x80037e6 ; HAL_RCCEx_PeriphCLKConfig + 3390
        0x080037d6:    f647502d    G.-P    MOV      r0,#0x7d2d
        0x080037da:    f24051ef    @..Q    MOV      r1,#0x5ef
        0x080037de:    f6c00000    ....    MOVT     r0,#0x800
        0x080037e2:    f003fc71    ..q.    BL       assert_failed ; 0x80070c8
        0x080037e6:    f8590c1c    Y...    LDR      r0,[r9,#-0x1c]
        0x080037ea:    f8d410b8    ....    LDR      r1,[r4,#0xb8]
        0x080037ee:    f4204080     ..@    BIC      r0,r0,#0x4000
        0x080037f2:    4308        .C      ORRS     r0,r0,r1
        0x080037f4:    f8490c1c    I...    STR      r0,[r9,#-0x1c]
        0x080037f8:    78a0        .x      LDRB     r0,[r4,#2]
        0x080037fa:    0680        ..      LSLS     r0,r0,#26
        0x080037fc:    d515        ..      BPL      0x800382a ; HAL_RCCEx_PeriphCLKConfig + 3458
        0x080037fe:    6ee0        .n      LDR      r0,[r4,#0x6c]
        0x08003800:    f0407080    @..p    ORR      r0,r0,#0x1000000
        0x08003804:    f1b07f80    ....    CMP      r0,#0x1000000
        0x08003808:    d007        ..      BEQ      0x800381a ; HAL_RCCEx_PeriphCLKConfig + 3442
        0x0800380a:    f647502d    G.-P    MOV      r0,#0x7d2d
        0x0800380e:    f24051f9    @..Q    MOV      r1,#0x5f9
        0x08003812:    f6c00000    ....    MOVT     r0,#0x800
        0x08003816:    f003fc57    ..W.    BL       assert_failed ; 0x80070c8
        0x0800381a:    f8d90024    ..$.    LDR      r0,[r9,#0x24]
        0x0800381e:    6ee1        .n      LDR      r1,[r4,#0x6c]
        0x08003820:    f0207080     ..p    BIC      r0,r0,#0x1000000
        0x08003824:    4308        .C      ORRS     r0,r0,r1
        0x08003826:    f8c90024    ..$.    STR      r0,[r9,#0x24]
        0x0800382a:    78e0        .x      LDRB     r0,[r4,#3]
        0x0800382c:    0640        @.      LSLS     r0,r0,#25
        0x0800382e:    d51b        ..      BPL      0x8003868 ; HAL_RCCEx_PeriphCLKConfig + 3520
        0x08003830:    f8d400bc    ....    LDR      r0,[r4,#0xbc]
        0x08003834:    f4404000    @..@    ORR      r0,r0,#0x8000
        0x08003838:    f5b04f00    ...O    CMP      r0,#0x8000
        0x0800383c:    d007        ..      BEQ      0x800384e ; HAL_RCCEx_PeriphCLKConfig + 3494
        0x0800383e:    f647502d    G.-P    MOV      r0,#0x7d2d
        0x08003842:    f240610f    @..a    MOV      r1,#0x60f
        0x08003846:    f6c00000    ....    MOVT     r0,#0x800
        0x0800384a:    f003fc3d    ..=.    BL       assert_failed ; 0x80070c8
        0x0800384e:    f8590c1c    Y...    LDR      r0,[r9,#-0x1c]
        0x08003852:    f4204000     ..@    BIC      r0,r0,#0x8000
        0x08003856:    f8490c1c    I...    STR      r0,[r9,#-0x1c]
        0x0800385a:    f8d400bc    ....    LDR      r0,[r4,#0xbc]
        0x0800385e:    f8591c1c    Y...    LDR      r1,[r9,#-0x1c]
        0x08003862:    4308        .C      ORRS     r0,r0,r1
        0x08003864:    f8490c1c    I...    STR      r0,[r9,#-0x1c]
        0x08003868:    6820         h      LDR      r0,[r4,#0]
        0x0800386a:    f1b03fff    ...?    CMP      r0,#0xffffffff
        0x0800386e:    dc10        ..      BGT      0x8003892 ; HAL_RCCEx_PeriphCLKConfig + 3562
        0x08003870:    6d60        `m      LDR      r0,[r4,#0x54]
        0x08003872:    b130        0.      CBZ      r0,0x8003882 ; HAL_RCCEx_PeriphCLKConfig + 3546
        0x08003874:    f1b05f80    ..._    CMP      r0,#0x10000000
        0x08003878:    bf18        ..      IT       NE
        0x0800387a:    f1b05f00    ..._    CMPNE    r0,#0x20000000
        0x0800387e:    f0408095    @...    BNE.W    0x80039ac ; HAL_RCCEx_PeriphCLKConfig + 3844
        0x08003882:    f8d90020    .. .    LDR      r0,[r9,#0x20]
        0x08003886:    6d61        am      LDR      r1,[r4,#0x54]
        0x08003888:    f0205040     .@P    BIC      r0,r0,#0x30000000
        0x0800388c:    4308        .C      ORRS     r0,r0,r1
        0x0800388e:    f8c90020    .. .    STR      r0,[r9,#0x20]
        0x08003892:    78a0        .x      LDRB     r0,[r4,#2]
        0x08003894:    0600        ..      LSLS     r0,r0,#24
        0x08003896:    d511        ..      BPL      0x80038bc ; HAL_RCCEx_PeriphCLKConfig + 3604
        0x08003898:    f8d4008c    ....    LDR      r0,[r4,#0x8c]
        0x0800389c:    b128        (.      CBZ      r0,0x80038aa ; HAL_RCCEx_PeriphCLKConfig + 3586
        0x0800389e:    f5b00f80    ....    CMP      r0,#0x400000
        0x080038a2:    bf18        ..      IT       NE
        0x080038a4:    f5b00f00    ....    CMPNE    r0,#0x800000
        0x080038a8:    d15b        [.      BNE      0x8003962 ; HAL_RCCEx_PeriphCLKConfig + 3770
        0x080038aa:    f8d90028    ..(.    LDR      r0,[r9,#0x28]
        0x080038ae:    f8d4108c    ....    LDR      r1,[r4,#0x8c]
        0x080038b2:    f4200040     .@.    BIC      r0,r0,#0xc00000
        0x080038b6:    4308        .C      ORRS     r0,r0,r1
        0x080038b8:    f8c90028    ..(.    STR      r0,[r9,#0x28]
        0x080038bc:    7920         y      LDRB     r0,[r4,#4]
        0x080038be:    07c0        ..      LSLS     r0,r0,#31
        0x080038c0:    d007        ..      BEQ      0x80038d2 ; HAL_RCCEx_PeriphCLKConfig + 3626
        0x080038c2:    f1040008    ....    ADD      r0,r4,#8
        0x080038c6:    2100        .!      MOVS     r1,#0
        0x080038c8:    f002fa6a    ..j.    BL       RCCEx_PLL2_Config ; 0x8005da0
        0x080038cc:    2800        .(      CMP      r0,#0
        0x080038ce:    bf18        ..      IT       NE
        0x080038d0:    4605        .F      MOVNE    r5,r0
        0x080038d2:    7920         y      LDRB     r0,[r4,#4]
        0x080038d4:    0780        ..      LSLS     r0,r0,#30
        0x080038d6:    d507        ..      BPL      0x80038e8 ; HAL_RCCEx_PeriphCLKConfig + 3648
        0x080038d8:    f1040008    ....    ADD      r0,r4,#8
        0x080038dc:    2101        .!      MOVS     r1,#1
        0x080038de:    f002fa5f    .._.    BL       RCCEx_PLL2_Config ; 0x8005da0
        0x080038e2:    2800        .(      CMP      r0,#0
        0x080038e4:    bf18        ..      IT       NE
        0x080038e6:    4605        .F      MOVNE    r5,r0
        0x080038e8:    7920         y      LDRB     r0,[r4,#4]
        0x080038ea:    0740        @.      LSLS     r0,r0,#29
        0x080038ec:    d507        ..      BPL      0x80038fe ; HAL_RCCEx_PeriphCLKConfig + 3670
        0x080038ee:    f1040008    ....    ADD      r0,r4,#8
        0x080038f2:    2102        .!      MOVS     r1,#2
        0x080038f4:    f002fa54    ..T.    BL       RCCEx_PLL2_Config ; 0x8005da0
        0x080038f8:    2800        .(      CMP      r0,#0
        0x080038fa:    bf18        ..      IT       NE
        0x080038fc:    4605        .F      MOVNE    r5,r0
        0x080038fe:    7920         y      LDRB     r0,[r4,#4]
        0x08003900:    0700        ..      LSLS     r0,r0,#28
        0x08003902:    d507        ..      BPL      0x8003914 ; HAL_RCCEx_PeriphCLKConfig + 3692
        0x08003904:    f1040028    ..(.    ADD      r0,r4,#0x28
        0x08003908:    2100        .!      MOVS     r1,#0
        0x0800390a:    f002fb3d    ..=.    BL       RCCEx_PLL3_Config ; 0x8005f88
        0x0800390e:    2800        .(      CMP      r0,#0
        0x08003910:    bf18        ..      IT       NE
        0x08003912:    4605        .F      MOVNE    r5,r0
        0x08003914:    7920         y      LDRB     r0,[r4,#4]
        0x08003916:    06c0        ..      LSLS     r0,r0,#27
        0x08003918:    d507        ..      BPL      0x800392a ; HAL_RCCEx_PeriphCLKConfig + 3714
        0x0800391a:    f1040028    ..(.    ADD      r0,r4,#0x28
        0x0800391e:    2101        .!      MOVS     r1,#1
        0x08003920:    f002fb32    ..2.    BL       RCCEx_PLL3_Config ; 0x8005f88
        0x08003924:    2800        .(      CMP      r0,#0
        0x08003926:    bf18        ..      IT       NE
        0x08003928:    4605        .F      MOVNE    r5,r0
        0x0800392a:    7920         y      LDRB     r0,[r4,#4]
        0x0800392c:    0680        ..      LSLS     r0,r0,#26
        0x0800392e:    d507        ..      BPL      0x8003940 ; HAL_RCCEx_PeriphCLKConfig + 3736
        0x08003930:    f1040028    ..(.    ADD      r0,r4,#0x28
        0x08003934:    2102        .!      MOVS     r1,#2
        0x08003936:    f002fb27    ..'.    BL       RCCEx_PLL3_Config ; 0x8005f88
        0x0800393a:    2800        .(      CMP      r0,#0
        0x0800393c:    bf18        ..      IT       NE
        0x0800393e:    2501        .%      MOVNE    r5,#1
        0x08003940:    2d00        .-      CMP      r5,#0
        0x08003942:    bf18        ..      IT       NE
        0x08003944:    2501        .%      MOVNE    r5,#1
        0x08003946:    4628        (F      MOV      r0,r5
        0x08003948:    b001        ..      ADD      sp,sp,#4
        0x0800394a:    e8bd83f0    ....    POP      {r4-r9,pc}
        0x0800394e:    2501        .%      MOVS     r5,#1
        0x08003950:    2d00        .-      CMP      r5,#0
        0x08003952:    f47faebf    ....    BNE      0x80036d4 ; HAL_RCCEx_PeriphCLKConfig + 3116
        0x08003956:    e6a7        ..      B        0x80036a8 ; HAL_RCCEx_PeriphCLKConfig + 3072
        0x08003958:    2501        .%      MOVS     r5,#1
        0x0800395a:    2d00        .-      CMP      r5,#0
        0x0800395c:    f47faf19    ....    BNE      0x8003792 ; HAL_RCCEx_PeriphCLKConfig + 3306
        0x08003960:    e70f        ..      B        0x8003782 ; HAL_RCCEx_PeriphCLKConfig + 3290
        0x08003962:    f647502d    G.-P    MOV      r0,#0x7d2d
        0x08003966:    f2406123    @.#a    MOV      r1,#0x623
        0x0800396a:    f6c00000    ....    MOVT     r0,#0x800
        0x0800396e:    f003fbab    ....    BL       assert_failed ; 0x80070c8
        0x08003972:    e79a        ..      B        0x80038aa ; HAL_RCCEx_PeriphCLKConfig + 3586
        0x08003974:    f64f73cf    O..s    MOV      r3,#0xffcf
        0x08003978:    f8d400b4    ....    LDR      r0,[r4,#0xb4]
        0x0800397c:    f8592c1c    Y..,    LDR      r2,[r9,#-0x1c]
        0x08003980:    f2c003ff    ....    MOVT     r3,#0xff
        0x08003984:    f4007140    ..@q    AND      r1,r0,#0x300
        0x08003988:    f422527c    ".|R    BIC      r2,r2,#0x3f00
        0x0800398c:    ea031310    ....    AND      r3,r3,r0,LSR #4
        0x08003990:    f5b17f40    ..@.    CMP      r1,#0x300
        0x08003994:    bf08        ..      IT       EQ
        0x08003996:    431a        .C      ORREQ    r2,r2,r3
        0x08003998:    f36f301f    o..0    BFC      r0,#12,#20
        0x0800399c:    f8492c1c    I..,    STR      r2,[r9,#-0x1c]
        0x080039a0:    f8d91044    ..D.    LDR      r1,[r9,#0x44]
        0x080039a4:    4308        .C      ORRS     r0,r0,r1
        0x080039a6:    f8c90044    ..D.    STR      r0,[r9,#0x44]
        0x080039aa:    e4f1        ..      B        0x8003390 ; HAL_RCCEx_PeriphCLKConfig + 2280
        0x080039ac:    f647502d    G.-P    MOV      r0,#0x7d2d
        0x080039b0:    f2406119    @..a    MOV      r1,#0x619
        0x080039b4:    f6c00000    ....    MOVT     r0,#0x800
        0x080039b8:    f003fb86    ....    BL       assert_failed ; 0x80070c8
        0x080039bc:    e761        a.      B        0x8003882 ; HAL_RCCEx_PeriphCLKConfig + 3546
        0x080039be:    f647502d    G.-P    MOV      r0,#0x7d2d
        0x080039c2:    f240317d    @.}1    MOV      r1,#0x37d
        0x080039c6:    f6c00000    ....    MOVT     r0,#0x800
        0x080039ca:    f003fb7d    ..}.    BL       assert_failed ; 0x80070c8
        0x080039ce:    f7ffbc99    ....    B.W      0x8003304 ; HAL_RCCEx_PeriphCLKConfig + 2140
        0x080039d2:    0000        ..      MOVS     r0,r0
        0x080039d4:    0000        ..      MOVS     r0,r0
        0x080039d6:    0000        ..      MOVS     r0,r0
    HAL_RCC_ClockConfig
        0x080039d8:    e92d43f0    -..C    PUSH     {r4-r9,lr}
        0x080039dc:    b081        ..      SUB      sp,sp,#4
        0x080039de:    2800        .(      CMP      r0,#0
        0x080039e0:    f00081e3    ....    BEQ.W    0x8003daa ; HAL_RCC_ClockConfig + 978
        0x080039e4:    4604        .F      MOV      r4,r0
        0x080039e6:    6800        .h      LDR      r0,[r0,#0]
        0x080039e8:    3801        .8      SUBS     r0,#1
        0x080039ea:    460d        .F      MOV      r5,r1
        0x080039ec:    283f        ?(      CMP      r0,#0x3f
        0x080039ee:    d307        ..      BCC      0x8003a00 ; HAL_RCC_ClockConfig + 40
        0x080039f0:    f64740f5    G..@    MOV      r0,#0x7cf5
        0x080039f4:    f24031a7    @..1    MOV      r1,#0x3a7
        0x080039f8:    f6c00000    ....    MOVT     r0,#0x800
        0x080039fc:    f003fb64    ..d.    BL       assert_failed ; 0x80070c8
        0x08003a00:    2d10        .-      CMP      r5,#0x10
        0x08003a02:    d307        ..      BCC      0x8003a14 ; HAL_RCC_ClockConfig + 60
        0x08003a04:    f64740f5    G..@    MOV      r0,#0x7cf5
        0x08003a08:    f44f716a    O.jq    MOV      r1,#0x3a8
        0x08003a0c:    f6c00000    ....    MOVT     r0,#0x800
        0x08003a10:    f003fb5a    ..Z.    BL       assert_failed ; 0x80070c8
        0x08003a14:    f2420800    B...    MOVW     r8,#0x2000
        0x08003a18:    f2c52800    ...(    MOVT     r8,#0x5200
        0x08003a1c:    f8d80000    ....    LDR      r0,[r8,#0]
        0x08003a20:    f000000f    ....    AND      r0,r0,#0xf
        0x08003a24:    42a8        .B      CMP      r0,r5
        0x08003a26:    d20d        ..      BCS      0x8003a44 ; HAL_RCC_ClockConfig + 108
        0x08003a28:    f8d80000    ....    LDR      r0,[r8,#0]
        0x08003a2c:    f020000f     ...    BIC      r0,r0,#0xf
        0x08003a30:    4328        (C      ORRS     r0,r0,r5
        0x08003a32:    f8c80000    ....    STR      r0,[r8,#0]
        0x08003a36:    f8d80000    ....    LDR      r0,[r8,#0]
        0x08003a3a:    f000000f    ....    AND      r0,r0,#0xf
        0x08003a3e:    42a8        .B      CMP      r0,r5
        0x08003a40:    f04081b3    @...    BNE.W    0x8003daa ; HAL_RCC_ClockConfig + 978
        0x08003a44:    7820         x      LDRB     r0,[r4,#0]
        0x08003a46:    f2444918    D..I    MOV      r9,#0x4418
        0x08003a4a:    f6c50902    ....    MOVT     r9,#0x5802
        0x08003a4e:    0740        @.      LSLS     r0,r0,#29
        0x08003a50:    d51f        ..      BPL      0x8003a92 ; HAL_RCC_ClockConfig + 186
        0x08003a52:    6920         i      LDR      r0,[r4,#0x10]
        0x08003a54:    f8d91000    ....    LDR      r1,[r9,#0]
        0x08003a58:    f0010170    ..p.    AND      r1,r1,#0x70
        0x08003a5c:    4288        .B      CMP      r0,r1
        0x08003a5e:    d918        ..      BLS      0x8003a92 ; HAL_RCC_ClockConfig + 186
        0x08003a60:    f06f0103    o...    MVN      r1,#3
        0x08003a64:    eb011130    ..0.    ADD      r1,r1,r0,ROR #4
        0x08003a68:    2904        .)      CMP      r1,#4
        0x08003a6a:    d30a        ..      BCC      0x8003a82 ; HAL_RCC_ClockConfig + 170
        0x08003a6c:    ea4f1030    O.0.    ROR      r0,r0,#4
        0x08003a70:    b138        8.      CBZ      r0,0x8003a82 ; HAL_RCC_ClockConfig + 170
        0x08003a72:    f64740f5    G..@    MOV      r0,#0x7cf5
        0x08003a76:    f44f7171    O.qq    MOV      r1,#0x3c4
        0x08003a7a:    f6c00000    ....    MOVT     r0,#0x800
        0x08003a7e:    f003fb23    ..#.    BL       assert_failed ; 0x80070c8
        0x08003a82:    f8d90000    ....    LDR      r0,[r9,#0]
        0x08003a86:    6921        !i      LDR      r1,[r4,#0x10]
        0x08003a88:    f0200070     .p.    BIC      r0,r0,#0x70
        0x08003a8c:    4308        .C      ORRS     r0,r0,r1
        0x08003a8e:    f8c90000    ....    STR      r0,[r9,#0]
        0x08003a92:    7820         x      LDRB     r0,[r4,#0]
        0x08003a94:    0700        ..      LSLS     r0,r0,#28
        0x08003a96:    d51f        ..      BPL      0x8003ad8 ; HAL_RCC_ClockConfig + 256
        0x08003a98:    6960        `i      LDR      r0,[r4,#0x14]
        0x08003a9a:    f8d91004    ....    LDR      r1,[r9,#4]
        0x08003a9e:    f0010170    ..p.    AND      r1,r1,#0x70
        0x08003aa2:    4288        .B      CMP      r0,r1
        0x08003aa4:    d918        ..      BLS      0x8003ad8 ; HAL_RCC_ClockConfig + 256
        0x08003aa6:    f06f0103    o...    MVN      r1,#3
        0x08003aaa:    eb011130    ..0.    ADD      r1,r1,r0,ROR #4
        0x08003aae:    2904        .)      CMP      r1,#4
        0x08003ab0:    d30a        ..      BCC      0x8003ac8 ; HAL_RCC_ClockConfig + 240
        0x08003ab2:    ea4f1030    O.0.    ROR      r0,r0,#4
        0x08003ab6:    b138        8.      CBZ      r0,0x8003ac8 ; HAL_RCC_ClockConfig + 240
        0x08003ab8:    f64740f5    G..@    MOV      r0,#0x7cf5
        0x08003abc:    f24031d6    @..1    MOV      r1,#0x3d6
        0x08003ac0:    f6c00000    ....    MOVT     r0,#0x800
        0x08003ac4:    f003fb00    ....    BL       assert_failed ; 0x80070c8
        0x08003ac8:    f8d90004    ....    LDR      r0,[r9,#4]
        0x08003acc:    6961        ai      LDR      r1,[r4,#0x14]
        0x08003ace:    f0200070     .p.    BIC      r0,r0,#0x70
        0x08003ad2:    4308        .C      ORRS     r0,r0,r1
        0x08003ad4:    f8c90004    ....    STR      r0,[r9,#4]
        0x08003ad8:    7820         x      LDRB     r0,[r4,#0]
        0x08003ada:    06c0        ..      LSLS     r0,r0,#27
        0x08003adc:    d51f        ..      BPL      0x8003b1e ; HAL_RCC_ClockConfig + 326
        0x08003ade:    69a0        .i      LDR      r0,[r4,#0x18]
        0x08003ae0:    f8d91004    ....    LDR      r1,[r9,#4]
        0x08003ae4:    f40161e0    ...a    AND      r1,r1,#0x700
        0x08003ae8:    4288        .B      CMP      r0,r1
        0x08003aea:    d918        ..      BLS      0x8003b1e ; HAL_RCC_ClockConfig + 326
        0x08003aec:    f06f0103    o...    MVN      r1,#3
        0x08003af0:    eb012130    ..0!    ADD      r1,r1,r0,ROR #8
        0x08003af4:    2904        .)      CMP      r1,#4
        0x08003af6:    d30a        ..      BCC      0x8003b0e ; HAL_RCC_ClockConfig + 310
        0x08003af8:    ea4f2030    O.0     ROR      r0,r0,#8
        0x08003afc:    b138        8.      CBZ      r0,0x8003b0e ; HAL_RCC_ClockConfig + 310
        0x08003afe:    f64740f5    G..@    MOV      r0,#0x7cf5
        0x08003b02:    f24031e7    @..1    MOV      r1,#0x3e7
        0x08003b06:    f6c00000    ....    MOVT     r0,#0x800
        0x08003b0a:    f003fadd    ....    BL       assert_failed ; 0x80070c8
        0x08003b0e:    f8d90004    ....    LDR      r0,[r9,#4]
        0x08003b12:    69a1        .i      LDR      r1,[r4,#0x18]
        0x08003b14:    f42060e0     ..`    BIC      r0,r0,#0x700
        0x08003b18:    4308        .C      ORRS     r0,r0,r1
        0x08003b1a:    f8c90004    ....    STR      r0,[r9,#4]
        0x08003b1e:    7820         x      LDRB     r0,[r4,#0]
        0x08003b20:    0680        ..      LSLS     r0,r0,#26
        0x08003b22:    d51f        ..      BPL      0x8003b64 ; HAL_RCC_ClockConfig + 396
        0x08003b24:    69e0        .i      LDR      r0,[r4,#0x1c]
        0x08003b26:    f8d91008    ....    LDR      r1,[r9,#8]
        0x08003b2a:    f0010170    ..p.    AND      r1,r1,#0x70
        0x08003b2e:    4288        .B      CMP      r0,r1
        0x08003b30:    d918        ..      BLS      0x8003b64 ; HAL_RCC_ClockConfig + 396
        0x08003b32:    f06f0103    o...    MVN      r1,#3
        0x08003b36:    eb011130    ..0.    ADD      r1,r1,r0,ROR #4
        0x08003b3a:    2904        .)      CMP      r1,#4
        0x08003b3c:    d30a        ..      BCC      0x8003b54 ; HAL_RCC_ClockConfig + 380
        0x08003b3e:    ea4f1030    O.0.    ROR      r0,r0,#4
        0x08003b42:    b138        8.      CBZ      r0,0x8003b54 ; HAL_RCC_ClockConfig + 380
        0x08003b44:    f64740f5    G..@    MOV      r0,#0x7cf5
        0x08003b48:    f24031f9    @..1    MOV      r1,#0x3f9
        0x08003b4c:    f6c00000    ....    MOVT     r0,#0x800
        0x08003b50:    f003faba    ....    BL       assert_failed ; 0x80070c8
        0x08003b54:    f8d90008    ....    LDR      r0,[r9,#8]
        0x08003b58:    69e1        .i      LDR      r1,[r4,#0x1c]
        0x08003b5a:    f0200070     .p.    BIC      r0,r0,#0x70
        0x08003b5e:    4308        .C      ORRS     r0,r0,r1
        0x08003b60:    f8c90008    ....    STR      r0,[r9,#8]
        0x08003b64:    7820         x      LDRB     r0,[r4,#0]
        0x08003b66:    0780        ..      LSLS     r0,r0,#30
        0x08003b68:    d513        ..      BPL      0x8003b92 ; HAL_RCC_ClockConfig + 442
        0x08003b6a:    68e0        .h      LDR      r0,[r4,#0xc]
        0x08003b6c:    f8d91000    ....    LDR      r1,[r9,#0]
        0x08003b70:    f001010f    ....    AND      r1,r1,#0xf
        0x08003b74:    4288        .B      CMP      r0,r1
        0x08003b76:    d90c        ..      BLS      0x8003b92 ; HAL_RCC_ClockConfig + 442
        0x08003b78:    f1a00108    ....    SUB      r1,r0,#8
        0x08003b7c:    2908        .)      CMP      r1,#8
        0x08003b7e:    f0808152    ..R.    BCS.W    0x8003e26 ; HAL_RCC_ClockConfig + 1102
        0x08003b82:    f8d90000    ....    LDR      r0,[r9,#0]
        0x08003b86:    68e1        .h      LDR      r1,[r4,#0xc]
        0x08003b88:    f020000f     ...    BIC      r0,r0,#0xf
        0x08003b8c:    4308        .C      ORRS     r0,r0,r1
        0x08003b8e:    f8c90000    ....    STR      r0,[r9,#0]
        0x08003b92:    7820         x      LDRB     r0,[r4,#0]
        0x08003b94:    07c0        ..      LSLS     r0,r0,#31
        0x08003b96:    f04080e2    @...    BNE.W    0x8003d5e ; HAL_RCC_ClockConfig + 902
        0x08003b9a:    7820         x      LDRB     r0,[r4,#0]
        0x08003b9c:    0780        ..      LSLS     r0,r0,#30
        0x08003b9e:    d513        ..      BPL      0x8003bc8 ; HAL_RCC_ClockConfig + 496
        0x08003ba0:    68e0        .h      LDR      r0,[r4,#0xc]
        0x08003ba2:    f8d91000    ....    LDR      r1,[r9,#0]
        0x08003ba6:    f001010f    ....    AND      r1,r1,#0xf
        0x08003baa:    4288        .B      CMP      r0,r1
        0x08003bac:    d20c        ..      BCS      0x8003bc8 ; HAL_RCC_ClockConfig + 496
        0x08003bae:    f1a00108    ....    SUB      r1,r0,#8
        0x08003bb2:    2908        .)      CMP      r1,#8
        0x08003bb4:    f0808143    ..C.    BCS.W    0x8003e3e ; HAL_RCC_ClockConfig + 1126
        0x08003bb8:    f8d90000    ....    LDR      r0,[r9,#0]
        0x08003bbc:    68e1        .h      LDR      r1,[r4,#0xc]
        0x08003bbe:    f020000f     ...    BIC      r0,r0,#0xf
        0x08003bc2:    4308        .C      ORRS     r0,r0,r1
        0x08003bc4:    f8c90000    ....    STR      r0,[r9,#0]
        0x08003bc8:    f8d80000    ....    LDR      r0,[r8,#0]
        0x08003bcc:    f000000f    ....    AND      r0,r0,#0xf
        0x08003bd0:    42a8        .B      CMP      r0,r5
        0x08003bd2:    d90d        ..      BLS      0x8003bf0 ; HAL_RCC_ClockConfig + 536
        0x08003bd4:    f8d80000    ....    LDR      r0,[r8,#0]
        0x08003bd8:    f020000f     ...    BIC      r0,r0,#0xf
        0x08003bdc:    4328        (C      ORRS     r0,r0,r5
        0x08003bde:    f8c80000    ....    STR      r0,[r8,#0]
        0x08003be2:    f8d80000    ....    LDR      r0,[r8,#0]
        0x08003be6:    f000000f    ....    AND      r0,r0,#0xf
        0x08003bea:    42a8        .B      CMP      r0,r5
        0x08003bec:    f04080dd    @...    BNE.W    0x8003daa ; HAL_RCC_ClockConfig + 978
        0x08003bf0:    7820         x      LDRB     r0,[r4,#0]
        0x08003bf2:    0740        @.      LSLS     r0,r0,#29
        0x08003bf4:    d51f        ..      BPL      0x8003c36 ; HAL_RCC_ClockConfig + 606
        0x08003bf6:    6920         i      LDR      r0,[r4,#0x10]
        0x08003bf8:    f8d91000    ....    LDR      r1,[r9,#0]
        0x08003bfc:    f0010170    ..p.    AND      r1,r1,#0x70
        0x08003c00:    4288        .B      CMP      r0,r1
        0x08003c02:    d218        ..      BCS      0x8003c36 ; HAL_RCC_ClockConfig + 606
        0x08003c04:    f06f0103    o...    MVN      r1,#3
        0x08003c08:    eb011130    ..0.    ADD      r1,r1,r0,ROR #4
        0x08003c0c:    2904        .)      CMP      r1,#4
        0x08003c0e:    d30a        ..      BCC      0x8003c26 ; HAL_RCC_ClockConfig + 590
        0x08003c10:    ea4f1030    O.0.    ROR      r0,r0,#4
        0x08003c14:    b138        8.      CBZ      r0,0x8003c26 ; HAL_RCC_ClockConfig + 590
        0x08003c16:    f64740f5    G..@    MOV      r0,#0x7cf5
        0x08003c1a:    f240417f    @..A    MOV      r1,#0x47f
        0x08003c1e:    f6c00000    ....    MOVT     r0,#0x800
        0x08003c22:    f003fa51    ..Q.    BL       assert_failed ; 0x80070c8
        0x08003c26:    f8d90000    ....    LDR      r0,[r9,#0]
        0x08003c2a:    6921        !i      LDR      r1,[r4,#0x10]
        0x08003c2c:    f0200070     .p.    BIC      r0,r0,#0x70
        0x08003c30:    4308        .C      ORRS     r0,r0,r1
        0x08003c32:    f8c90000    ....    STR      r0,[r9,#0]
        0x08003c36:    7820         x      LDRB     r0,[r4,#0]
        0x08003c38:    0700        ..      LSLS     r0,r0,#28
        0x08003c3a:    d51f        ..      BPL      0x8003c7c ; HAL_RCC_ClockConfig + 676
        0x08003c3c:    6960        `i      LDR      r0,[r4,#0x14]
        0x08003c3e:    f8d91004    ....    LDR      r1,[r9,#4]
        0x08003c42:    f0010170    ..p.    AND      r1,r1,#0x70
        0x08003c46:    4288        .B      CMP      r0,r1
        0x08003c48:    d218        ..      BCS      0x8003c7c ; HAL_RCC_ClockConfig + 676
        0x08003c4a:    f06f0103    o...    MVN      r1,#3
        0x08003c4e:    eb011130    ..0.    ADD      r1,r1,r0,ROR #4
        0x08003c52:    2904        .)      CMP      r1,#4
        0x08003c54:    d30a        ..      BCC      0x8003c6c ; HAL_RCC_ClockConfig + 660
        0x08003c56:    ea4f1030    O.0.    ROR      r0,r0,#4
        0x08003c5a:    b138        8.      CBZ      r0,0x8003c6c ; HAL_RCC_ClockConfig + 660
        0x08003c5c:    f64740f5    G..@    MOV      r0,#0x7cf5
        0x08003c60:    f2404191    @..A    MOV      r1,#0x491
        0x08003c64:    f6c00000    ....    MOVT     r0,#0x800
        0x08003c68:    f003fa2e    ....    BL       assert_failed ; 0x80070c8
        0x08003c6c:    f8d90004    ....    LDR      r0,[r9,#4]
        0x08003c70:    6961        ai      LDR      r1,[r4,#0x14]
        0x08003c72:    f0200070     .p.    BIC      r0,r0,#0x70
        0x08003c76:    4308        .C      ORRS     r0,r0,r1
        0x08003c78:    f8c90004    ....    STR      r0,[r9,#4]
        0x08003c7c:    7820         x      LDRB     r0,[r4,#0]
        0x08003c7e:    06c0        ..      LSLS     r0,r0,#27
        0x08003c80:    d51f        ..      BPL      0x8003cc2 ; HAL_RCC_ClockConfig + 746
        0x08003c82:    69a0        .i      LDR      r0,[r4,#0x18]
        0x08003c84:    f8d91004    ....    LDR      r1,[r9,#4]
        0x08003c88:    f40161e0    ...a    AND      r1,r1,#0x700
        0x08003c8c:    4288        .B      CMP      r0,r1
        0x08003c8e:    d218        ..      BCS      0x8003cc2 ; HAL_RCC_ClockConfig + 746
        0x08003c90:    f06f0103    o...    MVN      r1,#3
        0x08003c94:    eb012130    ..0!    ADD      r1,r1,r0,ROR #8
        0x08003c98:    2904        .)      CMP      r1,#4
        0x08003c9a:    d30a        ..      BCC      0x8003cb2 ; HAL_RCC_ClockConfig + 730
        0x08003c9c:    ea4f2030    O.0     ROR      r0,r0,#8
        0x08003ca0:    b138        8.      CBZ      r0,0x8003cb2 ; HAL_RCC_ClockConfig + 730
        0x08003ca2:    f64740f5    G..@    MOV      r0,#0x7cf5
        0x08003ca6:    f24041a3    @..A    MOV      r1,#0x4a3
        0x08003caa:    f6c00000    ....    MOVT     r0,#0x800
        0x08003cae:    f003fa0b    ....    BL       assert_failed ; 0x80070c8
        0x08003cb2:    f8d90004    ....    LDR      r0,[r9,#4]
        0x08003cb6:    69a1        .i      LDR      r1,[r4,#0x18]
        0x08003cb8:    f42060e0     ..`    BIC      r0,r0,#0x700
        0x08003cbc:    4308        .C      ORRS     r0,r0,r1
        0x08003cbe:    f8c90004    ....    STR      r0,[r9,#4]
        0x08003cc2:    7820         x      LDRB     r0,[r4,#0]
        0x08003cc4:    0680        ..      LSLS     r0,r0,#26
        0x08003cc6:    d51f        ..      BPL      0x8003d08 ; HAL_RCC_ClockConfig + 816
        0x08003cc8:    69e0        .i      LDR      r0,[r4,#0x1c]
        0x08003cca:    f8d91008    ....    LDR      r1,[r9,#8]
        0x08003cce:    f0010170    ..p.    AND      r1,r1,#0x70
        0x08003cd2:    4288        .B      CMP      r0,r1
        0x08003cd4:    d218        ..      BCS      0x8003d08 ; HAL_RCC_ClockConfig + 816
        0x08003cd6:    f06f0103    o...    MVN      r1,#3
        0x08003cda:    eb011130    ..0.    ADD      r1,r1,r0,ROR #4
        0x08003cde:    2904        .)      CMP      r1,#4
        0x08003ce0:    d30a        ..      BCC      0x8003cf8 ; HAL_RCC_ClockConfig + 800
        0x08003ce2:    ea4f1030    O.0.    ROR      r0,r0,#4
        0x08003ce6:    b138        8.      CBZ      r0,0x8003cf8 ; HAL_RCC_ClockConfig + 800
        0x08003ce8:    f64740f5    G..@    MOV      r0,#0x7cf5
        0x08003cec:    f24041b5    @..A    MOV      r1,#0x4b5
        0x08003cf0:    f6c00000    ....    MOVT     r0,#0x800
        0x08003cf4:    f003f9e8    ....    BL       assert_failed ; 0x80070c8
        0x08003cf8:    f8d90008    ....    LDR      r0,[r9,#8]
        0x08003cfc:    69e1        .i      LDR      r1,[r4,#0x1c]
        0x08003cfe:    f0200070     .p.    BIC      r0,r0,#0x70
        0x08003d02:    4308        .C      ORRS     r0,r0,r1
        0x08003d04:    f8c90008    ....    STR      r0,[r9,#8]
        0x08003d08:    f000f8f6    ....    BL       HAL_RCC_GetSysClockFreq ; 0x8003ef8
        0x08003d0c:    f8d91000    ....    LDR      r1,[r9,#0]
        0x08003d10:    f647420e    G..B    MOV      r2,#0x7c0e
        0x08003d14:    f6c00200    ....    MOVT     r2,#0x800
        0x08003d18:    f8d93000    ...0    LDR      r3,[r9,#0]
        0x08003d1c:    f3c12103    ...!    UBFX     r1,r1,#8,#4
        0x08003d20:    f003030f    ....    AND      r3,r3,#0xf
        0x08003d24:    5c51        Q\      LDRB     r1,[r2,r1]
        0x08003d26:    5cd2        .\      LDRB     r2,[r2,r3]
        0x08003d28:    f001011f    ....    AND      r1,r1,#0x1f
        0x08003d2c:    40c8        .@      LSRS     r0,r0,r1
        0x08003d2e:    f002011f    ....    AND      r1,r2,#0x1f
        0x08003d32:    f2400204    @...    MOVW     r2,#4
        0x08003d36:    fa20f101     ...    LSR      r1,r0,r1
        0x08003d3a:    f2c24200    ...B    MOVT     r2,#0x2400
        0x08003d3e:    6011        .`      STR      r1,[r2,#0]
        0x08003d40:    f2400100    @...    MOVW     r1,#0
        0x08003d44:    f240020c    @...    MOVW     r2,#0xc
        0x08003d48:    f2c24100    ...A    MOVT     r1,#0x2400
        0x08003d4c:    f2c24200    ...B    MOVT     r2,#0x2400
        0x08003d50:    6008        .`      STR      r0,[r1,#0]
        0x08003d52:    6810        .h      LDR      r0,[r2,#0]
        0x08003d54:    f7fefa7c    ..|.    BL       HAL_InitTick ; 0x8002250
        0x08003d58:    b001        ..      ADD      sp,sp,#4
        0x08003d5a:    e8bd83f0    ....    POP      {r4-r9,pc}
        0x08003d5e:    68a0        .h      LDR      r0,[r4,#8]
        0x08003d60:    f06f0107    o...    MVN      r1,#7
        0x08003d64:    eb012130    ..0!    ADD      r1,r1,r0,ROR #8
        0x08003d68:    2908        .)      CMP      r1,#8
        0x08003d6a:    d24f        O.      BCS      0x8003e0c ; HAL_RCC_ClockConfig + 1076
        0x08003d6c:    6860        `h      LDR      r0,[r4,#4]
        0x08003d6e:    2804        .(      CMP      r0,#4
        0x08003d70:    d307        ..      BCC      0x8003d82 ; HAL_RCC_ClockConfig + 938
        0x08003d72:    f64740f5    G..@    MOV      r0,#0x7cf5
        0x08003d76:    f240411d    @..A    MOV      r1,#0x41d
        0x08003d7a:    f6c00000    ....    MOVT     r0,#0x800
        0x08003d7e:    f003f9a3    ....    BL       assert_failed ; 0x80070c8
        0x08003d82:    f8d90000    ....    LDR      r0,[r9,#0]
        0x08003d86:    f4206170     .pa    BIC      r1,r0,#0xf00
        0x08003d8a:    e9d40201    ....    LDRD     r0,r2,[r4,#4]
        0x08003d8e:    2801        .(      CMP      r0,#1
        0x08003d90:    ea410102    A...    ORR      r1,r1,r2
        0x08003d94:    f8c91000    ....    STR      r1,[r9,#0]
        0x08003d98:    d00b        ..      BEQ      0x8003db2 ; HAL_RCC_ClockConfig + 986
        0x08003d9a:    2803        .(      CMP      r0,#3
        0x08003d9c:    d02c        ,.      BEQ      0x8003df8 ; HAL_RCC_ClockConfig + 1056
        0x08003d9e:    2802        .(      CMP      r0,#2
        0x08003da0:    d12f        /.      BNE      0x8003e02 ; HAL_RCC_ClockConfig + 1066
        0x08003da2:    f8591c18    Y...    LDR      r1,[r9,#-0x18]
        0x08003da6:    0389        ..      LSLS     r1,r1,#14
        0x08003da8:    d407        ..      BMI      0x8003dba ; HAL_RCC_ClockConfig + 994
        0x08003daa:    2001        .       MOVS     r0,#1
        0x08003dac:    b001        ..      ADD      sp,sp,#4
        0x08003dae:    e8bd83f0    ....    POP      {r4-r9,pc}
        0x08003db2:    f8591c18    Y...    LDR      r1,[r9,#-0x18]
        0x08003db6:    05c9        ..      LSLS     r1,r1,#23
        0x08003db8:    d5f7        ..      BPL      0x8003daa ; HAL_RCC_ClockConfig + 978
        0x08003dba:    f8591c08    Y...    LDR      r1,[r9,#-8]
        0x08003dbe:    f0210107    !...    BIC      r1,r1,#7
        0x08003dc2:    4308        .C      ORRS     r0,r0,r1
        0x08003dc4:    f8490c08    I...    STR      r0,[r9,#-8]
        0x08003dc8:    f7fef9f6    ....    BL       HAL_GetTick ; 0x80021b8
        0x08003dcc:    4606        .F      MOV      r6,r0
        0x08003dce:    f2413788    A..7    MOV      r7,#0x1388
        0x08003dd2:    bf00        ..      NOP      
        0x08003dd4:    f8590c08    Y...    LDR      r0,[r9,#-8]
        0x08003dd8:    6861        ah      LDR      r1,[r4,#4]
        0x08003dda:    f0000038    ..8.    AND      r0,r0,#0x38
        0x08003dde:    ebb00fc1    ....    CMP      r0,r1,LSL #3
        0x08003de2:    f43faeda    ?...    BEQ      0x8003b9a ; HAL_RCC_ClockConfig + 450
        0x08003de6:    f7fef9e7    ....    BL       HAL_GetTick ; 0x80021b8
        0x08003dea:    1b80        ..      SUBS     r0,r0,r6
        0x08003dec:    42b8        .B      CMP      r0,r7
        0x08003dee:    d9f1        ..      BLS      0x8003dd4 ; HAL_RCC_ClockConfig + 1020
        0x08003df0:    2003        .       MOVS     r0,#3
        0x08003df2:    b001        ..      ADD      sp,sp,#4
        0x08003df4:    e8bd83f0    ....    POP      {r4-r9,pc}
        0x08003df8:    f8591c18    Y...    LDR      r1,[r9,#-0x18]
        0x08003dfc:    0189        ..      LSLS     r1,r1,#6
        0x08003dfe:    d5d4        ..      BPL      0x8003daa ; HAL_RCC_ClockConfig + 978
        0x08003e00:    e7db        ..      B        0x8003dba ; HAL_RCC_ClockConfig + 994
        0x08003e02:    f8591c18    Y...    LDR      r1,[r9,#-0x18]
        0x08003e06:    0749        I.      LSLS     r1,r1,#29
        0x08003e08:    d5cf        ..      BPL      0x8003daa ; HAL_RCC_ClockConfig + 978
        0x08003e0a:    e7d6        ..      B        0x8003dba ; HAL_RCC_ClockConfig + 994
        0x08003e0c:    ea4f2030    O.0     ROR      r0,r0,#8
        0x08003e10:    2800        .(      CMP      r0,#0
        0x08003e12:    d0ab        ..      BEQ      0x8003d6c ; HAL_RCC_ClockConfig + 916
        0x08003e14:    f64740f5    G..@    MOV      r0,#0x7cf5
        0x08003e18:    f240411c    @..A    MOV      r1,#0x41c
        0x08003e1c:    f6c00000    ....    MOVT     r0,#0x800
        0x08003e20:    f003f952    ..R.    BL       assert_failed ; 0x80070c8
        0x08003e24:    e7a2        ..      B        0x8003d6c ; HAL_RCC_ClockConfig + 916
        0x08003e26:    2800        .(      CMP      r0,#0
        0x08003e28:    f43faeab    ?...    BEQ      0x8003b82 ; HAL_RCC_ClockConfig + 426
        0x08003e2c:    f64740f5    G..@    MOV      r0,#0x7cf5
        0x08003e30:    f240410c    @..A    MOV      r1,#0x40c
        0x08003e34:    f6c00000    ....    MOVT     r0,#0x800
        0x08003e38:    f003f946    ..F.    BL       assert_failed ; 0x80070c8
        0x08003e3c:    e6a1        ..      B        0x8003b82 ; HAL_RCC_ClockConfig + 426
        0x08003e3e:    2800        .(      CMP      r0,#0
        0x08003e40:    f43faeba    ?...    BEQ      0x8003bb8 ; HAL_RCC_ClockConfig + 480
        0x08003e44:    f64740f5    G..@    MOV      r0,#0x7cf5
        0x08003e48:    f240415e    @.^A    MOV      r1,#0x45e
        0x08003e4c:    f6c00000    ....    MOVT     r0,#0x800
        0x08003e50:    f003f93a    ..:.    BL       assert_failed ; 0x80070c8
        0x08003e54:    e6b0        ..      B        0x8003bb8 ; HAL_RCC_ClockConfig + 480
        0x08003e56:    0000        ..      MOVS     r0,r0
    HAL_RCC_GetHCLKFreq
        0x08003e58:    b580        ..      PUSH     {r7,lr}
        0x08003e5a:    f000f84d    ..M.    BL       HAL_RCC_GetSysClockFreq ; 0x8003ef8
        0x08003e5e:    f2444118    D..A    MOV      r1,#0x4418
        0x08003e62:    f647430e    G..C    MOV      r3,#0x7c0e
        0x08003e66:    f6c50102    ....    MOVT     r1,#0x5802
        0x08003e6a:    f6c00300    ....    MOVT     r3,#0x800
        0x08003e6e:    680a        .h      LDR      r2,[r1,#0]
        0x08003e70:    6809        .h      LDR      r1,[r1,#0]
        0x08003e72:    f001010f    ....    AND      r1,r1,#0xf
        0x08003e76:    f3c22203    ..."    UBFX     r2,r2,#8,#4
        0x08003e7a:    5c59        Y\      LDRB     r1,[r3,r1]
        0x08003e7c:    5c9a        .\      LDRB     r2,[r3,r2]
        0x08003e7e:    f002021f    ....    AND      r2,r2,#0x1f
        0x08003e82:    fa20f202     ...    LSR      r2,r0,r2
        0x08003e86:    f001001f    ....    AND      r0,r1,#0x1f
        0x08003e8a:    f2400104    @...    MOVW     r1,#4
        0x08003e8e:    fa22f000    "...    LSR      r0,r2,r0
        0x08003e92:    f2c24100    ...A    MOVT     r1,#0x2400
        0x08003e96:    6008        .`      STR      r0,[r1,#0]
        0x08003e98:    f2400100    @...    MOVW     r1,#0
        0x08003e9c:    f2c24100    ...A    MOVT     r1,#0x2400
        0x08003ea0:    600a        .`      STR      r2,[r1,#0]
        0x08003ea2:    bd80        ..      POP      {r7,pc}
        0x08003ea4:    0000        ..      MOVS     r0,r0
        0x08003ea6:    0000        ..      MOVS     r0,r0
    HAL_RCC_GetPCLK1Freq
        0x08003ea8:    b580        ..      PUSH     {r7,lr}
        0x08003eaa:    f7ffffd5    ....    BL       HAL_RCC_GetHCLKFreq ; 0x8003e58
        0x08003eae:    f244411c    D..A    MOV      r1,#0x441c
        0x08003eb2:    f647420e    G..B    MOV      r2,#0x7c0e
        0x08003eb6:    f6c50102    ....    MOVT     r1,#0x5802
        0x08003eba:    f6c00200    ....    MOVT     r2,#0x800
        0x08003ebe:    6809        .h      LDR      r1,[r1,#0]
        0x08003ec0:    f3c11102    ....    UBFX     r1,r1,#4,#3
        0x08003ec4:    5c51        Q\      LDRB     r1,[r2,r1]
        0x08003ec6:    f001011f    ....    AND      r1,r1,#0x1f
        0x08003eca:    40c8        .@      LSRS     r0,r0,r1
        0x08003ecc:    bd80        ..      POP      {r7,pc}
        0x08003ece:    0000        ..      MOVS     r0,r0
    HAL_RCC_GetPCLK2Freq
        0x08003ed0:    b580        ..      PUSH     {r7,lr}
        0x08003ed2:    f7ffffc1    ....    BL       HAL_RCC_GetHCLKFreq ; 0x8003e58
        0x08003ed6:    f244411c    D..A    MOV      r1,#0x441c
        0x08003eda:    f647420e    G..B    MOV      r2,#0x7c0e
        0x08003ede:    f6c50102    ....    MOVT     r1,#0x5802
        0x08003ee2:    f6c00200    ....    MOVT     r2,#0x800
        0x08003ee6:    6809        .h      LDR      r1,[r1,#0]
        0x08003ee8:    f3c12102    ...!    UBFX     r1,r1,#8,#3
        0x08003eec:    5c51        Q\      LDRB     r1,[r2,r1]
        0x08003eee:    f001011f    ....    AND      r1,r1,#0x1f
        0x08003ef2:    40c8        .@      LSRS     r0,r0,r1
        0x08003ef4:    bd80        ..      POP      {r7,pc}
        0x08003ef6:    0000        ..      MOVS     r0,r0
    HAL_RCC_GetSysClockFreq
        0x08003ef8:    f2444100    D..A    MOVW     r1,#0x4400
        0x08003efc:    f6c50102    ....    MOVT     r1,#0x5802
        0x08003f00:    6908        .i      LDR      r0,[r1,#0x10]
        0x08003f02:    f3c000c2    ....    UBFX     r0,r0,#3,#3
        0x08003f06:    2803        .(      CMP      r0,#3
        0x08003f08:    d00f        ..      BEQ      0x8003f2a ; HAL_RCC_GetSysClockFreq + 50
        0x08003f0a:    2802        .(      CMP      r0,#2
        0x08003f0c:    d02a        *.      BEQ      0x8003f64 ; HAL_RCC_GetSysClockFreq + 108
        0x08003f0e:    bb70        p.      CBNZ     r0,0x8003f6e ; HAL_RCC_GetSysClockFreq + 118
        0x08003f10:    6808        .h      LDR      r0,[r1,#0]
        0x08003f12:    0680        ..      LSLS     r0,r0,#26
        0x08003f14:    f2490000    I...    MOVW     r0,#0x9000
        0x08003f18:    f2c030d0    ...0    MOVT     r0,#0x3d0
        0x08003f1c:    bf58        X.      IT       PL
        0x08003f1e:    4770        pG      BXPL     lr
        0x08003f20:    6809        .h      LDR      r1,[r1,#0]
        0x08003f22:    f3c101c1    ....    UBFX     r1,r1,#3,#2
        0x08003f26:    40c8        .@      LSRS     r0,r0,r1
        0x08003f28:    4770        pG      BX       lr
        0x08003f2a:    6a8a        .j      LDR      r2,[r1,#0x28]
        0x08003f2c:    6a88        .j      LDR      r0,[r1,#0x28]
        0x08003f2e:    f3c01c05    ....    UBFX     r12,r0,#4,#6
        0x08003f32:    6ac8        .j      LDR      r0,[r1,#0x2c]
        0x08003f34:    f1bc0f00    ....    CMP      r12,#0
        0x08003f38:    6b4b        Kk      LDR      r3,[r1,#0x34]
        0x08003f3a:    d01d        ..      BEQ      0x8003f78 ; HAL_RCC_GetSysClockFreq + 128
        0x08003f3c:    f3c303cc    ....    UBFX     r3,r3,#3,#13
        0x08003f40:    f0000001    ....    AND      r0,r0,#1
        0x08003f44:    4358        XC      MULS     r0,r3,r0
        0x08003f46:    f0020203    ....    AND      r2,r2,#3
        0x08003f4a:    2a02        .*      CMP      r2,#2
        0x08003f4c:    ee000a10    ....    VMOV     s0,r0
        0x08003f50:    eeb80a40    ..@.    VCVT.F32.U32 s0,s0
        0x08003f54:    d012        ..      BEQ      0x8003f7c ; HAL_RCC_GetSysClockFreq + 132
        0x08003f56:    b9a2        ..      CBNZ     r2,0x8003f82 ; HAL_RCC_GetSysClockFreq + 138
        0x08003f58:    6808        .h      LDR      r0,[r1,#0]
        0x08003f5a:    0680        ..      LSLS     r0,r0,#26
        0x08003f5c:    d414        ..      BMI      0x8003f88 ; HAL_RCC_GetSysClockFreq + 144
        0x08003f5e:    ed9f1a26    ..&.    VLDR     s2,[pc,#152] ; [0x8003ff8] = 0x4c742400
        0x08003f62:    e01e        ..      B        0x8003fa2 ; HAL_RCC_GetSysClockFreq + 170
        0x08003f64:    f6470040    G.@.    MOV      r0,#0x7840
        0x08003f68:    f2c0107d    ..}.    MOVT     r0,#0x17d
        0x08003f6c:    4770        pG      BX       lr
        0x08003f6e:    f6401000    @...    MOVW     r0,#0x900
        0x08003f72:    f2c0003d    ..=.    MOVT     r0,#0x3d
        0x08003f76:    4770        pG      BX       lr
        0x08003f78:    2000        .       MOVS     r0,#0
        0x08003f7a:    4770        pG      BX       lr
        0x08003f7c:    ed9f1a1d    ....    VLDR     s2,[pc,#116] ; [0x8003ff4] = 0x4bbebc20
        0x08003f80:    e00f        ..      B        0x8003fa2 ; HAL_RCC_GetSysClockFreq + 170
        0x08003f82:    ed9f1a1b    ....    VLDR     s2,[pc,#108] ; [0x8003ff0] = 0x4a742400
        0x08003f86:    e00c        ..      B        0x8003fa2 ; HAL_RCC_GetSysClockFreq + 170
        0x08003f88:    6808        .h      LDR      r0,[r1,#0]
        0x08003f8a:    f2490200    I...    MOVW     r2,#0x9000
        0x08003f8e:    f2c032d0    ...2    MOVT     r2,#0x3d0
        0x08003f92:    f3c000c1    ....    UBFX     r0,r0,#3,#2
        0x08003f96:    fa22f000    "...    LSR      r0,r2,r0
        0x08003f9a:    ee010a10    ....    VMOV     s2,r0
        0x08003f9e:    eeb81a41    ..A.    VCVT.F32.U32 s2,s2
        0x08003fa2:    6b08        .k      LDR      r0,[r1,#0x30]
        0x08003fa4:    ed9f3a15    ...:    VLDR     s6,[pc,#84] ; [0x8003ffc] = 0x39000000
        0x08003fa8:    f36f205f    o._     BFC      r0,#9,#23
        0x08003fac:    ee020a10    ....    VMOV     s4,r0
        0x08003fb0:    6b08        .k      LDR      r0,[r1,#0x30]
        0x08003fb2:    f3c02046    ..F     UBFX     r0,r0,#9,#7
        0x08003fb6:    eeb82a42    ..B*    VCVT.F32.U32 s4,s4
        0x08003fba:    3001        .0      ADDS     r0,#1
        0x08003fbc:    ee002a03    ...*    VMLA.F32 s4,s0,s6
        0x08003fc0:    ee00ca10    ....    VMOV     s0,r12
        0x08003fc4:    eeb73a00    ...:    VMOV.F32 s6,#1.00000000
        0x08003fc8:    eeb80a40    ..@.    VCVT.F32.U32 s0,s0
        0x08003fcc:    ee810a00    ....    VDIV.F32 s0,s2,s0
        0x08003fd0:    ee321a03    2...    VADD.F32 s2,s4,s6
        0x08003fd4:    ee200a01     ...    VMUL.F32 s0,s0,s2
        0x08003fd8:    ee010a10    ....    VMOV     s2,r0
        0x08003fdc:    eeb81a41    ..A.    VCVT.F32.U32 s2,s2
        0x08003fe0:    ee800a01    ....    VDIV.F32 s0,s0,s2
        0x08003fe4:    eebc0ac0    ....    VCVT.U32.F32 s0,s0
        0x08003fe8:    ee100a10    ....    VMOV     r0,s0
        0x08003fec:    4770        pG      BX       lr
        0x08003fee:    bf00        ..      NOP      
    $d.4
        0x08003ff0:    4a742400    .$tJ    DCD    1249125376
        0x08003ff4:    4bbebc20     ..K    DCD    1270791200
        0x08003ff8:    4c742400    .$tL    DCD    1282679808
        0x08003ffc:    39000000    ...9    DCD    956301312
    $t.5
    HAL_RCC_MCOConfig
        0x08004000:    b5f0        ..      PUSH     {r4-r7,lr}
        0x08004002:    b085        ..      SUB      sp,sp,#0x14
        0x08004004:    4606        .F      MOV      r6,r0
        0x08004006:    2802        .(      CMP      r0,#2
        0x08004008:    4614        .F      MOV      r4,r2
        0x0800400a:    460d        .F      MOV      r5,r1
        0x0800400c:    d307        ..      BCC      0x800401e ; HAL_RCC_MCOConfig + 30
        0x0800400e:    f64740f5    G..@    MOV      r0,#0x7cf5
        0x08004012:    f240510a    @..Q    MOV      r1,#0x50a
        0x08004016:    f6c00000    ....    MOVT     r0,#0x800
        0x0800401a:    f003f855    ..U.    BL       assert_failed ; 0x80070c8
        0x0800401e:    f5a42080    ...     SUB      r0,r4,#0x40000
        0x08004022:    ea4f40b0    O..@    ROR      r0,r0,#18
        0x08004026:    280f        .(      CMP      r0,#0xf
        0x08004028:    d307        ..      BCC      0x800403a ; HAL_RCC_MCOConfig + 58
        0x0800402a:    f64740f5    G..@    MOV      r0,#0x7cf5
        0x0800402e:    f240510b    @..Q    MOV      r1,#0x50b
        0x08004032:    f6c00000    ....    MOVT     r0,#0x800
        0x08004036:    f003f847    ..G.    BL       assert_failed ; 0x80070c8
        0x0800403a:    2e00        ..      CMP      r6,#0
        0x0800403c:    f24447e0    D..G    MOV      r7,#0x44e0
        0x08004040:    f2400600    @...    MOVW     r6,#0
        0x08004044:    f6c50702    ....    MOVT     r7,#0x5802
        0x08004048:    f6c50602    ....    MOVT     r6,#0x5802
        0x0800404c:    d02a        *.      BEQ      0x80040a4 ; HAL_RCC_MCOConfig + 164
        0x0800404e:    f0854000    ...@    EOR      r0,r5,#0x80000000
        0x08004052:    00e9        ..      LSLS     r1,r5,#3
        0x08004054:    ea417050    A.Pp    ORR      r0,r1,r0,LSR #29
        0x08004058:    2807        .(      CMP      r0,#7
        0x0800405a:    d851        Q.      BHI      0x8004100 ; HAL_RCC_MCOConfig + 256
        0x0800405c:    2101        .!      MOVS     r1,#1
        0x0800405e:    fa01f000    ....    LSL      r0,r1,r0
        0x08004062:    f0100ff3    ....    TST      r0,#0xf3
        0x08004066:    d04b        K.      BEQ      0x8004100 ; HAL_RCC_MCOConfig + 256
        0x08004068:    6838        8h      LDR      r0,[r7,#0]
        0x0800406a:    4669        iF      MOV      r1,sp
        0x0800406c:    f0400004    @...    ORR      r0,r0,#4
        0x08004070:    6038        8`      STR      r0,[r7,#0]
        0x08004072:    6838        8h      LDR      r0,[r7,#0]
        0x08004074:    f0000004    ....    AND      r0,r0,#4
        0x08004078:    9000        ..      STR      r0,[sp,#0]
        0x0800407a:    9800        ..      LDR      r0,[sp,#0]
        0x0800407c:    f44f7000    O..p    MOV      r0,#0x200
        0x08004080:    9000        ..      STR      r0,[sp,#0]
        0x08004082:    2002        .       MOVS     r0,#2
        0x08004084:    9001        ..      STR      r0,[sp,#4]
        0x08004086:    2003        .       MOVS     r0,#3
        0x08004088:    9003        ..      STR      r0,[sp,#0xc]
        0x0800408a:    2000        .       MOVS     r0,#0
        0x0800408c:    9002        ..      STR      r0,[sp,#8]
        0x0800408e:    9004        ..      STR      r0,[sp,#0x10]
        0x08004090:    f5066000    ...`    ADD      r0,r6,#0x800
        0x08004094:    f7fdff0c    ....    BL       HAL_GPIO_Init ; 0x8001eb0
        0x08004098:    f8570cd0    W...    LDR      r0,[r7,#-0xd0]
        0x0800409c:    01e4        ..      LSLS     r4,r4,#7
        0x0800409e:    f020407e     .~@    BIC      r0,r0,#0xfe000000
        0x080040a2:    e026        &.      B        0x80040f2 ; HAL_RCC_MCOConfig + 242
        0x080040a4:    ea4f50b5    O..P    ROR      r0,r5,#22
        0x080040a8:    2805        .(      CMP      r0,#5
        0x080040aa:    d307        ..      BCC      0x80040bc ; HAL_RCC_MCOConfig + 188
        0x080040ac:    f64740f5    G..@    MOV      r0,#0x7cf5
        0x080040b0:    f240510f    @..Q    MOV      r1,#0x50f
        0x080040b4:    f6c00000    ....    MOVT     r0,#0x800
        0x080040b8:    f003f806    ....    BL       assert_failed ; 0x80070c8
        0x080040bc:    6838        8h      LDR      r0,[r7,#0]
        0x080040be:    4669        iF      MOV      r1,sp
        0x080040c0:    f0400001    @...    ORR      r0,r0,#1
        0x080040c4:    6038        8`      STR      r0,[r7,#0]
        0x080040c6:    6838        8h      LDR      r0,[r7,#0]
        0x080040c8:    f0000001    ....    AND      r0,r0,#1
        0x080040cc:    9000        ..      STR      r0,[sp,#0]
        0x080040ce:    9800        ..      LDR      r0,[sp,#0]
        0x080040d0:    f44f7080    O..p    MOV      r0,#0x100
        0x080040d4:    9000        ..      STR      r0,[sp,#0]
        0x080040d6:    2002        .       MOVS     r0,#2
        0x080040d8:    9001        ..      STR      r0,[sp,#4]
        0x080040da:    2003        .       MOVS     r0,#3
        0x080040dc:    9003        ..      STR      r0,[sp,#0xc]
        0x080040de:    2000        .       MOVS     r0,#0
        0x080040e0:    9002        ..      STR      r0,[sp,#8]
        0x080040e2:    9004        ..      STR      r0,[sp,#0x10]
        0x080040e4:    4630        0F      MOV      r0,r6
        0x080040e6:    f7fdfee3    ....    BL       HAL_GPIO_Init ; 0x8001eb0
        0x080040ea:    f8570cd0    W...    LDR      r0,[r7,#-0xd0]
        0x080040ee:    f02070fe     ..p    BIC      r0,r0,#0x1fc0000
        0x080040f2:    ea440105    D...    ORR      r1,r4,r5
        0x080040f6:    4308        .C      ORRS     r0,r0,r1
        0x080040f8:    f8470cd0    G...    STR      r0,[r7,#-0xd0]
        0x080040fc:    b005        ..      ADD      sp,sp,#0x14
        0x080040fe:    bdf0        ..      POP      {r4-r7,pc}
        0x08004100:    f64740f5    G..@    MOV      r0,#0x7cf5
        0x08004104:    f2405121    @.!Q    MOV      r1,#0x521
        0x08004108:    f6c00000    ....    MOVT     r0,#0x800
        0x0800410c:    f002ffdc    ....    BL       assert_failed ; 0x80070c8
        0x08004110:    e7aa        ..      B        0x8004068 ; HAL_RCC_MCOConfig + 104
        0x08004112:    0000        ..      MOVS     r0,r0
        0x08004114:    0000        ..      MOVS     r0,r0
        0x08004116:    0000        ..      MOVS     r0,r0
    HAL_RCC_OscConfig
        0x08004118:    e92d43f0    -..C    PUSH     {r4-r9,lr}
        0x0800411c:    b081        ..      SUB      sp,sp,#4
        0x0800411e:    b3b0        ..      CBZ      r0,0x800418e ; HAL_RCC_OscConfig + 118
        0x08004120:    4680        .F      MOV      r8,r0
        0x08004122:    6800        .h      LDR      r0,[r0,#0]
        0x08004124:    b150        P.      CBZ      r0,0x800413c ; HAL_RCC_OscConfig + 36
        0x08004126:    f010003f    ..?.    ANDS     r0,r0,#0x3f
        0x0800412a:    d107        ..      BNE      0x800413c ; HAL_RCC_OscConfig + 36
        0x0800412c:    f64740f5    G..@    MOV      r0,#0x7cf5
        0x08004130:    f24011a1    @...    MOV      r1,#0x1a1
        0x08004134:    f6c00000    ....    MOVT     r0,#0x800
        0x08004138:    f002ffc6    ....    BL       assert_failed ; 0x80070c8
        0x0800413c:    f8980000    ....    LDRB     r0,[r8,#0]
        0x08004140:    f2444900    D..I    MOVW     r9,#0x4400
        0x08004144:    f6c50902    ....    MOVT     r9,#0x5802
        0x08004148:    07c0        ..      LSLS     r0,r0,#31
        0x0800414a:    d06e        n.      BEQ      0x800422a ; HAL_RCC_OscConfig + 274
        0x0800414c:    f8d80004    ....    LDR      r0,[r8,#4]
        0x08004150:    b128        (.      CBZ      r0,0x800415e ; HAL_RCC_OscConfig + 70
        0x08004152:    f5b03f80    ...?    CMP      r0,#0x10000
        0x08004156:    bf18        ..      IT       NE
        0x08004158:    f5b02fa0    .../    CMPNE    r0,#0x50000
        0x0800415c:    d12e        ..      BNE      0x80041bc ; HAL_RCC_OscConfig + 164
        0x0800415e:    f8d90010    ....    LDR      r0,[r9,#0x10]
        0x08004162:    f0000138    ..8.    AND      r1,r0,#0x38
        0x08004166:    f8d90028    ..(.    LDR      r0,[r9,#0x28]
        0x0800416a:    2910        .)      CMP      r1,#0x10
        0x0800416c:    d005        ..      BEQ      0x800417a ; HAL_RCC_OscConfig + 98
        0x0800416e:    2918        .)      CMP      r1,#0x18
        0x08004170:    d110        ..      BNE      0x8004194 ; HAL_RCC_OscConfig + 124
        0x08004172:    f0000003    ....    AND      r0,r0,#3
        0x08004176:    2802        .(      CMP      r0,#2
        0x08004178:    d10c        ..      BNE      0x8004194 ; HAL_RCC_OscConfig + 124
        0x0800417a:    f8d90000    ....    LDR      r0,[r9,#0]
        0x0800417e:    0380        ..      LSLS     r0,r0,#14
        0x08004180:    d54f        O.      BPL      0x8004222 ; HAL_RCC_OscConfig + 266
        0x08004182:    f8d80004    ....    LDR      r0,[r8,#4]
        0x08004186:    2800        .(      CMP      r0,#0
        0x08004188:    d14b        K.      BNE      0x8004222 ; HAL_RCC_OscConfig + 266
        0x0800418a:    2701        .'      MOVS     r7,#1
        0x0800418c:    e03a        :.      B        0x8004204 ; HAL_RCC_OscConfig + 236
        0x0800418e:    2701        .'      MOVS     r7,#1
        0x08004190:    f000bc28    ..(.    B.W      0x80049e4 ; HAL_RCC_OscConfig + 2252
        0x08004194:    f8d84004    ...@    LDR      r4,[r8,#4]
        0x08004198:    b12c        ,.      CBZ      r4,0x80041a6 ; HAL_RCC_OscConfig + 142
        0x0800419a:    f5b42fa0    .../    CMP      r4,#0x50000
        0x0800419e:    d016        ..      BEQ      0x80041ce ; HAL_RCC_OscConfig + 182
        0x080041a0:    f5b43f80    ...?    CMP      r4,#0x10000
        0x080041a4:    d019        ..      BEQ      0x80041da ; HAL_RCC_OscConfig + 194
        0x080041a6:    f8d90000    ....    LDR      r0,[r9,#0]
        0x080041aa:    f4203080     ..0    BIC      r0,r0,#0x10000
        0x080041ae:    f8c90000    ....    STR      r0,[r9,#0]
        0x080041b2:    f8d90000    ....    LDR      r0,[r9,#0]
        0x080041b6:    f4202080     ..     BIC      r0,r0,#0x40000
        0x080041ba:    e012        ..      B        0x80041e2 ; HAL_RCC_OscConfig + 202
        0x080041bc:    f64740f5    G..@    MOV      r0,#0x7cf5
        0x080041c0:    f44f71d3    O..q    MOV      r1,#0x1a6
        0x080041c4:    f6c00000    ....    MOVT     r0,#0x800
        0x080041c8:    f002ff7e    ..~.    BL       assert_failed ; 0x80070c8
        0x080041cc:    e7c7        ..      B        0x800415e ; HAL_RCC_OscConfig + 70
        0x080041ce:    f8d90000    ....    LDR      r0,[r9,#0]
        0x080041d2:    f4402080    @..     ORR      r0,r0,#0x40000
        0x080041d6:    f8c90000    ....    STR      r0,[r9,#0]
        0x080041da:    f8d90000    ....    LDR      r0,[r9,#0]
        0x080041de:    f4403080    @..0    ORR      r0,r0,#0x10000
        0x080041e2:    f8c90000    ....    STR      r0,[r9,#0]
        0x080041e6:    f7fdffe7    ....    BL       HAL_GetTick ; 0x80021b8
        0x080041ea:    4605        .F      MOV      r5,r0
        0x080041ec:    b1ac        ..      CBZ      r4,0x800421a ; HAL_RCC_OscConfig + 258
        0x080041ee:    bf00        ..      NOP      
        0x080041f0:    f8d90000    ....    LDR      r0,[r9,#0]
        0x080041f4:    0380        ..      LSLS     r0,r0,#14
        0x080041f6:    d414        ..      BMI      0x8004222 ; HAL_RCC_OscConfig + 266
        0x080041f8:    f7fdffde    ....    BL       HAL_GetTick ; 0x80021b8
        0x080041fc:    1b40        @.      SUBS     r0,r0,r5
        0x080041fe:    2864        d(      CMP      r0,#0x64
        0x08004200:    d9f6        ..      BLS      0x80041f0 ; HAL_RCC_OscConfig + 216
        0x08004202:    2703        .'      MOVS     r7,#3
        0x08004204:    2000        .       MOVS     r0,#0
        0x08004206:    2800        .(      CMP      r0,#0
        0x08004208:    f00083ec    ....    BEQ.W    0x80049e4 ; HAL_RCC_OscConfig + 2252
        0x0800420c:    e00d        ..      B        0x800422a ; HAL_RCC_OscConfig + 274
        0x0800420e:    bf00        ..      NOP      
        0x08004210:    f7fdffd2    ....    BL       HAL_GetTick ; 0x80021b8
        0x08004214:    1b40        @.      SUBS     r0,r0,r5
        0x08004216:    2864        d(      CMP      r0,#0x64
        0x08004218:    d8f3        ..      BHI      0x8004202 ; HAL_RCC_OscConfig + 234
        0x0800421a:    f8d90000    ....    LDR      r0,[r9,#0]
        0x0800421e:    0380        ..      LSLS     r0,r0,#14
        0x08004220:    d4f6        ..      BMI      0x8004210 ; HAL_RCC_OscConfig + 248
        0x08004222:    2001        .       MOVS     r0,#1
        0x08004224:    2800        .(      CMP      r0,#0
        0x08004226:    f00083dd    ....    BEQ.W    0x80049e4 ; HAL_RCC_OscConfig + 2252
        0x0800422a:    f8980000    ....    LDRB     r0,[r8,#0]
        0x0800422e:    0780        ..      LSLS     r0,r0,#30
        0x08004230:    f14080a9    @...    BPL.W    0x8004386 ; HAL_RCC_OscConfig + 622
        0x08004234:    f8d8000c    ....    LDR      r0,[r8,#0xc]
        0x08004238:    2819        .(      CMP      r0,#0x19
        0x0800423a:    f2008093    ....    BHI.W    0x8004364 ; HAL_RCC_OscConfig + 588
        0x0800423e:    2101        .!      MOVS     r1,#1
        0x08004240:    fa01f000    ....    LSL      r0,r1,r0
        0x08004244:    f2402103    @..!    MOV      r1,#0x203
        0x08004248:    f2c02102    ...!    MOVT     r1,#0x202
        0x0800424c:    4208        .B      TST      r0,r1
        0x0800424e:    f0008089    ....    BEQ.W    0x8004364 ; HAL_RCC_OscConfig + 588
        0x08004252:    f8d80010    ....    LDR      r0,[r8,#0x10]
        0x08004256:    2880        .(      CMP      r0,#0x80
        0x08004258:    d307        ..      BCC      0x800426a ; HAL_RCC_OscConfig + 338
        0x0800425a:    f64740f5    G..@    MOV      r0,#0x7cf5
        0x0800425e:    f24011db    @...    MOV      r1,#0x1db
        0x08004262:    f6c00000    ....    MOVT     r0,#0x800
        0x08004266:    f002ff2f    ../.    BL       assert_failed ; 0x80070c8
        0x0800426a:    f8d90010    ....    LDR      r0,[r9,#0x10]
        0x0800426e:    f0100138    ..8.    ANDS     r1,r0,#0x38
        0x08004272:    f8d90028    ..(.    LDR      r0,[r9,#0x28]
        0x08004276:    d01d        ..      BEQ      0x80042b4 ; HAL_RCC_OscConfig + 412
        0x08004278:    2918        .)      CMP      r1,#0x18
        0x0800427a:    bf08        ..      IT       EQ
        0x0800427c:    ea5f7080    _..p    LSLSEQ   r0,r0,#30
        0x08004280:    d018        ..      BEQ      0x80042b4 ; HAL_RCC_OscConfig + 412
        0x08004282:    f8d8000c    ....    LDR      r0,[r8,#0xc]
        0x08004286:    f8d91000    ....    LDR      r1,[r9,#0]
        0x0800428a:    2800        .(      CMP      r0,#0
        0x0800428c:    d048        H.      BEQ      0x8004320 ; HAL_RCC_OscConfig + 520
        0x0800428e:    f0210119    !...    BIC      r1,r1,#0x19
        0x08004292:    4308        .C      ORRS     r0,r0,r1
        0x08004294:    f8c90000    ....    STR      r0,[r9,#0]
        0x08004298:    f7fdff8e    ....    BL       HAL_GetTick ; 0x80021b8
        0x0800429c:    4605        .F      MOV      r5,r0
        0x0800429e:    bf00        ..      NOP      
        0x080042a0:    f8d90000    ....    LDR      r0,[r9,#0]
        0x080042a4:    0740        @.      LSLS     r0,r0,#29
        0x080042a6:    d42a        *.      BMI      0x80042fe ; HAL_RCC_OscConfig + 486
        0x080042a8:    f7fdff86    ....    BL       HAL_GetTick ; 0x80021b8
        0x080042ac:    1b40        @.      SUBS     r0,r0,r5
        0x080042ae:    2802        .(      CMP      r0,#2
        0x080042b0:    d9f6        ..      BLS      0x80042a0 ; HAL_RCC_OscConfig + 392
        0x080042b2:    e01e        ..      B        0x80042f2 ; HAL_RCC_OscConfig + 474
        0x080042b4:    f8d90000    ....    LDR      r0,[r9,#0]
        0x080042b8:    0740        @.      LSLS     r0,r0,#29
        0x080042ba:    d504        ..      BPL      0x80042c6 ; HAL_RCC_OscConfig + 430
        0x080042bc:    f8d8000c    ....    LDR      r0,[r8,#0xc]
        0x080042c0:    2800        .(      CMP      r0,#0
        0x080042c2:    f000825e    ..^.    BEQ.W    0x8004782 ; HAL_RCC_OscConfig + 1642
        0x080042c6:    f8d90000    ....    LDR      r0,[r9,#0]
        0x080042ca:    f8d8100c    ....    LDR      r1,[r8,#0xc]
        0x080042ce:    f0200019     ...    BIC      r0,r0,#0x19
        0x080042d2:    4308        .C      ORRS     r0,r0,r1
        0x080042d4:    f8c90000    ....    STR      r0,[r9,#0]
        0x080042d8:    f7fdff6e    ..n.    BL       HAL_GetTick ; 0x80021b8
        0x080042dc:    4605        .F      MOV      r5,r0
        0x080042de:    bf00        ..      NOP      
        0x080042e0:    f8d90000    ....    LDR      r0,[r9,#0]
        0x080042e4:    0740        @.      LSLS     r0,r0,#29
        0x080042e6:    d40a        ..      BMI      0x80042fe ; HAL_RCC_OscConfig + 486
        0x080042e8:    f7fdff66    ..f.    BL       HAL_GetTick ; 0x80021b8
        0x080042ec:    1b40        @.      SUBS     r0,r0,r5
        0x080042ee:    2802        .(      CMP      r0,#2
        0x080042f0:    d9f6        ..      BLS      0x80042e0 ; HAL_RCC_OscConfig + 456
        0x080042f2:    2703        .'      MOVS     r7,#3
        0x080042f4:    2400        .$      MOVS     r4,#0
        0x080042f6:    2c00        .,      CMP      r4,#0
        0x080042f8:    f0008374    ..t.    BEQ.W    0x80049e4 ; HAL_RCC_OscConfig + 2252
        0x080042fc:    e043        C.      B        0x8004386 ; HAL_RCC_OscConfig + 622
        0x080042fe:    f7fdff53    ..S.    BL       HAL_GetREVID ; 0x80021a8
        0x08004302:    f2410103    A...    MOV      r1,#0x1003
        0x08004306:    4288        .B      CMP      r0,r1
        0x08004308:    d823        #.      BHI      0x8004352 ; HAL_RCC_OscConfig + 570
        0x0800430a:    f8d80010    ....    LDR      r0,[r8,#0x10]
        0x0800430e:    f8d91004    ....    LDR      r1,[r9,#4]
        0x08004312:    2840        @(      CMP      r0,#0x40
        0x08004314:    f421317c    !.|1    BIC      r1,r1,#0x3f000
        0x08004318:    d12d        -.      BNE      0x8004376 ; HAL_RCC_OscConfig + 606
        0x0800431a:    f4413000    A..0    ORR      r0,r1,#0x20000
        0x0800431e:    e02c        ,.      B        0x800437a ; HAL_RCC_OscConfig + 610
        0x08004320:    f0210001    !...    BIC      r0,r1,#1
        0x08004324:    f8c90000    ....    STR      r0,[r9,#0]
        0x08004328:    f7fdff46    ..F.    BL       HAL_GetTick ; 0x80021b8
        0x0800432c:    4605        .F      MOV      r5,r0
        0x0800432e:    2601        .&      MOVS     r6,#1
        0x08004330:    f8d90000    ....    LDR      r0,[r9,#0]
        0x08004334:    f0100004    ....    ANDS     r0,r0,#4
        0x08004338:    ea860490    ....    EOR      r4,r6,r0,LSR #2
        0x0800433c:    d020         .      BEQ      0x8004380 ; HAL_RCC_OscConfig + 616
        0x0800433e:    f7fdff3b    ..;.    BL       HAL_GetTick ; 0x80021b8
        0x08004342:    1b40        @.      SUBS     r0,r0,r5
        0x08004344:    2803        .(      CMP      r0,#3
        0x08004346:    d3f3        ..      BCC      0x8004330 ; HAL_RCC_OscConfig + 536
        0x08004348:    2703        .'      MOVS     r7,#3
        0x0800434a:    2c00        .,      CMP      r4,#0
        0x0800434c:    f000834a    ..J.    BEQ.W    0x80049e4 ; HAL_RCC_OscConfig + 2252
        0x08004350:    e019        ..      B        0x8004386 ; HAL_RCC_OscConfig + 622
        0x08004352:    f8d90004    ....    LDR      r0,[r9,#4]
        0x08004356:    f8d81010    ....    LDR      r1,[r8,#0x10]
        0x0800435a:    f02040fe     ..@    BIC      r0,r0,#0x7f000000
        0x0800435e:    ea406001    @..`    ORR      r0,r0,r1,LSL #24
        0x08004362:    e00a        ..      B        0x800437a ; HAL_RCC_OscConfig + 610
        0x08004364:    f64740f5    G..@    MOV      r0,#0x7cf5
        0x08004368:    f44f71ed    O..q    MOV      r1,#0x1da
        0x0800436c:    f6c00000    ....    MOVT     r0,#0x800
        0x08004370:    f002feaa    ....    BL       assert_failed ; 0x80070c8
        0x08004374:    e76d        m.      B        0x8004252 ; HAL_RCC_OscConfig + 314
        0x08004376:    ea413000    A..0    ORR      r0,r1,r0,LSL #12
        0x0800437a:    f8c90004    ....    STR      r0,[r9,#4]
        0x0800437e:    2401        .$      MOVS     r4,#1
        0x08004380:    2c00        .,      CMP      r4,#0
        0x08004382:    f000832f    ../.    BEQ.W    0x80049e4 ; HAL_RCC_OscConfig + 2252
        0x08004386:    f8980000    ....    LDRB     r0,[r8,#0]
        0x0800438a:    06c0        ..      LSLS     r0,r0,#27
        0x0800438c:    f140808f    @...    BPL.W    0x80044ae ; HAL_RCC_OscConfig + 918
        0x08004390:    f8d8001c    ....    LDR      r0,[r8,#0x1c]
        0x08004394:    f0400080    @...    ORR      r0,r0,#0x80
        0x08004398:    2880        .(      CMP      r0,#0x80
        0x0800439a:    d007        ..      BEQ      0x80043ac ; HAL_RCC_OscConfig + 660
        0x0800439c:    f64740f5    G..@    MOV      r0,#0x7cf5
        0x080043a0:    f240212b    @.+!    MOV      r1,#0x22b
        0x080043a4:    f6c00000    ....    MOVT     r0,#0x800
        0x080043a8:    f002fe8e    ....    BL       assert_failed ; 0x80070c8
        0x080043ac:    f8d80020    .. .    LDR      r0,[r8,#0x20]
        0x080043b0:    2840        @(      CMP      r0,#0x40
        0x080043b2:    d307        ..      BCC      0x80043c4 ; HAL_RCC_OscConfig + 684
        0x080043b4:    f64740f5    G..@    MOV      r0,#0x7cf5
        0x080043b8:    f44f710b    O..q    MOV      r1,#0x22c
        0x080043bc:    f6c00000    ....    MOVT     r0,#0x800
        0x080043c0:    f002fe82    ....    BL       assert_failed ; 0x80070c8
        0x080043c4:    f8d90010    ....    LDR      r0,[r9,#0x10]
        0x080043c8:    f0000138    ..8.    AND      r1,r0,#0x38
        0x080043cc:    f8d90028    ..(.    LDR      r0,[r9,#0x28]
        0x080043d0:    2908        .)      CMP      r1,#8
        0x080043d2:    d005        ..      BEQ      0x80043e0 ; HAL_RCC_OscConfig + 712
        0x080043d4:    2918        .)      CMP      r1,#0x18
        0x080043d6:    d11c        ..      BNE      0x8004412 ; HAL_RCC_OscConfig + 762
        0x080043d8:    f0000003    ....    AND      r0,r0,#3
        0x080043dc:    2801        .(      CMP      r0,#1
        0x080043de:    d118        ..      BNE      0x8004412 ; HAL_RCC_OscConfig + 762
        0x080043e0:    f8d90000    ....    LDR      r0,[r9,#0]
        0x080043e4:    05c0        ..      LSLS     r0,r0,#23
        0x080043e6:    d503        ..      BPL      0x80043f0 ; HAL_RCC_OscConfig + 728
        0x080043e8:    f8d8001c    ....    LDR      r0,[r8,#0x1c]
        0x080043ec:    2880        .(      CMP      r0,#0x80
        0x080043ee:    d159        Y.      BNE      0x80044a4 ; HAL_RCC_OscConfig + 908
        0x080043f0:    f7fdfeda    ....    BL       HAL_GetREVID ; 0x80021a8
        0x080043f4:    f2410103    A...    MOV      r1,#0x1003
        0x080043f8:    4288        .B      CMP      r0,r1
        0x080043fa:    d822        ".      BHI      0x8004442 ; HAL_RCC_OscConfig + 810
        0x080043fc:    f8d80020    .. .    LDR      r0,[r8,#0x20]
        0x08004400:    f8d91004    ....    LDR      r1,[r9,#4]
        0x08004404:    2820         (      CMP      r0,#0x20
        0x08004406:    f02141f8    !..A    BIC      r1,r1,#0x7c000000
        0x0800440a:    d142        B.      BNE      0x8004492 ; HAL_RCC_OscConfig + 890
        0x0800440c:    f0414080    A..@    ORR      r0,r1,#0x40000000
        0x08004410:    e041        A.      B        0x8004496 ; HAL_RCC_OscConfig + 894
        0x08004412:    f8d8001c    ....    LDR      r0,[r8,#0x1c]
        0x08004416:    2800        .(      CMP      r0,#0
        0x08004418:    f8d90000    ....    LDR      r0,[r9,#0]
        0x0800441c:    d020         .      BEQ      0x8004460 ; HAL_RCC_OscConfig + 840
        0x0800441e:    f0400080    @...    ORR      r0,r0,#0x80
        0x08004422:    f8c90000    ....    STR      r0,[r9,#0]
        0x08004426:    f7fdfec7    ....    BL       HAL_GetTick ; 0x80021b8
        0x0800442a:    4605        .F      MOV      r5,r0
        0x0800442c:    f8d90000    ....    LDR      r0,[r9,#0]
        0x08004430:    05c0        ..      LSLS     r0,r0,#23
        0x08004432:    d4dd        ..      BMI      0x80043f0 ; HAL_RCC_OscConfig + 728
        0x08004434:    f7fdfec0    ....    BL       HAL_GetTick ; 0x80021b8
        0x08004438:    1b40        @.      SUBS     r0,r0,r5
        0x0800443a:    2802        .(      CMP      r0,#2
        0x0800443c:    d9f6        ..      BLS      0x800442c ; HAL_RCC_OscConfig + 788
        0x0800443e:    2703        .'      MOVS     r7,#3
        0x08004440:    e031        1.      B        0x80044a6 ; HAL_RCC_OscConfig + 910
        0x08004442:    f8d9000c    ....    LDR      r0,[r9,#0xc]
        0x08004446:    f8d81020    .. .    LDR      r1,[r8,#0x20]
        0x0800444a:    f020507c     .|P    BIC      r0,r0,#0x3f000000
        0x0800444e:    2401        .$      MOVS     r4,#1
        0x08004450:    ea406001    @..`    ORR      r0,r0,r1,LSL #24
        0x08004454:    f8c9000c    ....    STR      r0,[r9,#0xc]
        0x08004458:    2c00        .,      CMP      r4,#0
        0x0800445a:    f00082c3    ....    BEQ.W    0x80049e4 ; HAL_RCC_OscConfig + 2252
        0x0800445e:    e026        &.      B        0x80044ae ; HAL_RCC_OscConfig + 918
        0x08004460:    f0200080     ...    BIC      r0,r0,#0x80
        0x08004464:    f8c90000    ....    STR      r0,[r9,#0]
        0x08004468:    f7fdfea6    ....    BL       HAL_GetTick ; 0x80021b8
        0x0800446c:    4605        .F      MOV      r5,r0
        0x0800446e:    2601        .&      MOVS     r6,#1
        0x08004470:    f8d90000    ....    LDR      r0,[r9,#0]
        0x08004474:    f4107080    ...p    ANDS     r0,r0,#0x100
        0x08004478:    ea862410    ...$    EOR      r4,r6,r0,LSR #8
        0x0800447c:    d00e        ..      BEQ      0x800449c ; HAL_RCC_OscConfig + 900
        0x0800447e:    f7fdfe9b    ....    BL       HAL_GetTick ; 0x80021b8
        0x08004482:    1b40        @.      SUBS     r0,r0,r5
        0x08004484:    2803        .(      CMP      r0,#3
        0x08004486:    d3f3        ..      BCC      0x8004470 ; HAL_RCC_OscConfig + 856
        0x08004488:    2703        .'      MOVS     r7,#3
        0x0800448a:    2c00        .,      CMP      r4,#0
        0x0800448c:    f00082aa    ....    BEQ.W    0x80049e4 ; HAL_RCC_OscConfig + 2252
        0x08004490:    e00d        ..      B        0x80044ae ; HAL_RCC_OscConfig + 918
        0x08004492:    ea416080    A..`    ORR      r0,r1,r0,LSL #26
        0x08004496:    f8c90004    ....    STR      r0,[r9,#4]
        0x0800449a:    2401        .$      MOVS     r4,#1
        0x0800449c:    2c00        .,      CMP      r4,#0
        0x0800449e:    f00082a1    ....    BEQ.W    0x80049e4 ; HAL_RCC_OscConfig + 2252
        0x080044a2:    e004        ..      B        0x80044ae ; HAL_RCC_OscConfig + 918
        0x080044a4:    2701        .'      MOVS     r7,#1
        0x080044a6:    2400        .$      MOVS     r4,#0
        0x080044a8:    2c00        .,      CMP      r4,#0
        0x080044aa:    f000829b    ....    BEQ.W    0x80049e4 ; HAL_RCC_OscConfig + 2252
        0x080044ae:    f8980000    ....    LDRB     r0,[r8,#0]
        0x080044b2:    0700        ..      LSLS     r0,r0,#28
        0x080044b4:    d428        (.      BMI      0x8004508 ; HAL_RCC_OscConfig + 1008
        0x080044b6:    f8980000    ....    LDRB     r0,[r8,#0]
        0x080044ba:    0680        ..      LSLS     r0,r0,#26
        0x080044bc:    d449        I.      BMI      0x8004552 ; HAL_RCC_OscConfig + 1082
        0x080044be:    f8980000    ....    LDRB     r0,[r8,#0]
        0x080044c2:    0740        @.      LSLS     r0,r0,#29
        0x080044c4:    d469        i.      BMI      0x800459a ; HAL_RCC_OscConfig + 1154
        0x080044c6:    f8d80024    ..$.    LDR      r0,[r8,#0x24]
        0x080044ca:    2803        .(      CMP      r0,#3
        0x080044cc:    d307        ..      BCC      0x80044de ; HAL_RCC_OscConfig + 966
        0x080044ce:    f64740f5    G..@    MOV      r0,#0x7cf5
        0x080044d2:    f44f713d    O.=q    MOV      r1,#0x2f4
        0x080044d6:    f6c00000    ....    MOVT     r0,#0x800
        0x080044da:    f002fdf5    ....    BL       assert_failed ; 0x80070c8
        0x080044de:    f8d80024    ..$.    LDR      r0,[r8,#0x24]
        0x080044e2:    2800        .(      CMP      r0,#0
        0x080044e4:    f00080bb    ....    BEQ.W    0x800465e ; HAL_RCC_OscConfig + 1350
        0x080044e8:    f8d91010    ....    LDR      r1,[r9,#0x10]
        0x080044ec:    f0010138    ..8.    AND      r1,r1,#0x38
        0x080044f0:    2918        .)      CMP      r1,#0x18
        0x080044f2:    f04080b6    @...    BNE.W    0x8004662 ; HAL_RCC_OscConfig + 1354
        0x080044f6:    2801        .(      CMP      r0,#1
        0x080044f8:    f8d91028    ..(.    LDR      r1,[r9,#0x28]
        0x080044fc:    f8d90030    ..0.    LDR      r0,[r9,#0x30]
        0x08004500:    f0408141    @.A.    BNE.W    0x8004786 ; HAL_RCC_OscConfig + 1646
        0x08004504:    2701        .'      MOVS     r7,#1
        0x08004506:    e26d        m.      B        0x80049e4 ; HAL_RCC_OscConfig + 2252
        0x08004508:    f8d80014    ....    LDR      r0,[r8,#0x14]
        0x0800450c:    2802        .(      CMP      r0,#2
        0x0800450e:    d307        ..      BCC      0x8004520 ; HAL_RCC_OscConfig + 1032
        0x08004510:    f64740f5    G..@    MOV      r0,#0x7cf5
        0x08004514:    f240216d    @.m!    MOV      r1,#0x26d
        0x08004518:    f6c00000    ....    MOVT     r0,#0x800
        0x0800451c:    f002fdd4    ....    BL       assert_failed ; 0x80070c8
        0x08004520:    f8d80014    ....    LDR      r0,[r8,#0x14]
        0x08004524:    2800        .(      CMP      r0,#0
        0x08004526:    f8d90074    ..t.    LDR      r0,[r9,#0x74]
        0x0800452a:    d05c        \.      BEQ      0x80045e6 ; HAL_RCC_OscConfig + 1230
        0x0800452c:    f0400001    @...    ORR      r0,r0,#1
        0x08004530:    f8c90074    ..t.    STR      r0,[r9,#0x74]
        0x08004534:    f7fdfe40    ..@.    BL       HAL_GetTick ; 0x80021b8
        0x08004538:    4605        .F      MOV      r5,r0
        0x0800453a:    bf00        ..      NOP      
        0x0800453c:    f8d90074    ..t.    LDR      r0,[r9,#0x74]
        0x08004540:    0780        ..      LSLS     r0,r0,#30
        0x08004542:    d4b8        ..      BMI      0x80044b6 ; HAL_RCC_OscConfig + 926
        0x08004544:    f7fdfe38    ..8.    BL       HAL_GetTick ; 0x80021b8
        0x08004548:    1b40        @.      SUBS     r0,r0,r5
        0x0800454a:    2802        .(      CMP      r0,#2
        0x0800454c:    d9f6        ..      BLS      0x800453c ; HAL_RCC_OscConfig + 1060
        0x0800454e:    2703        .'      MOVS     r7,#3
        0x08004550:    e248        H.      B        0x80049e4 ; HAL_RCC_OscConfig + 2252
        0x08004552:    f8d80018    ....    LDR      r0,[r8,#0x18]
        0x08004556:    2802        .(      CMP      r0,#2
        0x08004558:    d307        ..      BCC      0x800456a ; HAL_RCC_OscConfig + 1106
        0x0800455a:    f64740f5    G..@    MOV      r0,#0x7cf5
        0x0800455e:    f44f7126    O.&q    MOV      r1,#0x298
        0x08004562:    f6c00000    ....    MOVT     r0,#0x800
        0x08004566:    f002fdaf    ....    BL       assert_failed ; 0x80070c8
        0x0800456a:    f8d80018    ....    LDR      r0,[r8,#0x18]
        0x0800456e:    2800        .(      CMP      r0,#0
        0x08004570:    f8d90000    ....    LDR      r0,[r9,#0]
        0x08004574:    d05f        _.      BEQ      0x8004636 ; HAL_RCC_OscConfig + 1310
        0x08004576:    f4405080    @..P    ORR      r0,r0,#0x1000
        0x0800457a:    f8c90000    ....    STR      r0,[r9,#0]
        0x0800457e:    f7fdfe1b    ....    BL       HAL_GetTick ; 0x80021b8
        0x08004582:    4605        .F      MOV      r5,r0
        0x08004584:    f8d90000    ....    LDR      r0,[r9,#0]
        0x08004588:    0480        ..      LSLS     r0,r0,#18
        0x0800458a:    d498        ..      BMI      0x80044be ; HAL_RCC_OscConfig + 934
        0x0800458c:    f7fdfe14    ....    BL       HAL_GetTick ; 0x80021b8
        0x08004590:    1b40        @.      SUBS     r0,r0,r5
        0x08004592:    2802        .(      CMP      r0,#2
        0x08004594:    d9f6        ..      BLS      0x8004584 ; HAL_RCC_OscConfig + 1132
        0x08004596:    2703        .'      MOVS     r7,#3
        0x08004598:    e224        $.      B        0x80049e4 ; HAL_RCC_OscConfig + 2252
        0x0800459a:    f8d80008    ....    LDR      r0,[r8,#8]
        0x0800459e:    2805        .(      CMP      r0,#5
        0x080045a0:    d805        ..      BHI      0x80045ae ; HAL_RCC_OscConfig + 1174
        0x080045a2:    2101        .!      MOVS     r1,#1
        0x080045a4:    fa01f000    ....    LSL      r0,r1,r0
        0x080045a8:    f0100f23    ..#.    TST      r0,#0x23
        0x080045ac:    d107        ..      BNE      0x80045be ; HAL_RCC_OscConfig + 1190
        0x080045ae:    f64740f5    G..@    MOV      r0,#0x7cf5
        0x080045b2:    f24021c2    @..!    MOV      r1,#0x2c2
        0x080045b6:    f6c00000    ....    MOVT     r0,#0x800
        0x080045ba:    f002fd85    ....    BL       assert_failed ; 0x80070c8
        0x080045be:    f8d90400    ....    LDR      r0,[r9,#0x400]
        0x080045c2:    f4407080    @..p    ORR      r0,r0,#0x100
        0x080045c6:    f8c90400    ....    STR      r0,[r9,#0x400]
        0x080045ca:    f7fdfdf5    ....    BL       HAL_GetTick ; 0x80021b8
        0x080045ce:    4605        .F      MOV      r5,r0
        0x080045d0:    f8d90400    ....    LDR      r0,[r9,#0x400]
        0x080045d4:    05c0        ..      LSLS     r0,r0,#23
        0x080045d6:    d41a        ..      BMI      0x800460e ; HAL_RCC_OscConfig + 1270
        0x080045d8:    f7fdfdee    ....    BL       HAL_GetTick ; 0x80021b8
        0x080045dc:    1b40        @.      SUBS     r0,r0,r5
        0x080045de:    2864        d(      CMP      r0,#0x64
        0x080045e0:    d9f6        ..      BLS      0x80045d0 ; HAL_RCC_OscConfig + 1208
        0x080045e2:    2703        .'      MOVS     r7,#3
        0x080045e4:    e1fe        ..      B        0x80049e4 ; HAL_RCC_OscConfig + 2252
        0x080045e6:    f0200001     ...    BIC      r0,r0,#1
        0x080045ea:    f8c90074    ..t.    STR      r0,[r9,#0x74]
        0x080045ee:    f7fdfde3    ....    BL       HAL_GetTick ; 0x80021b8
        0x080045f2:    4605        .F      MOV      r5,r0
        0x080045f4:    2703        .'      MOVS     r7,#3
        0x080045f6:    bf00        ..      NOP      
        0x080045f8:    f8d90074    ..t.    LDR      r0,[r9,#0x74]
        0x080045fc:    0780        ..      LSLS     r0,r0,#30
        0x080045fe:    f57faf5a    ..Z.    BPL      0x80044b6 ; HAL_RCC_OscConfig + 926
        0x08004602:    f7fdfdd9    ....    BL       HAL_GetTick ; 0x80021b8
        0x08004606:    1b40        @.      SUBS     r0,r0,r5
        0x08004608:    2802        .(      CMP      r0,#2
        0x0800460a:    d9f5        ..      BLS      0x80045f8 ; HAL_RCC_OscConfig + 1248
        0x0800460c:    e1ea        ..      B        0x80049e4 ; HAL_RCC_OscConfig + 2252
        0x0800460e:    f8d84008    ...@    LDR      r4,[r8,#8]
        0x08004612:    b12c        ,.      CBZ      r4,0x8004620 ; HAL_RCC_OscConfig + 1288
        0x08004614:    2c05        .,      CMP      r4,#5
        0x08004616:    f0008106    ....    BEQ.W    0x8004826 ; HAL_RCC_OscConfig + 1806
        0x0800461a:    2c01        .,      CMP      r4,#1
        0x0800461c:    f0008109    ....    BEQ.W    0x8004832 ; HAL_RCC_OscConfig + 1818
        0x08004620:    f8d90070    ..p.    LDR      r0,[r9,#0x70]
        0x08004624:    f0200001     ...    BIC      r0,r0,#1
        0x08004628:    f8c90070    ..p.    STR      r0,[r9,#0x70]
        0x0800462c:    f8d90070    ..p.    LDR      r0,[r9,#0x70]
        0x08004630:    f0200004     ...    BIC      r0,r0,#4
        0x08004634:    e101        ..      B        0x800483a ; HAL_RCC_OscConfig + 1826
        0x08004636:    f4205080     ..P    BIC      r0,r0,#0x1000
        0x0800463a:    f8c90000    ....    STR      r0,[r9,#0]
        0x0800463e:    f7fdfdbb    ....    BL       HAL_GetTick ; 0x80021b8
        0x08004642:    4605        .F      MOV      r5,r0
        0x08004644:    2703        .'      MOVS     r7,#3
        0x08004646:    bf00        ..      NOP      
        0x08004648:    f8d90000    ....    LDR      r0,[r9,#0]
        0x0800464c:    0480        ..      LSLS     r0,r0,#18
        0x0800464e:    f57faf36    ..6.    BPL      0x80044be ; HAL_RCC_OscConfig + 934
        0x08004652:    f7fdfdb1    ....    BL       HAL_GetTick ; 0x80021b8
        0x08004656:    1b40        @.      SUBS     r0,r0,r5
        0x08004658:    2802        .(      CMP      r0,#2
        0x0800465a:    d9f5        ..      BLS      0x8004648 ; HAL_RCC_OscConfig + 1328
        0x0800465c:    e1c2        ..      B        0x80049e4 ; HAL_RCC_OscConfig + 2252
        0x0800465e:    2700        .'      MOVS     r7,#0
        0x08004660:    e1c0        ..      B        0x80049e4 ; HAL_RCC_OscConfig + 2252
        0x08004662:    2802        .(      CMP      r0,#2
        0x08004664:    f04080c9    @...    BNE.W    0x80047fa ; HAL_RCC_OscConfig + 1762
        0x08004668:    f8d80028    ..(.    LDR      r0,[r8,#0x28]
        0x0800466c:    2804        .(      CMP      r0,#4
        0x0800466e:    d307        ..      BCC      0x8004680 ; HAL_RCC_OscConfig + 1384
        0x08004670:    f64740f5    G..@    MOV      r0,#0x7cf5
        0x08004674:    f24021fd    @..!    MOV      r1,#0x2fd
        0x08004678:    f6c00000    ....    MOVT     r0,#0x800
        0x0800467c:    f002fd24    ..$.    BL       assert_failed ; 0x80070c8
        0x08004680:    f8d80040    ..@.    LDR      r0,[r8,#0x40]
        0x08004684:    ea4f00b0    O...    ROR      r0,r0,#2
        0x08004688:    2804        .(      CMP      r0,#4
        0x0800468a:    d307        ..      BCC      0x800469c ; HAL_RCC_OscConfig + 1412
        0x0800468c:    f64740f5    G..@    MOV      r0,#0x7cf5
        0x08004690:    f24021fe    @..!    MOV      r1,#0x2fe
        0x08004694:    f6c00000    ....    MOVT     r0,#0x800
        0x08004698:    f002fd16    ....    BL       assert_failed ; 0x80070c8
        0x0800469c:    f8d80044    ..D.    LDR      r0,[r8,#0x44]
        0x080046a0:    f0400002    @...    ORR      r0,r0,#2
        0x080046a4:    2802        .(      CMP      r0,#2
        0x080046a6:    d007        ..      BEQ      0x80046b8 ; HAL_RCC_OscConfig + 1440
        0x080046a8:    f64740f5    G..@    MOV      r0,#0x7cf5
        0x080046ac:    f24021ff    @..!    MOV      r1,#0x2ff
        0x080046b0:    f6c00000    ....    MOVT     r0,#0x800
        0x080046b4:    f002fd08    ....    BL       assert_failed ; 0x80070c8
        0x080046b8:    f8d8002c    ..,.    LDR      r0,[r8,#0x2c]
        0x080046bc:    3801        .8      SUBS     r0,#1
        0x080046be:    283f        ?(      CMP      r0,#0x3f
        0x080046c0:    d307        ..      BCC      0x80046d2 ; HAL_RCC_OscConfig + 1466
        0x080046c2:    f64740f5    G..@    MOV      r0,#0x7cf5
        0x080046c6:    f44f7140    O.@q    MOV      r1,#0x300
        0x080046ca:    f6c00000    ....    MOVT     r0,#0x800
        0x080046ce:    f002fcfb    ....    BL       assert_failed ; 0x80070c8
        0x080046d2:    f8d80030    ..0.    LDR      r0,[r8,#0x30]
        0x080046d6:    3804        .8      SUBS     r0,#4
        0x080046d8:    f5b07ffe    ....    CMP      r0,#0x1fc
        0x080046dc:    d907        ..      BLS      0x80046ee ; HAL_RCC_OscConfig + 1494
        0x080046de:    f64740f5    G..@    MOV      r0,#0x7cf5
        0x080046e2:    f2403101    @..1    MOV      r1,#0x301
        0x080046e6:    f6c00000    ....    MOVT     r0,#0x800
        0x080046ea:    f002fced    ....    BL       assert_failed ; 0x80070c8
        0x080046ee:    f8d80034    ..4.    LDR      r0,[r8,#0x34]
        0x080046f2:    3801        .8      SUBS     r0,#1
        0x080046f4:    2880        .(      CMP      r0,#0x80
        0x080046f6:    d307        ..      BCC      0x8004708 ; HAL_RCC_OscConfig + 1520
        0x080046f8:    f64740f5    G..@    MOV      r0,#0x7cf5
        0x080046fc:    f2403102    @..1    MOV      r1,#0x302
        0x08004700:    f6c00000    ....    MOVT     r0,#0x800
        0x08004704:    f002fce0    ....    BL       assert_failed ; 0x80070c8
        0x08004708:    f8d80038    ..8.    LDR      r0,[r8,#0x38]
        0x0800470c:    3801        .8      SUBS     r0,#1
        0x0800470e:    2880        .(      CMP      r0,#0x80
        0x08004710:    d307        ..      BCC      0x8004722 ; HAL_RCC_OscConfig + 1546
        0x08004712:    f64740f5    G..@    MOV      r0,#0x7cf5
        0x08004716:    f2403103    @..1    MOV      r1,#0x303
        0x0800471a:    f6c00000    ....    MOVT     r0,#0x800
        0x0800471e:    f002fcd3    ....    BL       assert_failed ; 0x80070c8
        0x08004722:    f8d8003c    ..<.    LDR      r0,[r8,#0x3c]
        0x08004726:    3801        .8      SUBS     r0,#1
        0x08004728:    2880        .(      CMP      r0,#0x80
        0x0800472a:    d307        ..      BCC      0x800473c ; HAL_RCC_OscConfig + 1572
        0x0800472c:    f64740f5    G..@    MOV      r0,#0x7cf5
        0x08004730:    f44f7141    O.Aq    MOV      r1,#0x304
        0x08004734:    f6c00000    ....    MOVT     r0,#0x800
        0x08004738:    f002fcc6    ....    BL       assert_failed ; 0x80070c8
        0x0800473c:    f8d80048    ..H.    LDR      r0,[r8,#0x48]
        0x08004740:    f5b05f00    ..._    CMP      r0,#0x2000
        0x08004744:    d307        ..      BCC      0x8004756 ; HAL_RCC_OscConfig + 1598
        0x08004746:    f64740f5    G..@    MOV      r0,#0x7cf5
        0x0800474a:    f2403105    @..1    MOV      r1,#0x305
        0x0800474e:    f6c00000    ....    MOVT     r0,#0x800
        0x08004752:    f002fcb9    ....    BL       assert_failed ; 0x80070c8
        0x08004756:    f8d90000    ....    LDR      r0,[r9,#0]
        0x0800475a:    f0207080     ..p    BIC      r0,r0,#0x1000000
        0x0800475e:    f8c90000    ....    STR      r0,[r9,#0]
        0x08004762:    f7fdfd29    ..).    BL       HAL_GetTick ; 0x80021b8
        0x08004766:    4605        .F      MOV      r5,r0
        0x08004768:    2703        .'      MOVS     r7,#3
        0x0800476a:    bf00        ..      NOP      
        0x0800476c:    f8d90000    ....    LDR      r0,[r9,#0]
        0x08004770:    0180        ..      LSLS     r0,r0,#6
        0x08004772:    f1408084    @...    BPL.W    0x800487e ; HAL_RCC_OscConfig + 1894
        0x08004776:    f7fdfd1f    ....    BL       HAL_GetTick ; 0x80021b8
        0x0800477a:    1b40        @.      SUBS     r0,r0,r5
        0x0800477c:    2802        .(      CMP      r0,#2
        0x0800477e:    d9f5        ..      BLS      0x800476c ; HAL_RCC_OscConfig + 1620
        0x08004780:    e130        0.      B        0x80049e4 ; HAL_RCC_OscConfig + 2252
        0x08004782:    2701        .'      MOVS     r7,#1
        0x08004784:    e5b6        ..      B        0x80042f4 ; HAL_RCC_OscConfig + 476
        0x08004786:    f0010203    ....    AND      r2,r1,#3
        0x0800478a:    f8d83028    ..(0    LDR      r3,[r8,#0x28]
        0x0800478e:    429a        .B      CMP      r2,r3
        0x08004790:    f04080f0    @...    BNE.W    0x8004974 ; HAL_RCC_OscConfig + 2140
        0x08004794:    f3c11105    ....    UBFX     r1,r1,#4,#6
        0x08004798:    f8d8202c    ..,     LDR      r2,[r8,#0x2c]
        0x0800479c:    4291        .B      CMP      r1,r2
        0x0800479e:    f04080ed    @...    BNE.W    0x800497c ; HAL_RCC_OscConfig + 2148
        0x080047a2:    4601        .F      MOV      r1,r0
        0x080047a4:    f8d82030    ..0     LDR      r2,[r8,#0x30]
        0x080047a8:    f36f215f    o._!    BFC      r1,#9,#23
        0x080047ac:    3a01        .:      SUBS     r2,#1
        0x080047ae:    4291        .B      CMP      r1,r2
        0x080047b0:    f04080e6    @...    BNE.W    0x8004980 ; HAL_RCC_OscConfig + 2152
        0x080047b4:    f3c02246    ..F"    UBFX     r2,r0,#9,#7
        0x080047b8:    f8d81034    ..4.    LDR      r1,[r8,#0x34]
        0x080047bc:    3901        .9      SUBS     r1,#1
        0x080047be:    428a        .B      CMP      r2,r1
        0x080047c0:    f04080e0    @...    BNE.W    0x8004984 ; HAL_RCC_OscConfig + 2156
        0x080047c4:    f3c04206    ...B    UBFX     r2,r0,#16,#7
        0x080047c8:    f8d81038    ..8.    LDR      r1,[r8,#0x38]
        0x080047cc:    3901        .9      SUBS     r1,#1
        0x080047ce:    428a        .B      CMP      r2,r1
        0x080047d0:    f04080da    @...    BNE.W    0x8004988 ; HAL_RCC_OscConfig + 2160
        0x080047d4:    f3c06006    ...`    UBFX     r0,r0,#24,#7
        0x080047d8:    f8d8103c    ..<.    LDR      r1,[r8,#0x3c]
        0x080047dc:    3901        .9      SUBS     r1,#1
        0x080047de:    4288        .B      CMP      r0,r1
        0x080047e0:    f04080d4    @...    BNE.W    0x800498c ; HAL_RCC_OscConfig + 2164
        0x080047e4:    f8d90034    ..4.    LDR      r0,[r9,#0x34]
        0x080047e8:    f3c001cc    ....    UBFX     r1,r0,#3,#13
        0x080047ec:    f8d80048    ..H.    LDR      r0,[r8,#0x48]
        0x080047f0:    4288        .B      CMP      r0,r1
        0x080047f2:    f04080cd    @...    BNE.W    0x8004990 ; HAL_RCC_OscConfig + 2168
        0x080047f6:    2700        .'      MOVS     r7,#0
        0x080047f8:    e0f4        ..      B        0x80049e4 ; HAL_RCC_OscConfig + 2252
        0x080047fa:    f8d90000    ....    LDR      r0,[r9,#0]
        0x080047fe:    f0207080     ..p    BIC      r0,r0,#0x1000000
        0x08004802:    f8c90000    ....    STR      r0,[r9,#0]
        0x08004806:    f7fdfcd7    ....    BL       HAL_GetTick ; 0x80021b8
        0x0800480a:    4604        .F      MOV      r4,r0
        0x0800480c:    2703        .'      MOVS     r7,#3
        0x0800480e:    bf00        ..      NOP      
        0x08004810:    f8d90000    ....    LDR      r0,[r9,#0]
        0x08004814:    0180        ..      LSLS     r0,r0,#6
        0x08004816:    f14080ab    @...    BPL.W    0x8004970 ; HAL_RCC_OscConfig + 2136
        0x0800481a:    f7fdfccd    ....    BL       HAL_GetTick ; 0x80021b8
        0x0800481e:    1b00        ..      SUBS     r0,r0,r4
        0x08004820:    2802        .(      CMP      r0,#2
        0x08004822:    d9f5        ..      BLS      0x8004810 ; HAL_RCC_OscConfig + 1784
        0x08004824:    e0de        ..      B        0x80049e4 ; HAL_RCC_OscConfig + 2252
        0x08004826:    f8d90070    ..p.    LDR      r0,[r9,#0x70]
        0x0800482a:    f0400004    @...    ORR      r0,r0,#4
        0x0800482e:    f8c90070    ..p.    STR      r0,[r9,#0x70]
        0x08004832:    f8d90070    ..p.    LDR      r0,[r9,#0x70]
        0x08004836:    f0400001    @...    ORR      r0,r0,#1
        0x0800483a:    f8c90070    ..p.    STR      r0,[r9,#0x70]
        0x0800483e:    f7fdfcbb    ....    BL       HAL_GetTick ; 0x80021b8
        0x08004842:    2c00        .,      CMP      r4,#0
        0x08004844:    4605        .F      MOV      r5,r0
        0x08004846:    f2413488    A..4    MOV      r4,#0x1388
        0x0800484a:    f04f0703    O...    MOV      r7,#3
        0x0800484e:    d011        ..      BEQ      0x8004874 ; HAL_RCC_OscConfig + 1884
        0x08004850:    f8d90070    ..p.    LDR      r0,[r9,#0x70]
        0x08004854:    0780        ..      LSLS     r0,r0,#30
        0x08004856:    f53fae36    ?.6.    BMI      0x80044c6 ; HAL_RCC_OscConfig + 942
        0x0800485a:    f7fdfcad    ....    BL       HAL_GetTick ; 0x80021b8
        0x0800485e:    1b40        @.      SUBS     r0,r0,r5
        0x08004860:    42a0        .B      CMP      r0,r4
        0x08004862:    d9f5        ..      BLS      0x8004850 ; HAL_RCC_OscConfig + 1848
        0x08004864:    e0be        ..      B        0x80049e4 ; HAL_RCC_OscConfig + 2252
        0x08004866:    bf00        ..      NOP      
        0x08004868:    f7fdfca6    ....    BL       HAL_GetTick ; 0x80021b8
        0x0800486c:    1b40        @.      SUBS     r0,r0,r5
        0x0800486e:    42a0        .B      CMP      r0,r4
        0x08004870:    f20080b8    ....    BHI.W    0x80049e4 ; HAL_RCC_OscConfig + 2252
        0x08004874:    f8d90070    ..p.    LDR      r0,[r9,#0x70]
        0x08004878:    0780        ..      LSLS     r0,r0,#30
        0x0800487a:    d4f5        ..      BMI      0x8004868 ; HAL_RCC_OscConfig + 1872
        0x0800487c:    e623        #.      B        0x80044c6 ; HAL_RCC_OscConfig + 942
        0x0800487e:    f1080728    ..(.    ADD      r7,r8,#0x28
        0x08004882:    f8d90028    ..(.    LDR      r0,[r9,#0x28]
        0x08004886:    f24031f3    @..1    MOV      r1,#0x3f3
        0x0800488a:    4388        .C      BICS     r0,r0,r1
        0x0800488c:    cf8e        ..      LDM      r7,{r1-r3,r7}
        0x0800488e:    4308        .C      ORRS     r0,r0,r1
        0x08004890:    1e59        Y.      SUBS     r1,r3,#1
        0x08004892:    ea401002    @...    ORR      r0,r0,r2,LSL #4
        0x08004896:    f44f427e    O.~B    MOV      r2,#0xfe00
        0x0800489a:    f36f215f    o._!    BFC      r1,#9,#23
        0x0800489e:    f8c90028    ..(.    STR      r0,[r9,#0x28]
        0x080048a2:    eb022047    ..G     ADD      r0,r2,r7,LSL #9
        0x080048a6:    f44f02fe    O...    MOV      r2,#0x7f0000
        0x080048aa:    b280        ..      UXTH     r0,r0
        0x080048ac:    f8d8303c    ..<0    LDR      r3,[r8,#0x3c]
        0x080048b0:    4408        .D      ADD      r0,r0,r1
        0x080048b2:    f8d81038    ..8.    LDR      r1,[r8,#0x38]
        0x080048b6:    eb024101    ...A    ADD      r1,r2,r1,LSL #16
        0x080048ba:    f04f42fe    O..B    MOV      r2,#0x7f000000
        0x080048be:    f40101fe    ....    AND      r1,r1,#0x7f0000
        0x080048c2:    eb026203    ...b    ADD      r2,r2,r3,LSL #24
        0x080048c6:    4408        .D      ADD      r0,r0,r1
        0x080048c8:    f00241fe    ...A    AND      r1,r2,#0x7f000000
        0x080048cc:    4408        .D      ADD      r0,r0,r1
        0x080048ce:    f8c90030    ..0.    STR      r0,[r9,#0x30]
        0x080048d2:    f8d9002c    ..,.    LDR      r0,[r9,#0x2c]
        0x080048d6:    f64f71f8    O..q    MOV      r1,#0xfff8
        0x080048da:    f0200001     ...    BIC      r0,r0,#1
        0x080048de:    f8c9002c    ..,.    STR      r0,[r9,#0x2c]
        0x080048e2:    f8d90034    ..4.    LDR      r0,[r9,#0x34]
        0x080048e6:    f8d82048    ..H     LDR      r2,[r8,#0x48]
        0x080048ea:    4388        .C      BICS     r0,r0,r1
        0x080048ec:    ea4000c2    @...    ORR      r0,r0,r2,LSL #3
        0x080048f0:    f8c90034    ..4.    STR      r0,[r9,#0x34]
        0x080048f4:    f8d9002c    ..,.    LDR      r0,[r9,#0x2c]
        0x080048f8:    f8d81040    ..@.    LDR      r1,[r8,#0x40]
        0x080048fc:    f020000c     ...    BIC      r0,r0,#0xc
        0x08004900:    4308        .C      ORRS     r0,r0,r1
        0x08004902:    f8c9002c    ..,.    STR      r0,[r9,#0x2c]
        0x08004906:    f8d9002c    ..,.    LDR      r0,[r9,#0x2c]
        0x0800490a:    f8d81044    ..D.    LDR      r1,[r8,#0x44]
        0x0800490e:    f0200002     ...    BIC      r0,r0,#2
        0x08004912:    4308        .C      ORRS     r0,r0,r1
        0x08004914:    f8c9002c    ..,.    STR      r0,[r9,#0x2c]
        0x08004918:    f8d9002c    ..,.    LDR      r0,[r9,#0x2c]
        0x0800491c:    f4403080    @..0    ORR      r0,r0,#0x10000
        0x08004920:    f8c9002c    ..,.    STR      r0,[r9,#0x2c]
        0x08004924:    f8d9002c    ..,.    LDR      r0,[r9,#0x2c]
        0x08004928:    f4403000    @..0    ORR      r0,r0,#0x20000
        0x0800492c:    f8c9002c    ..,.    STR      r0,[r9,#0x2c]
        0x08004930:    f8d9002c    ..,.    LDR      r0,[r9,#0x2c]
        0x08004934:    f4402080    @..     ORR      r0,r0,#0x40000
        0x08004938:    f8c9002c    ..,.    STR      r0,[r9,#0x2c]
        0x0800493c:    f8d9002c    ..,.    LDR      r0,[r9,#0x2c]
        0x08004940:    f0400001    @...    ORR      r0,r0,#1
        0x08004944:    f8c9002c    ..,.    STR      r0,[r9,#0x2c]
        0x08004948:    f8d90000    ....    LDR      r0,[r9,#0]
        0x0800494c:    f0407080    @..p    ORR      r0,r0,#0x1000000
        0x08004950:    f8c90000    ....    STR      r0,[r9,#0]
        0x08004954:    f7fdfc30    ..0.    BL       HAL_GetTick ; 0x80021b8
        0x08004958:    4604        .F      MOV      r4,r0
        0x0800495a:    2703        .'      MOVS     r7,#3
        0x0800495c:    f8d90000    ....    LDR      r0,[r9,#0]
        0x08004960:    0180        ..      LSLS     r0,r0,#6
        0x08004962:    d409        ..      BMI      0x8004978 ; HAL_RCC_OscConfig + 2144
        0x08004964:    f7fdfc28    ..(.    BL       HAL_GetTick ; 0x80021b8
        0x08004968:    1b00        ..      SUBS     r0,r0,r4
        0x0800496a:    2802        .(      CMP      r0,#2
        0x0800496c:    d9f6        ..      BLS      0x800495c ; HAL_RCC_OscConfig + 2116
        0x0800496e:    e039        9.      B        0x80049e4 ; HAL_RCC_OscConfig + 2252
        0x08004970:    2700        .'      MOVS     r7,#0
        0x08004972:    e037        7.      B        0x80049e4 ; HAL_RCC_OscConfig + 2252
        0x08004974:    2701        .'      MOVS     r7,#1
        0x08004976:    e035        5.      B        0x80049e4 ; HAL_RCC_OscConfig + 2252
        0x08004978:    2700        .'      MOVS     r7,#0
        0x0800497a:    e033        3.      B        0x80049e4 ; HAL_RCC_OscConfig + 2252
        0x0800497c:    2701        .'      MOVS     r7,#1
        0x0800497e:    e031        1.      B        0x80049e4 ; HAL_RCC_OscConfig + 2252
        0x08004980:    2701        .'      MOVS     r7,#1
        0x08004982:    e02f        /.      B        0x80049e4 ; HAL_RCC_OscConfig + 2252
        0x08004984:    2701        .'      MOVS     r7,#1
        0x08004986:    e02d        -.      B        0x80049e4 ; HAL_RCC_OscConfig + 2252
        0x08004988:    2701        .'      MOVS     r7,#1
        0x0800498a:    e02b        +.      B        0x80049e4 ; HAL_RCC_OscConfig + 2252
        0x0800498c:    2701        .'      MOVS     r7,#1
        0x0800498e:    e029        ).      B        0x80049e4 ; HAL_RCC_OscConfig + 2252
        0x08004990:    f5b05f00    ..._    CMP      r0,#0x2000
        0x08004994:    d307        ..      BCC      0x80049a6 ; HAL_RCC_OscConfig + 2190
        0x08004996:    f64740f5    G..@    MOV      r0,#0x7cf5
        0x0800499a:    f44f715b    O.[q    MOV      r1,#0x36c
        0x0800499e:    f6c00000    ....    MOVT     r0,#0x800
        0x080049a2:    f002fb91    ....    BL       assert_failed ; 0x80070c8
        0x080049a6:    f8d9002c    ..,.    LDR      r0,[r9,#0x2c]
        0x080049aa:    f0200001     ...    BIC      r0,r0,#1
        0x080049ae:    f8c9002c    ..,.    STR      r0,[r9,#0x2c]
        0x080049b2:    f7fdfc01    ....    BL       HAL_GetTick ; 0x80021b8
        0x080049b6:    4605        .F      MOV      r5,r0
        0x080049b8:    f7fdfbfe    ....    BL       HAL_GetTick ; 0x80021b8
        0x080049bc:    42a8        .B      CMP      r0,r5
        0x080049be:    d0fb        ..      BEQ      0x80049b8 ; HAL_RCC_OscConfig + 2208
        0x080049c0:    f8d90034    ..4.    LDR      r0,[r9,#0x34]
        0x080049c4:    f64f71f8    O..q    MOV      r1,#0xfff8
        0x080049c8:    f8d82048    ..H     LDR      r2,[r8,#0x48]
        0x080049cc:    4388        .C      BICS     r0,r0,r1
        0x080049ce:    2700        .'      MOVS     r7,#0
        0x080049d0:    ea4000c2    @...    ORR      r0,r0,r2,LSL #3
        0x080049d4:    f8c90034    ..4.    STR      r0,[r9,#0x34]
        0x080049d8:    f8d9002c    ..,.    LDR      r0,[r9,#0x2c]
        0x080049dc:    f0400001    @...    ORR      r0,r0,#1
        0x080049e0:    f8c9002c    ..,.    STR      r0,[r9,#0x2c]
        0x080049e4:    b2f8        ..      UXTB     r0,r7
        0x080049e6:    b001        ..      ADD      sp,sp,#4
        0x080049e8:    e8bd83f0    ....    POP      {r4-r9,pc}
        0x080049ec:    0000        ..      MOVS     r0,r0
        0x080049ee:    0000        ..      MOVS     r0,r0
    HAL_SYSTICK_Config
        0x080049f0:    b580        ..      PUSH     {r7,lr}
        0x080049f2:    f001fbc1    ....    BL       SysTick_Config ; 0x8006178
        0x080049f6:    bd80        ..      POP      {r7,pc}
    HAL_TIMEx_Break2Callback
        0x080049f8:    4770        pG      BX       lr
        0x080049fa:    0000        ..      MOVS     r0,r0
        0x080049fc:    0000        ..      MOVS     r0,r0
        0x080049fe:    0000        ..      MOVS     r0,r0
    HAL_TIMEx_BreakCallback
        0x08004a00:    4770        pG      BX       lr
        0x08004a02:    0000        ..      MOVS     r0,r0
        0x08004a04:    0000        ..      MOVS     r0,r0
        0x08004a06:    0000        ..      MOVS     r0,r0
    HAL_TIMEx_CommutCallback
        0x08004a08:    4770        pG      BX       lr
        0x08004a0a:    0000        ..      MOVS     r0,r0
        0x08004a0c:    0000        ..      MOVS     r0,r0
        0x08004a0e:    0000        ..      MOVS     r0,r0
    HAL_TIMEx_MasterConfigSynchronization
        0x08004a10:    e92d41f0    -..A    PUSH     {r4-r8,lr}
        0x08004a14:    f24132ff    A..2    MOV      r2,#0x13ff
        0x08004a18:    4604        .F      MOV      r4,r0
        0x08004a1a:    6800        .h      LDR      r0,[r0,#0]
        0x08004a1c:    f2c40200    ....    MOVT     r2,#0x4000
        0x08004a20:    4290        .B      CMP      r0,r2
        0x08004a22:    460d        .F      MOV      r5,r1
        0x08004a24:    dc14        ..      BGT      0x8004a50 ; HAL_TIMEx_MasterConfigSynchronization + 64
        0x08004a26:    f24071ff    @..q    MOV      r1,#0x7ff
        0x08004a2a:    f2c40100    ....    MOVT     r1,#0x4000
        0x08004a2e:    4288        .B      CMP      r0,r1
        0x08004a30:    dd26        &.      BLE      0x8004a80 ; HAL_TIMEx_MasterConfigSynchronization + 112
        0x08004a32:    f6400100    @...    MOVW     r1,#0x800
        0x08004a36:    f2c40100    ....    MOVT     r1,#0x4000
        0x08004a3a:    4288        .B      CMP      r0,r1
        0x08004a3c:    d03a        :.      BEQ      0x8004ab4 ; HAL_TIMEx_MasterConfigSynchronization + 164
        0x08004a3e:    f6404100    @..A    MOVW     r1,#0xc00
        0x08004a42:    f2c40100    ....    MOVT     r1,#0x4000
        0x08004a46:    4288        .B      CMP      r0,r1
        0x08004a48:    d034        4.      BEQ      0x8004ab4 ; HAL_TIMEx_MasterConfigSynchronization + 164
        0x08004a4a:    f2410100    A...    MOVW     r1,#0x1000
        0x08004a4e:    e025        %.      B        0x8004a9c ; HAL_TIMEx_MasterConfigSynchronization + 140
        0x08004a50:    f64f71ff    O..q    MOV      r1,#0xffff
        0x08004a54:    f2c40100    ....    MOVT     r1,#0x4000
        0x08004a58:    4288        .B      CMP      r0,r1
        0x08004a5a:    dd17        ..      BLE      0x8004a8c ; HAL_TIMEx_MasterConfigSynchronization + 124
        0x08004a5c:    2100        .!      MOVS     r1,#0
        0x08004a5e:    f2c40101    ....    MOVT     r1,#0x4001
        0x08004a62:    4288        .B      CMP      r0,r1
        0x08004a64:    d026        &.      BEQ      0x8004ab4 ; HAL_TIMEx_MasterConfigSynchronization + 164
        0x08004a66:    f2404100    @..A    MOVW     r1,#0x400
        0x08004a6a:    f2c40101    ....    MOVT     r1,#0x4001
        0x08004a6e:    4288        .B      CMP      r0,r1
        0x08004a70:    d020         .      BEQ      0x8004ab4 ; HAL_TIMEx_MasterConfigSynchronization + 164
        0x08004a72:    f2440100    D...    MOVW     r1,#0x4000
        0x08004a76:    f2c40101    ....    MOVT     r1,#0x4001
        0x08004a7a:    4288        .B      CMP      r0,r1
        0x08004a7c:    d01a        ..      BEQ      0x8004ab4 ; HAL_TIMEx_MasterConfigSynchronization + 164
        0x08004a7e:    e011        ..      B        0x8004aa4 ; HAL_TIMEx_MasterConfigSynchronization + 148
        0x08004a80:    f1b04f80    ...O    CMP      r0,#0x40000000
        0x08004a84:    d016        ..      BEQ      0x8004ab4 ; HAL_TIMEx_MasterConfigSynchronization + 164
        0x08004a86:    f2404100    @..A    MOVW     r1,#0x400
        0x08004a8a:    e007        ..      B        0x8004a9c ; HAL_TIMEx_MasterConfigSynchronization + 140
        0x08004a8c:    f2414100    A..A    MOVW     r1,#0x1400
        0x08004a90:    f2c40100    ....    MOVT     r1,#0x4000
        0x08004a94:    4288        .B      CMP      r0,r1
        0x08004a96:    d00d        ..      BEQ      0x8004ab4 ; HAL_TIMEx_MasterConfigSynchronization + 164
        0x08004a98:    f6410100    A...    MOVW     r1,#0x1800
        0x08004a9c:    f2c40100    ....    MOVT     r1,#0x4000
        0x08004aa0:    4288        .B      CMP      r0,r1
        0x08004aa2:    d007        ..      BEQ      0x8004ab4 ; HAL_TIMEx_MasterConfigSynchronization + 164
        0x08004aa4:    f647604f    G.O`    MOV      r0,#0x7e4f
        0x08004aa8:    f44f61fa    O..a    MOV      r1,#0x7d0
        0x08004aac:    f6c00000    ....    MOVT     r0,#0x800
        0x08004ab0:    f002fb0a    ....    BL       assert_failed ; 0x80070c8
        0x08004ab4:    6828        (h      LDR      r0,[r5,#0]
        0x08004ab6:    ea4f1030    O.0.    ROR      r0,r0,#4
        0x08004aba:    2808        .(      CMP      r0,#8
        0x08004abc:    d307        ..      BCC      0x8004ace ; HAL_TIMEx_MasterConfigSynchronization + 190
        0x08004abe:    f647604f    G.O`    MOV      r0,#0x7e4f
        0x08004ac2:    f24071d1    @..q    MOV      r1,#0x7d1
        0x08004ac6:    f6c00000    ....    MOVT     r0,#0x800
        0x08004aca:    f002fafd    ....    BL       assert_failed ; 0x80070c8
        0x08004ace:    68a8        .h      LDR      r0,[r5,#8]
        0x08004ad0:    f0400080    @...    ORR      r0,r0,#0x80
        0x08004ad4:    2880        .(      CMP      r0,#0x80
        0x08004ad6:    d007        ..      BEQ      0x8004ae8 ; HAL_TIMEx_MasterConfigSynchronization + 216
        0x08004ad8:    f647604f    G.O`    MOV      r0,#0x7e4f
        0x08004adc:    f24071d2    @..q    MOV      r1,#0x7d2
        0x08004ae0:    f6c00000    ....    MOVT     r0,#0x800
        0x08004ae4:    f002faf0    ....    BL       assert_failed ; 0x80070c8
        0x08004ae8:    f894003c    ..<.    LDRB     r0,[r4,#0x3c]
        0x08004aec:    2801        .(      CMP      r0,#1
        0x08004aee:    f04f0002    O...    MOV      r0,#2
        0x08004af2:    bf08        ..      IT       EQ
        0x08004af4:    e8bd81f0    ....    POPEQ    {r4-r8,pc}
        0x08004af8:    2101        .!      MOVS     r1,#1
        0x08004afa:    f884103c    ..<.    STRB     r1,[r4,#0x3c]
        0x08004afe:    f884003d    ..=.    STRB     r0,[r4,#0x3d]
        0x08004b02:    f2404800    @..H    MOVW     r8,#0x400
        0x08004b06:    6820         h      LDR      r0,[r4,#0]
        0x08004b08:    f2c40801    ....    MOVT     r8,#0x4001
        0x08004b0c:    f4406180    @..a    ORR      r1,r0,#0x400
        0x08004b10:    4541        AE      CMP      r1,r8
        0x08004b12:    6847        Gh      LDR      r7,[r0,#4]
        0x08004b14:    6886        .h      LDR      r6,[r0,#8]
        0x08004b16:    d111        ..      BNE      0x8004b3c ; HAL_TIMEx_MasterConfigSynchronization + 300
        0x08004b18:    6868        hh      LDR      r0,[r5,#4]
        0x08004b1a:    ea4f5030    O.0P    ROR      r0,r0,#20
        0x08004b1e:    2810        .(      CMP      r0,#0x10
        0x08004b20:    d307        ..      BCC      0x8004b32 ; HAL_TIMEx_MasterConfigSynchronization + 290
        0x08004b22:    f647604f    G.O`    MOV      r0,#0x7e4f
        0x08004b26:    f24071e4    @..q    MOV      r1,#0x7e4
        0x08004b2a:    f6c00000    ....    MOVT     r0,#0x800
        0x08004b2e:    f002facb    ....    BL       assert_failed ; 0x80070c8
        0x08004b32:    f4270070    '.p.    BIC      r0,r7,#0xf00000
        0x08004b36:    6869        ih      LDR      r1,[r5,#4]
        0x08004b38:    ea410700    A...    ORR      r7,r1,r0
        0x08004b3c:    f24172ff    A..r    MOV      r2,#0x17ff
        0x08004b40:    6820         h      LDR      r0,[r4,#0]
        0x08004b42:    f2c40200    ....    MOVT     r2,#0x4000
        0x08004b46:    f0270170    '.p.    BIC      r1,r7,#0x70
        0x08004b4a:    682b        +h      LDR      r3,[r5,#0]
        0x08004b4c:    4290        .B      CMP      r0,r2
        0x08004b4e:    ea410103    A...    ORR      r1,r1,r3
        0x08004b52:    6041        A`      STR      r1,[r0,#4]
        0x08004b54:    dc0b        ..      BGT      0x8004b6e ; HAL_TIMEx_MasterConfigSynchronization + 350
        0x08004b56:    f24071ff    @..q    MOV      r1,#0x7ff
        0x08004b5a:    f2c40100    ....    MOVT     r1,#0x4000
        0x08004b5e:    4288        .B      CMP      r0,r1
        0x08004b60:    dc15        ..      BGT      0x8004b8e ; HAL_TIMEx_MasterConfigSynchronization + 382
        0x08004b62:    f1b04f80    ...O    CMP      r0,#0x40000000
        0x08004b66:    d027        '.      BEQ      0x8004bb8 ; HAL_TIMEx_MasterConfigSynchronization + 424
        0x08004b68:    f2404100    @..A    MOVW     r1,#0x400
        0x08004b6c:    e017        ..      B        0x8004b9e ; HAL_TIMEx_MasterConfigSynchronization + 398
        0x08004b6e:    f24031ff    @..1    MOV      r1,#0x3ff
        0x08004b72:    f2c40101    ....    MOVT     r1,#0x4001
        0x08004b76:    4288        .B      CMP      r0,r1
        0x08004b78:    dc16        ..      BGT      0x8004ba8 ; HAL_TIMEx_MasterConfigSynchronization + 408
        0x08004b7a:    f6410100    A...    MOVW     r1,#0x1800
        0x08004b7e:    f2c40100    ....    MOVT     r1,#0x4000
        0x08004b82:    4288        .B      CMP      r0,r1
        0x08004b84:    d018        ..      BEQ      0x8004bb8 ; HAL_TIMEx_MasterConfigSynchronization + 424
        0x08004b86:    2100        .!      MOVS     r1,#0
        0x08004b88:    f2c40101    ....    MOVT     r1,#0x4001
        0x08004b8c:    e009        ..      B        0x8004ba2 ; HAL_TIMEx_MasterConfigSynchronization + 402
        0x08004b8e:    f6400100    @...    MOVW     r1,#0x800
        0x08004b92:    f2c40100    ....    MOVT     r1,#0x4000
        0x08004b96:    4288        .B      CMP      r0,r1
        0x08004b98:    d00e        ..      BEQ      0x8004bb8 ; HAL_TIMEx_MasterConfigSynchronization + 424
        0x08004b9a:    f6404100    @..A    MOVW     r1,#0xc00
        0x08004b9e:    f2c40100    ....    MOVT     r1,#0x4000
        0x08004ba2:    4288        .B      CMP      r0,r1
        0x08004ba4:    d008        ..      BEQ      0x8004bb8 ; HAL_TIMEx_MasterConfigSynchronization + 424
        0x08004ba6:    e00c        ..      B        0x8004bc2 ; HAL_TIMEx_MasterConfigSynchronization + 434
        0x08004ba8:    f2440100    D...    MOVW     r1,#0x4000
        0x08004bac:    f2c40101    ....    MOVT     r1,#0x4001
        0x08004bb0:    4288        .B      CMP      r0,r1
        0x08004bb2:    d001        ..      BEQ      0x8004bb8 ; HAL_TIMEx_MasterConfigSynchronization + 424
        0x08004bb4:    4540        @E      CMP      r0,r8
        0x08004bb6:    d104        ..      BNE      0x8004bc2 ; HAL_TIMEx_MasterConfigSynchronization + 434
        0x08004bb8:    f0260180    &...    BIC      r1,r6,#0x80
        0x08004bbc:    68aa        .h      LDR      r2,[r5,#8]
        0x08004bbe:    4311        .C      ORRS     r1,r1,r2
        0x08004bc0:    6081        .`      STR      r1,[r0,#8]
        0x08004bc2:    2001        .       MOVS     r0,#1
        0x08004bc4:    f884003d    ..=.    STRB     r0,[r4,#0x3d]
        0x08004bc8:    2000        .       MOVS     r0,#0
        0x08004bca:    f884003c    ..<.    STRB     r0,[r4,#0x3c]
        0x08004bce:    e8bd81f0    ....    POP      {r4-r8,pc}
        0x08004bd2:    0000        ..      MOVS     r0,r0
        0x08004bd4:    0000        ..      MOVS     r0,r0
        0x08004bd6:    0000        ..      MOVS     r0,r0
    HAL_TIM_Base_Init
        0x08004bd8:    b1f8        ..      CBZ      r0,0x8004c1a ; HAL_TIM_Base_Init + 66
        0x08004bda:    b5b0        ..      PUSH     {r4,r5,r7,lr}
        0x08004bdc:    f64131ff    A..1    MOV      r1,#0x1bff
        0x08004be0:    4604        .F      MOV      r4,r0
        0x08004be2:    6800        .h      LDR      r0,[r0,#0]
        0x08004be4:    f2c40100    ....    MOVT     r1,#0x4000
        0x08004be8:    4288        .B      CMP      r0,r1
        0x08004bea:    dc18        ..      BGT      0x8004c1e ; HAL_TIM_Base_Init + 70
        0x08004bec:    f64031ff    @..1    MOV      r1,#0xbff
        0x08004bf0:    f2c40100    ....    MOVT     r1,#0x4000
        0x08004bf4:    4288        .B      CMP      r0,r1
        0x08004bf6:    dd27        '.      BLE      0x8004c48 ; HAL_TIM_Base_Init + 112
        0x08004bf8:    f24131ff    A..1    MOV      r1,#0x13ff
        0x08004bfc:    f2c40100    ....    MOVT     r1,#0x4000
        0x08004c00:    4288        .B      CMP      r0,r1
        0x08004c02:    dc3d        =.      BGT      0x8004c80 ; HAL_TIM_Base_Init + 168
        0x08004c04:    f6404100    @..A    MOVW     r1,#0xc00
        0x08004c08:    f2c40100    ....    MOVT     r1,#0x4000
        0x08004c0c:    4288        .B      CMP      r0,r1
        0x08004c0e:    d04e        N.      BEQ      0x8004cae ; HAL_TIM_Base_Init + 214
        0x08004c10:    f2410100    A...    MOVW     r1,#0x1000
        0x08004c14:    f2c40100    ....    MOVT     r1,#0x4000
        0x08004c18:    e047        G.      B        0x8004caa ; HAL_TIM_Base_Init + 210
        0x08004c1a:    2001        .       MOVS     r0,#1
        0x08004c1c:    4770        pG      BX       lr
        0x08004c1e:    f24031ff    @..1    MOV      r1,#0x3ff
        0x08004c22:    f2c40101    ....    MOVT     r1,#0x4001
        0x08004c26:    4288        .B      CMP      r0,r1
        0x08004c28:    dd1c        ..      BLE      0x8004c64 ; HAL_TIM_Base_Init + 140
        0x08004c2a:    f24431ff    D..1    MOV      r1,#0x43ff
        0x08004c2e:    f2c40101    ....    MOVT     r1,#0x4001
        0x08004c32:    4288        .B      CMP      r0,r1
        0x08004c34:    dc2f        /.      BGT      0x8004c96 ; HAL_TIM_Base_Init + 190
        0x08004c36:    f2404100    @..A    MOVW     r1,#0x400
        0x08004c3a:    f2c40101    ....    MOVT     r1,#0x4001
        0x08004c3e:    4288        .B      CMP      r0,r1
        0x08004c40:    d035        5.      BEQ      0x8004cae ; HAL_TIM_Base_Init + 214
        0x08004c42:    f2440100    D...    MOVW     r1,#0x4000
        0x08004c46:    e02e        ..      B        0x8004ca6 ; HAL_TIM_Base_Init + 206
        0x08004c48:    f1b04f80    ...O    CMP      r0,#0x40000000
        0x08004c4c:    d02f        /.      BEQ      0x8004cae ; HAL_TIM_Base_Init + 214
        0x08004c4e:    f2404100    @..A    MOVW     r1,#0x400
        0x08004c52:    f2c40100    ....    MOVT     r1,#0x4000
        0x08004c56:    4288        .B      CMP      r0,r1
        0x08004c58:    d029        ).      BEQ      0x8004cae ; HAL_TIM_Base_Init + 214
        0x08004c5a:    f6400100    @...    MOVW     r1,#0x800
        0x08004c5e:    f2c40100    ....    MOVT     r1,#0x4000
        0x08004c62:    e022        ".      B        0x8004caa ; HAL_TIM_Base_Init + 210
        0x08004c64:    f6414100    A..A    MOVW     r1,#0x1c00
        0x08004c68:    f2c40100    ....    MOVT     r1,#0x4000
        0x08004c6c:    4288        .B      CMP      r0,r1
        0x08004c6e:    d01e        ..      BEQ      0x8004cae ; HAL_TIM_Base_Init + 214
        0x08004c70:    f2420100    B...    MOVW     r1,#0x2000
        0x08004c74:    f2c40100    ....    MOVT     r1,#0x4000
        0x08004c78:    4288        .B      CMP      r0,r1
        0x08004c7a:    d018        ..      BEQ      0x8004cae ; HAL_TIM_Base_Init + 214
        0x08004c7c:    2100        .!      MOVS     r1,#0
        0x08004c7e:    e012        ..      B        0x8004ca6 ; HAL_TIM_Base_Init + 206
        0x08004c80:    f2414100    A..A    MOVW     r1,#0x1400
        0x08004c84:    f2c40100    ....    MOVT     r1,#0x4000
        0x08004c88:    4288        .B      CMP      r0,r1
        0x08004c8a:    d010        ..      BEQ      0x8004cae ; HAL_TIM_Base_Init + 214
        0x08004c8c:    f6410100    A...    MOVW     r1,#0x1800
        0x08004c90:    f2c40100    ....    MOVT     r1,#0x4000
        0x08004c94:    e009        ..      B        0x8004caa ; HAL_TIM_Base_Init + 210
        0x08004c96:    f2444100    D..A    MOVW     r1,#0x4400
        0x08004c9a:    f2c40101    ....    MOVT     r1,#0x4001
        0x08004c9e:    4288        .B      CMP      r0,r1
        0x08004ca0:    d005        ..      BEQ      0x8004cae ; HAL_TIM_Base_Init + 214
        0x08004ca2:    f6440100    D...    MOVW     r1,#0x4800
        0x08004ca6:    f2c40101    ....    MOVT     r1,#0x4001
        0x08004caa:    4288        .B      CMP      r0,r1
        0x08004cac:    d178        x.      BNE      0x8004da0 ; HAL_TIM_Base_Init + 456
        0x08004cae:    68a0        .h      LDR      r0,[r4,#8]
        0x08004cb0:    ea4f1030    O.0.    ROR      r0,r0,#4
        0x08004cb4:    2806        .(      CMP      r0,#6
        0x08004cb6:    d86a        j.      BHI      0x8004d8e ; HAL_TIM_Base_Init + 438
        0x08004cb8:    2101        .!      MOVS     r1,#1
        0x08004cba:    fa01f000    ....    LSL      r0,r1,r0
        0x08004cbe:    f0100f57    ..W.    TST      r0,#0x57
        0x08004cc2:    d064        d.      BEQ      0x8004d8e ; HAL_TIM_Base_Init + 438
        0x08004cc4:    6920         i      LDR      r0,[r4,#0x10]
        0x08004cc6:    b128        (.      CBZ      r0,0x8004cd4 ; HAL_TIM_Base_Init + 252
        0x08004cc8:    f5b07f80    ....    CMP      r0,#0x100
        0x08004ccc:    bf18        ..      IT       NE
        0x08004cce:    f5b07f00    ....    CMPNE    r0,#0x200
        0x08004cd2:    d153        S.      BNE      0x8004d7c ; HAL_TIM_Base_Init + 420
        0x08004cd4:    6820         h      LDR      r0,[r4,#0]
        0x08004cd6:    f1b04f80    ...O    CMP      r0,#0x40000000
        0x08004cda:    d005        ..      BEQ      0x8004ce8 ; HAL_TIM_Base_Init + 272
        0x08004cdc:    f6404100    @..A    MOVW     r1,#0xc00
        0x08004ce0:    f2c40100    ....    MOVT     r1,#0x4000
        0x08004ce4:    4288        .B      CMP      r0,r1
        0x08004ce6:    d142        B.      BNE      0x8004d6e ; HAL_TIM_Base_Init + 406
        0x08004ce8:    68e0        .h      LDR      r0,[r4,#0xc]
        0x08004cea:    b938        8.      CBNZ     r0,0x8004cfc ; HAL_TIM_Base_Init + 292
        0x08004cec:    f6476017    G..`    MOV      r0,#0x7e17
        0x08004cf0:    f2401119    @...    MOV      r1,#0x119
        0x08004cf4:    f6c00000    ....    MOVT     r0,#0x800
        0x08004cf8:    f002f9e6    ....    BL       assert_failed ; 0x80070c8
        0x08004cfc:    69a0        .i      LDR      r0,[r4,#0x18]
        0x08004cfe:    1d25        %.      ADDS     r5,r4,#4
        0x08004d00:    f0400080    @...    ORR      r0,r0,#0x80
        0x08004d04:    2880        .(      CMP      r0,#0x80
        0x08004d06:    d007        ..      BEQ      0x8004d18 ; HAL_TIM_Base_Init + 320
        0x08004d08:    f6476017    G..`    MOV      r0,#0x7e17
        0x08004d0c:    f44f718d    O..q    MOV      r1,#0x11a
        0x08004d10:    f6c00000    ....    MOVT     r0,#0x800
        0x08004d14:    f002f9d8    ....    BL       assert_failed ; 0x80070c8
        0x08004d18:    f894003d    ..=.    LDRB     r0,[r4,#0x3d]
        0x08004d1c:    b928        (.      CBNZ     r0,0x8004d2a ; HAL_TIM_Base_Init + 338
        0x08004d1e:    2000        .       MOVS     r0,#0
        0x08004d20:    f884003c    ..<.    STRB     r0,[r4,#0x3c]
        0x08004d24:    4620         F      MOV      r0,r4
        0x08004d26:    f000f847    ..G.    BL       HAL_TIM_Base_MspInit ; 0x8004db8
        0x08004d2a:    2002        .       MOVS     r0,#2
        0x08004d2c:    f884003d    ..=.    STRB     r0,[r4,#0x3d]
        0x08004d30:    6820         h      LDR      r0,[r4,#0]
        0x08004d32:    4629        )F      MOV      r1,r5
        0x08004d34:    f001fb40    ..@.    BL       TIM_Base_SetConfig ; 0x80063b8
        0x08004d38:    2001        .       MOVS     r0,#1
        0x08004d3a:    f8840048    ..H.    STRB     r0,[r4,#0x48]
        0x08004d3e:    f884003e    ..>.    STRB     r0,[r4,#0x3e]
        0x08004d42:    f884003f    ..?.    STRB     r0,[r4,#0x3f]
        0x08004d46:    f8840040    ..@.    STRB     r0,[r4,#0x40]
        0x08004d4a:    f8840041    ..A.    STRB     r0,[r4,#0x41]
        0x08004d4e:    f8840042    ..B.    STRB     r0,[r4,#0x42]
        0x08004d52:    f8840043    ..C.    STRB     r0,[r4,#0x43]
        0x08004d56:    f8840044    ..D.    STRB     r0,[r4,#0x44]
        0x08004d5a:    f8840045    ..E.    STRB     r0,[r4,#0x45]
        0x08004d5e:    f8840046    ..F.    STRB     r0,[r4,#0x46]
        0x08004d62:    f8840047    ..G.    STRB     r0,[r4,#0x47]
        0x08004d66:    f884003d    ..=.    STRB     r0,[r4,#0x3d]
        0x08004d6a:    2000        .       MOVS     r0,#0
        0x08004d6c:    bdb0        ..      POP      {r4,r5,r7,pc}
        0x08004d6e:    68e0        .h      LDR      r0,[r4,#0xc]
        0x08004d70:    f64f71ff    O..q    MOV      r1,#0xffff
        0x08004d74:    3801        .8      SUBS     r0,#1
        0x08004d76:    4288        .B      CMP      r0,r1
        0x08004d78:    d2b8        ..      BCS      0x8004cec ; HAL_TIM_Base_Init + 276
        0x08004d7a:    e7bf        ..      B        0x8004cfc ; HAL_TIM_Base_Init + 292
        0x08004d7c:    f6476017    G..`    MOV      r0,#0x7e17
        0x08004d80:    f44f718c    O..q    MOV      r1,#0x118
        0x08004d84:    f6c00000    ....    MOVT     r0,#0x800
        0x08004d88:    f002f99e    ....    BL       assert_failed ; 0x80070c8
        0x08004d8c:    e7a2        ..      B        0x8004cd4 ; HAL_TIM_Base_Init + 252
        0x08004d8e:    f6476017    G..`    MOV      r0,#0x7e17
        0x08004d92:    f2401117    @...    MOV      r1,#0x117
        0x08004d96:    f6c00000    ....    MOVT     r0,#0x800
        0x08004d9a:    f002f995    ....    BL       assert_failed ; 0x80070c8
        0x08004d9e:    e791        ..      B        0x8004cc4 ; HAL_TIM_Base_Init + 236
        0x08004da0:    f6476017    G..`    MOV      r0,#0x7e17
        0x08004da4:    f44f718b    O..q    MOV      r1,#0x116
        0x08004da8:    f6c00000    ....    MOVT     r0,#0x800
        0x08004dac:    f002f98c    ....    BL       assert_failed ; 0x80070c8
        0x08004db0:    e77d        }.      B        0x8004cae ; HAL_TIM_Base_Init + 214
        0x08004db2:    0000        ..      MOVS     r0,r0
        0x08004db4:    0000        ..      MOVS     r0,r0
        0x08004db6:    0000        ..      MOVS     r0,r0
    HAL_TIM_Base_MspInit
        0x08004db8:    b580        ..      PUSH     {r7,lr}
        0x08004dba:    b082        ..      SUB      sp,sp,#8
        0x08004dbc:    f2410100    A...    MOVW     r1,#0x1000
        0x08004dc0:    6800        .h      LDR      r0,[r0,#0]
        0x08004dc2:    f2c40100    ....    MOVT     r1,#0x4000
        0x08004dc6:    4288        .B      CMP      r0,r1
        0x08004dc8:    d001        ..      BEQ      0x8004dce ; HAL_TIM_Base_MspInit + 22
        0x08004dca:    b002        ..      ADD      sp,sp,#8
        0x08004dcc:    bd80        ..      POP      {r7,pc}
        0x08004dce:    f24440e8    D..@    MOV      r0,#0x44e8
        0x08004dd2:    2200        ."      MOVS     r2,#0
        0x08004dd4:    f6c50002    ....    MOVT     r0,#0x5802
        0x08004dd8:    6801        .h      LDR      r1,[r0,#0]
        0x08004dda:    f0410110    A...    ORR      r1,r1,#0x10
        0x08004dde:    6001        .`      STR      r1,[r0,#0]
        0x08004de0:    6800        .h      LDR      r0,[r0,#0]
        0x08004de2:    2102        .!      MOVS     r1,#2
        0x08004de4:    f0000010    ....    AND      r0,r0,#0x10
        0x08004de8:    9001        ..      STR      r0,[sp,#4]
        0x08004dea:    9801        ..      LDR      r0,[sp,#4]
        0x08004dec:    2036        6       MOVS     r0,#0x36
        0x08004dee:    f7fdfa7b    ..{.    BL       HAL_NVIC_SetPriority ; 0x80022e8
        0x08004df2:    2036        6       MOVS     r0,#0x36
        0x08004df4:    f7fdfa68    ..h.    BL       HAL_NVIC_EnableIRQ ; 0x80022c8
        0x08004df8:    b002        ..      ADD      sp,sp,#8
        0x08004dfa:    bd80        ..      POP      {r7,pc}
        0x08004dfc:    0000        ..      MOVS     r0,r0
        0x08004dfe:    0000        ..      MOVS     r0,r0
    HAL_TIM_Base_Start_IT
        0x08004e00:    b510        ..      PUSH     {r4,lr}
        0x08004e02:    f64131ff    A..1    MOV      r1,#0x1bff
        0x08004e06:    4604        .F      MOV      r4,r0
        0x08004e08:    6800        .h      LDR      r0,[r0,#0]
        0x08004e0a:    f2c40100    ....    MOVT     r1,#0x4000
        0x08004e0e:    4288        .B      CMP      r0,r1
        0x08004e10:    dc16        ..      BGT      0x8004e40 ; HAL_TIM_Base_Start_IT + 64
        0x08004e12:    f64031ff    @..1    MOV      r1,#0xbff
        0x08004e16:    f2c40100    ....    MOVT     r1,#0x4000
        0x08004e1a:    4288        .B      CMP      r0,r1
        0x08004e1c:    dd25        %.      BLE      0x8004e6a ; HAL_TIM_Base_Start_IT + 106
        0x08004e1e:    f24131ff    A..1    MOV      r1,#0x13ff
        0x08004e22:    f2c40100    ....    MOVT     r1,#0x4000
        0x08004e26:    4288        .B      CMP      r0,r1
        0x08004e28:    dc3b        ;.      BGT      0x8004ea2 ; HAL_TIM_Base_Start_IT + 162
        0x08004e2a:    f6404100    @..A    MOVW     r1,#0xc00
        0x08004e2e:    f2c40100    ....    MOVT     r1,#0x4000
        0x08004e32:    4288        .B      CMP      r0,r1
        0x08004e34:    d04c        L.      BEQ      0x8004ed0 ; HAL_TIM_Base_Start_IT + 208
        0x08004e36:    f2410100    A...    MOVW     r1,#0x1000
        0x08004e3a:    f2c40100    ....    MOVT     r1,#0x4000
        0x08004e3e:    e045        E.      B        0x8004ecc ; HAL_TIM_Base_Start_IT + 204
        0x08004e40:    f24031ff    @..1    MOV      r1,#0x3ff
        0x08004e44:    f2c40101    ....    MOVT     r1,#0x4001
        0x08004e48:    4288        .B      CMP      r0,r1
        0x08004e4a:    dd1c        ..      BLE      0x8004e86 ; HAL_TIM_Base_Start_IT + 134
        0x08004e4c:    f24431ff    D..1    MOV      r1,#0x43ff
        0x08004e50:    f2c40101    ....    MOVT     r1,#0x4001
        0x08004e54:    4288        .B      CMP      r0,r1
        0x08004e56:    dc2f        /.      BGT      0x8004eb8 ; HAL_TIM_Base_Start_IT + 184
        0x08004e58:    f2404100    @..A    MOVW     r1,#0x400
        0x08004e5c:    f2c40101    ....    MOVT     r1,#0x4001
        0x08004e60:    4288        .B      CMP      r0,r1
        0x08004e62:    d035        5.      BEQ      0x8004ed0 ; HAL_TIM_Base_Start_IT + 208
        0x08004e64:    f2440100    D...    MOVW     r1,#0x4000
        0x08004e68:    e02e        ..      B        0x8004ec8 ; HAL_TIM_Base_Start_IT + 200
        0x08004e6a:    f1b04f80    ...O    CMP      r0,#0x40000000
        0x08004e6e:    d02f        /.      BEQ      0x8004ed0 ; HAL_TIM_Base_Start_IT + 208
        0x08004e70:    f2404100    @..A    MOVW     r1,#0x400
        0x08004e74:    f2c40100    ....    MOVT     r1,#0x4000
        0x08004e78:    4288        .B      CMP      r0,r1
        0x08004e7a:    d029        ).      BEQ      0x8004ed0 ; HAL_TIM_Base_Start_IT + 208
        0x08004e7c:    f6400100    @...    MOVW     r1,#0x800
        0x08004e80:    f2c40100    ....    MOVT     r1,#0x4000
        0x08004e84:    e022        ".      B        0x8004ecc ; HAL_TIM_Base_Start_IT + 204
        0x08004e86:    f6414100    A..A    MOVW     r1,#0x1c00
        0x08004e8a:    f2c40100    ....    MOVT     r1,#0x4000
        0x08004e8e:    4288        .B      CMP      r0,r1
        0x08004e90:    d01e        ..      BEQ      0x8004ed0 ; HAL_TIM_Base_Start_IT + 208
        0x08004e92:    f2420100    B...    MOVW     r1,#0x2000
        0x08004e96:    f2c40100    ....    MOVT     r1,#0x4000
        0x08004e9a:    4288        .B      CMP      r0,r1
        0x08004e9c:    d018        ..      BEQ      0x8004ed0 ; HAL_TIM_Base_Start_IT + 208
        0x08004e9e:    2100        .!      MOVS     r1,#0
        0x08004ea0:    e012        ..      B        0x8004ec8 ; HAL_TIM_Base_Start_IT + 200
        0x08004ea2:    f2414100    A..A    MOVW     r1,#0x1400
        0x08004ea6:    f2c40100    ....    MOVT     r1,#0x4000
        0x08004eaa:    4288        .B      CMP      r0,r1
        0x08004eac:    d010        ..      BEQ      0x8004ed0 ; HAL_TIM_Base_Start_IT + 208
        0x08004eae:    f6410100    A...    MOVW     r1,#0x1800
        0x08004eb2:    f2c40100    ....    MOVT     r1,#0x4000
        0x08004eb6:    e009        ..      B        0x8004ecc ; HAL_TIM_Base_Start_IT + 204
        0x08004eb8:    f2444100    D..A    MOVW     r1,#0x4400
        0x08004ebc:    f2c40101    ....    MOVT     r1,#0x4001
        0x08004ec0:    4288        .B      CMP      r0,r1
        0x08004ec2:    d005        ..      BEQ      0x8004ed0 ; HAL_TIM_Base_Start_IT + 208
        0x08004ec4:    f6440100    D...    MOVW     r1,#0x4800
        0x08004ec8:    f2c40101    ....    MOVT     r1,#0x4001
        0x08004ecc:    4288        .B      CMP      r0,r1
        0x08004ece:    d158        X.      BNE      0x8004f82 ; HAL_TIM_Base_Start_IT + 386
        0x08004ed0:    f894003d    ..=.    LDRB     r0,[r4,#0x3d]
        0x08004ed4:    2801        .(      CMP      r0,#1
        0x08004ed6:    d11b        ..      BNE      0x8004f10 ; HAL_TIM_Base_Start_IT + 272
        0x08004ed8:    2002        .       MOVS     r0,#2
        0x08004eda:    f884003d    ..=.    STRB     r0,[r4,#0x3d]
        0x08004ede:    6821        !h      LDR      r1,[r4,#0]
        0x08004ee0:    f24170ff    A..p    MOV      r0,#0x17ff
        0x08004ee4:    f2c40000    ....    MOVT     r0,#0x4000
        0x08004ee8:    4281        .B      CMP      r1,r0
        0x08004eea:    68c8        .h      LDR      r0,[r1,#0xc]
        0x08004eec:    f0400001    @...    ORR      r0,r0,#1
        0x08004ef0:    60c8        .`      STR      r0,[r1,#0xc]
        0x08004ef2:    dc0f        ..      BGT      0x8004f14 ; HAL_TIM_Base_Start_IT + 276
        0x08004ef4:    f24070ff    @..p    MOV      r0,#0x7ff
        0x08004ef8:    f2c40000    ....    MOVT     r0,#0x4000
        0x08004efc:    4281        .B      CMP      r1,r0
        0x08004efe:    dc17        ..      BGT      0x8004f30 ; HAL_TIM_Base_Start_IT + 304
        0x08004f00:    f1b14f80    ...O    CMP      r1,#0x40000000
        0x08004f04:    d02b        +.      BEQ      0x8004f5e ; HAL_TIM_Base_Start_IT + 350
        0x08004f06:    f2404000    @..@    MOVW     r0,#0x400
        0x08004f0a:    f2c40000    ....    MOVT     r0,#0x4000
        0x08004f0e:    e024        $.      B        0x8004f5a ; HAL_TIM_Base_Start_IT + 346
        0x08004f10:    2001        .       MOVS     r0,#1
        0x08004f12:    bd10        ..      POP      {r4,pc}
        0x08004f14:    f24030ff    @..0    MOV      r0,#0x3ff
        0x08004f18:    f2c40001    ....    MOVT     r0,#0x4001
        0x08004f1c:    4281        .B      CMP      r1,r0
        0x08004f1e:    dc12        ..      BGT      0x8004f46 ; HAL_TIM_Base_Start_IT + 326
        0x08004f20:    f6410000    A...    MOVW     r0,#0x1800
        0x08004f24:    f2c40000    ....    MOVT     r0,#0x4000
        0x08004f28:    4281        .B      CMP      r1,r0
        0x08004f2a:    d018        ..      BEQ      0x8004f5e ; HAL_TIM_Base_Start_IT + 350
        0x08004f2c:    2000        .       MOVS     r0,#0
        0x08004f2e:    e012        ..      B        0x8004f56 ; HAL_TIM_Base_Start_IT + 342
        0x08004f30:    f6400000    @...    MOVW     r0,#0x800
        0x08004f34:    f2c40000    ....    MOVT     r0,#0x4000
        0x08004f38:    4281        .B      CMP      r1,r0
        0x08004f3a:    d010        ..      BEQ      0x8004f5e ; HAL_TIM_Base_Start_IT + 350
        0x08004f3c:    f6404000    @..@    MOVW     r0,#0xc00
        0x08004f40:    f2c40000    ....    MOVT     r0,#0x4000
        0x08004f44:    e009        ..      B        0x8004f5a ; HAL_TIM_Base_Start_IT + 346
        0x08004f46:    f2440000    D...    MOVW     r0,#0x4000
        0x08004f4a:    f2c40001    ....    MOVT     r0,#0x4001
        0x08004f4e:    4281        .B      CMP      r1,r0
        0x08004f50:    d005        ..      BEQ      0x8004f5e ; HAL_TIM_Base_Start_IT + 350
        0x08004f52:    f2404000    @..@    MOVW     r0,#0x400
        0x08004f56:    f2c40001    ....    MOVT     r0,#0x4001
        0x08004f5a:    4281        .B      CMP      r1,r0
        0x08004f5c:    d10b        ..      BNE      0x8004f76 ; HAL_TIM_Base_Start_IT + 374
        0x08004f5e:    2207        ."      MOVS     r2,#7
        0x08004f60:    6888        .h      LDR      r0,[r1,#8]
        0x08004f62:    f2c00201    ....    MOVT     r2,#1
        0x08004f66:    4002        .@      ANDS     r2,r2,r0
        0x08004f68:    2000        .       MOVS     r0,#0
        0x08004f6a:    2a06        .*      CMP      r2,#6
        0x08004f6c:    bf18        ..      IT       NE
        0x08004f6e:    f5b23f80    ...?    CMPNE    r2,#0x10000
        0x08004f72:    d100        ..      BNE      0x8004f76 ; HAL_TIM_Base_Start_IT + 374
        0x08004f74:    bd10        ..      POP      {r4,pc}
        0x08004f76:    6808        .h      LDR      r0,[r1,#0]
        0x08004f78:    f0400001    @...    ORR      r0,r0,#1
        0x08004f7c:    6008        .`      STR      r0,[r1,#0]
        0x08004f7e:    2000        .       MOVS     r0,#0
        0x08004f80:    bd10        ..      POP      {r4,pc}
        0x08004f82:    f6476017    G..`    MOV      r0,#0x7e17
        0x08004f86:    f24011d3    @...    MOV      r1,#0x1d3
        0x08004f8a:    f6c00000    ....    MOVT     r0,#0x800
        0x08004f8e:    f002f89b    ....    BL       assert_failed ; 0x80070c8
        0x08004f92:    e79d        ..      B        0x8004ed0 ; HAL_TIM_Base_Start_IT + 208
        0x08004f94:    0000        ..      MOVS     r0,r0
        0x08004f96:    0000        ..      MOVS     r0,r0
    HAL_TIM_IC_CaptureCallback
        0x08004f98:    4770        pG      BX       lr
        0x08004f9a:    0000        ..      MOVS     r0,r0
        0x08004f9c:    0000        ..      MOVS     r0,r0
        0x08004f9e:    0000        ..      MOVS     r0,r0
    HAL_TIM_IRQHandler
        0x08004fa0:    b510        ..      PUSH     {r4,lr}
        0x08004fa2:    4604        .F      MOV      r4,r0
        0x08004fa4:    6800        .h      LDR      r0,[r0,#0]
        0x08004fa6:    6901        .i      LDR      r1,[r0,#0x10]
        0x08004fa8:    0789        ..      LSLS     r1,r1,#30
        0x08004faa:    bf44        D.      ITT      MI
        0x08004fac:    68c1        .h      LDRMI    r1,[r0,#0xc]
        0x08004fae:    ea5f7181    _..q    LSLSMI   r1,r1,#30
        0x08004fb2:    d440        @.      BMI      0x8005036 ; HAL_TIM_IRQHandler + 150
        0x08004fb4:    6820         h      LDR      r0,[r4,#0]
        0x08004fb6:    6901        .i      LDR      r1,[r0,#0x10]
        0x08004fb8:    0749        I.      LSLS     r1,r1,#29
        0x08004fba:    bf44        D.      ITT      MI
        0x08004fbc:    68c1        .h      LDRMI    r1,[r0,#0xc]
        0x08004fbe:    ea5f7141    _.Aq    LSLSMI   r1,r1,#29
        0x08004fc2:    d444        D.      BMI      0x800504e ; HAL_TIM_IRQHandler + 174
        0x08004fc4:    6820         h      LDR      r0,[r4,#0]
        0x08004fc6:    6901        .i      LDR      r1,[r0,#0x10]
        0x08004fc8:    0709        ..      LSLS     r1,r1,#28
        0x08004fca:    bf44        D.      ITT      MI
        0x08004fcc:    68c1        .h      LDRMI    r1,[r0,#0xc]
        0x08004fce:    ea5f7101    _..q    LSLSMI   r1,r1,#28
        0x08004fd2:    d449        I.      BMI      0x8005068 ; HAL_TIM_IRQHandler + 200
        0x08004fd4:    6820         h      LDR      r0,[r4,#0]
        0x08004fd6:    6901        .i      LDR      r1,[r0,#0x10]
        0x08004fd8:    06c9        ..      LSLS     r1,r1,#27
        0x08004fda:    bf44        D.      ITT      MI
        0x08004fdc:    68c1        .h      LDRMI    r1,[r0,#0xc]
        0x08004fde:    ea5f61c1    _..a    LSLSMI   r1,r1,#27
        0x08004fe2:    d44d        M.      BMI      0x8005080 ; HAL_TIM_IRQHandler + 224
        0x08004fe4:    6820         h      LDR      r0,[r4,#0]
        0x08004fe6:    6901        .i      LDR      r1,[r0,#0x10]
        0x08004fe8:    07c9        ..      LSLS     r1,r1,#31
        0x08004fea:    bf1c        ..      ITT      NE
        0x08004fec:    68c1        .h      LDRNE    r1,[r0,#0xc]
        0x08004fee:    ea5f71c1    _..q    LSLSNE   r1,r1,#31
        0x08004ff2:    d152        R.      BNE      0x800509a ; HAL_TIM_IRQHandler + 250
        0x08004ff4:    6820         h      LDR      r0,[r4,#0]
        0x08004ff6:    6901        .i      LDR      r1,[r0,#0x10]
        0x08004ff8:    0609        ..      LSLS     r1,r1,#24
        0x08004ffa:    bf44        D.      ITT      MI
        0x08004ffc:    68c1        .h      LDRMI    r1,[r0,#0xc]
        0x08004ffe:    ea5f6101    _..a    LSLSMI   r1,r1,#24
        0x08005002:    d451        Q.      BMI      0x80050a8 ; HAL_TIM_IRQHandler + 264
        0x08005004:    6820         h      LDR      r0,[r4,#0]
        0x08005006:    6901        .i      LDR      r1,[r0,#0x10]
        0x08005008:    05c9        ..      LSLS     r1,r1,#23
        0x0800500a:    bf44        D.      ITT      MI
        0x0800500c:    68c1        .h      LDRMI    r1,[r0,#0xc]
        0x0800500e:    ea5f6101    _..a    LSLSMI   r1,r1,#24
        0x08005012:    d450        P.      BMI      0x80050b6 ; HAL_TIM_IRQHandler + 278
        0x08005014:    6820         h      LDR      r0,[r4,#0]
        0x08005016:    6901        .i      LDR      r1,[r0,#0x10]
        0x08005018:    0649        I.      LSLS     r1,r1,#25
        0x0800501a:    bf44        D.      ITT      MI
        0x0800501c:    68c1        .h      LDRMI    r1,[r0,#0xc]
        0x0800501e:    ea5f6141    _.Aa    LSLSMI   r1,r1,#25
        0x08005022:    d44f        O.      BMI      0x80050c4 ; HAL_TIM_IRQHandler + 292
        0x08005024:    6820         h      LDR      r0,[r4,#0]
        0x08005026:    6901        .i      LDR      r1,[r0,#0x10]
        0x08005028:    0689        ..      LSLS     r1,r1,#26
        0x0800502a:    bf44        D.      ITT      MI
        0x0800502c:    68c1        .h      LDRMI    r1,[r0,#0xc]
        0x0800502e:    ea5f6181    _..a    LSLSMI   r1,r1,#26
        0x08005032:    d44e        N.      BMI      0x80050d2 ; HAL_TIM_IRQHandler + 306
        0x08005034:    bd10        ..      POP      {r4,pc}
        0x08005036:    f06f0102    o...    MVN      r1,#2
        0x0800503a:    6101        .a      STR      r1,[r0,#0x10]
        0x0800503c:    2101        .!      MOVS     r1,#1
        0x0800503e:    7721        !w      STRB     r1,[r4,#0x1c]
        0x08005040:    6980        .i      LDR      r0,[r0,#0x18]
        0x08005042:    0780        ..      LSLS     r0,r0,#30
        0x08005044:    d04c        L.      BEQ      0x80050e0 ; HAL_TIM_IRQHandler + 320
        0x08005046:    4620         F      MOV      r0,r4
        0x08005048:    f7ffffa6    ....    BL       HAL_TIM_IC_CaptureCallback ; 0x8004f98
        0x0800504c:    e04e        N.      B        0x80050ec ; HAL_TIM_IRQHandler + 332
        0x0800504e:    f06f0104    o...    MVN      r1,#4
        0x08005052:    6101        .a      STR      r1,[r0,#0x10]
        0x08005054:    2102        .!      MOVS     r1,#2
        0x08005056:    7721        !w      STRB     r1,[r4,#0x1c]
        0x08005058:    6980        .i      LDR      r0,[r0,#0x18]
        0x0800505a:    f4107f40    ..@.    TST      r0,#0x300
        0x0800505e:    d048        H.      BEQ      0x80050f2 ; HAL_TIM_IRQHandler + 338
        0x08005060:    4620         F      MOV      r0,r4
        0x08005062:    f7ffff99    ....    BL       HAL_TIM_IC_CaptureCallback ; 0x8004f98
        0x08005066:    e04a        J.      B        0x80050fe ; HAL_TIM_IRQHandler + 350
        0x08005068:    f06f0108    o...    MVN      r1,#8
        0x0800506c:    6101        .a      STR      r1,[r0,#0x10]
        0x0800506e:    2104        .!      MOVS     r1,#4
        0x08005070:    7721        !w      STRB     r1,[r4,#0x1c]
        0x08005072:    69c0        .i      LDR      r0,[r0,#0x1c]
        0x08005074:    0780        ..      LSLS     r0,r0,#30
        0x08005076:    d045        E.      BEQ      0x8005104 ; HAL_TIM_IRQHandler + 356
        0x08005078:    4620         F      MOV      r0,r4
        0x0800507a:    f7ffff8d    ....    BL       HAL_TIM_IC_CaptureCallback ; 0x8004f98
        0x0800507e:    e047        G.      B        0x8005110 ; HAL_TIM_IRQHandler + 368
        0x08005080:    f06f0110    o...    MVN      r1,#0x10
        0x08005084:    6101        .a      STR      r1,[r0,#0x10]
        0x08005086:    2108        .!      MOVS     r1,#8
        0x08005088:    7721        !w      STRB     r1,[r4,#0x1c]
        0x0800508a:    69c0        .i      LDR      r0,[r0,#0x1c]
        0x0800508c:    f4107f40    ..@.    TST      r0,#0x300
        0x08005090:    d041        A.      BEQ      0x8005116 ; HAL_TIM_IRQHandler + 374
        0x08005092:    4620         F      MOV      r0,r4
        0x08005094:    f7ffff80    ....    BL       HAL_TIM_IC_CaptureCallback ; 0x8004f98
        0x08005098:    e043        C.      B        0x8005122 ; HAL_TIM_IRQHandler + 386
        0x0800509a:    f06f0101    o...    MVN      r1,#1
        0x0800509e:    6101        .a      STR      r1,[r0,#0x10]
        0x080050a0:    4620         F      MOV      r0,r4
        0x080050a2:    f000f849    ..I.    BL       HAL_TIM_PeriodElapsedCallback ; 0x8005138
        0x080050a6:    e7a5        ..      B        0x8004ff4 ; HAL_TIM_IRQHandler + 84
        0x080050a8:    f06f0180    o...    MVN      r1,#0x80
        0x080050ac:    6101        .a      STR      r1,[r0,#0x10]
        0x080050ae:    4620         F      MOV      r0,r4
        0x080050b0:    f7fffca6    ....    BL       HAL_TIMEx_BreakCallback ; 0x8004a00
        0x080050b4:    e7a6        ..      B        0x8005004 ; HAL_TIM_IRQHandler + 100
        0x080050b6:    f46f7180    o..q    MVN      r1,#0x100
        0x080050ba:    6101        .a      STR      r1,[r0,#0x10]
        0x080050bc:    4620         F      MOV      r0,r4
        0x080050be:    f7fffc9b    ....    BL       HAL_TIMEx_Break2Callback ; 0x80049f8
        0x080050c2:    e7a7        ..      B        0x8005014 ; HAL_TIM_IRQHandler + 116
        0x080050c4:    f06f0140    o.@.    MVN      r1,#0x40
        0x080050c8:    6101        .a      STR      r1,[r0,#0x10]
        0x080050ca:    4620         F      MOV      r0,r4
        0x080050cc:    f000f868    ..h.    BL       HAL_TIM_TriggerCallback ; 0x80051a0
        0x080050d0:    e7a8        ..      B        0x8005024 ; HAL_TIM_IRQHandler + 132
        0x080050d2:    f06f0120    o. .    MVN      r1,#0x20
        0x080050d6:    6101        .a      STR      r1,[r0,#0x10]
        0x080050d8:    4620         F      MOV      r0,r4
        0x080050da:    f7fffc95    ....    BL       HAL_TIMEx_CommutCallback ; 0x8004a08
        0x080050de:    bd10        ..      POP      {r4,pc}
        0x080050e0:    4620         F      MOV      r0,r4
        0x080050e2:    f000f821    ..!.    BL       HAL_TIM_OC_DelayElapsedCallback ; 0x8005128
        0x080050e6:    4620         F      MOV      r0,r4
        0x080050e8:    f000f822    ..".    BL       HAL_TIM_PWM_PulseFinishedCallback ; 0x8005130
        0x080050ec:    2000        .       MOVS     r0,#0
        0x080050ee:    7720         w      STRB     r0,[r4,#0x1c]
        0x080050f0:    e760        `.      B        0x8004fb4 ; HAL_TIM_IRQHandler + 20
        0x080050f2:    4620         F      MOV      r0,r4
        0x080050f4:    f000f818    ....    BL       HAL_TIM_OC_DelayElapsedCallback ; 0x8005128
        0x080050f8:    4620         F      MOV      r0,r4
        0x080050fa:    f000f819    ....    BL       HAL_TIM_PWM_PulseFinishedCallback ; 0x8005130
        0x080050fe:    2000        .       MOVS     r0,#0
        0x08005100:    7720         w      STRB     r0,[r4,#0x1c]
        0x08005102:    e75f        _.      B        0x8004fc4 ; HAL_TIM_IRQHandler + 36
        0x08005104:    4620         F      MOV      r0,r4
        0x08005106:    f000f80f    ....    BL       HAL_TIM_OC_DelayElapsedCallback ; 0x8005128
        0x0800510a:    4620         F      MOV      r0,r4
        0x0800510c:    f000f810    ....    BL       HAL_TIM_PWM_PulseFinishedCallback ; 0x8005130
        0x08005110:    2000        .       MOVS     r0,#0
        0x08005112:    7720         w      STRB     r0,[r4,#0x1c]
        0x08005114:    e75e        ^.      B        0x8004fd4 ; HAL_TIM_IRQHandler + 52
        0x08005116:    4620         F      MOV      r0,r4
        0x08005118:    f000f806    ....    BL       HAL_TIM_OC_DelayElapsedCallback ; 0x8005128
        0x0800511c:    4620         F      MOV      r0,r4
        0x0800511e:    f000f807    ....    BL       HAL_TIM_PWM_PulseFinishedCallback ; 0x8005130
        0x08005122:    2000        .       MOVS     r0,#0
        0x08005124:    7720         w      STRB     r0,[r4,#0x1c]
        0x08005126:    e75d        ].      B        0x8004fe4 ; HAL_TIM_IRQHandler + 68
    HAL_TIM_OC_DelayElapsedCallback
        0x08005128:    4770        pG      BX       lr
        0x0800512a:    0000        ..      MOVS     r0,r0
        0x0800512c:    0000        ..      MOVS     r0,r0
        0x0800512e:    0000        ..      MOVS     r0,r0
    HAL_TIM_PWM_PulseFinishedCallback
        0x08005130:    4770        pG      BX       lr
        0x08005132:    0000        ..      MOVS     r0,r0
        0x08005134:    0000        ..      MOVS     r0,r0
        0x08005136:    0000        ..      MOVS     r0,r0
    HAL_TIM_PeriodElapsedCallback
        0x08005138:    b510        ..      PUSH     {r4,lr}
        0x0800513a:    f2401138    @.8.    MOVW     r1,#0x138
        0x0800513e:    6800        .h      LDR      r0,[r0,#0]
        0x08005140:    f2c24100    ...A    MOVT     r1,#0x2400
        0x08005144:    6809        .h      LDR      r1,[r1,#0]
        0x08005146:    4288        .B      CMP      r0,r1
        0x08005148:    bf18        ..      IT       NE
        0x0800514a:    bd10        ..      POPNE    {r4,pc}
        0x0800514c:    f24004d0    @...    MOVW     r4,#0xd0
        0x08005150:    f64c41cd    L..A    MOV      r1,#0xcccd
        0x08005154:    f2c24400    ...D    MOVT     r4,#0x2400
        0x08005158:    f6cc41cc    ...A    MOVT     r1,#0xcccc
        0x0800515c:    8820         .      LDRH     r0,[r4,#0]
        0x0800515e:    4348        HC      MULS     r0,r1,r0
        0x08005160:    f6491199    I...    MOV      r1,#0x9999
        0x08005164:    f6c11199    ....    MOVT     r1,#0x1999
        0x08005168:    ea4f0070    O.p.    ROR      r0,r0,#1
        0x0800516c:    4288        .B      CMP      r0,r1
        0x0800516e:    d801        ..      BHI      0x8005174 ; HAL_TIM_PeriodElapsedCallback + 60
        0x08005170:    f002f8fa    ....    BL       key_callback_handle ; 0x8007368
        0x08005174:    8820         .      LDRH     r0,[r4,#0]
        0x08005176:    f5b07f7a    ..z.    CMP      r0,#0x3e8
        0x0800517a:    d101        ..      BNE      0x8005180 ; HAL_TIM_PeriodElapsedCallback + 72
        0x0800517c:    2000        .       MOVS     r0,#0
        0x0800517e:    8020         .      STRH     r0,[r4,#0]
        0x08005180:    8820         .      LDRH     r0,[r4,#0]
        0x08005182:    3001        .0      ADDS     r0,#1
        0x08005184:    8020         .      STRH     r0,[r4,#0]
        0x08005186:    2001        .       MOVS     r0,#1
        0x08005188:    f002fc32    ..2.    BL       my_tick_inc ; 0x80079f0
        0x0800518c:    f002faa4    ....    BL       key_detect_scan ; 0x80076d8
        0x08005190:    f24000d4    @...    MOVW     r0,#0xd4
        0x08005194:    f2c24000    ...@    MOVT     r0,#0x2400
        0x08005198:    f7fcfd7e    ..~.    BL       HAL_ADC_Start_IT ; 0x8001c98
        0x0800519c:    bd10        ..      POP      {r4,pc}
        0x0800519e:    0000        ..      MOVS     r0,r0
    HAL_TIM_TriggerCallback
        0x080051a0:    4770        pG      BX       lr
        0x080051a2:    0000        ..      MOVS     r0,r0
        0x080051a4:    0000        ..      MOVS     r0,r0
        0x080051a6:    0000        ..      MOVS     r0,r0
    HAL_UARTEx_DisableFifoMode
        0x080051a8:    b510        ..      PUSH     {r4,lr}
        0x080051aa:    f24771ff    G..q    MOV      r1,#0x77ff
        0x080051ae:    4604        .F      MOV      r4,r0
        0x080051b0:    6800        .h      LDR      r0,[r0,#0]
        0x080051b2:    f2c40100    ....    MOVT     r1,#0x4000
        0x080051b6:    4288        .B      CMP      r0,r1
        0x080051b8:    dc0e        ..      BGT      0x80051d8 ; HAL_UARTEx_DisableFifoMode + 48
        0x080051ba:    f64431ff    D..1    MOV      r1,#0x4bff
        0x080051be:    f2c40100    ....    MOVT     r1,#0x4000
        0x080051c2:    4288        .B      CMP      r0,r1
        0x080051c4:    dc17        ..      BGT      0x80051f6 ; HAL_UARTEx_DisableFifoMode + 78
        0x080051c6:    f2444100    D..A    MOVW     r1,#0x4400
        0x080051ca:    f2c40100    ....    MOVT     r1,#0x4000
        0x080051ce:    4288        .B      CMP      r0,r1
        0x080051d0:    d032        2.      BEQ      0x8005238 ; HAL_UARTEx_DisableFifoMode + 144
        0x080051d2:    f6440100    D...    MOVW     r1,#0x4800
        0x080051d6:    e016        ..      B        0x8005206 ; HAL_UARTEx_DisableFifoMode + 94
        0x080051d8:    f64071ff    @..q    MOV      r1,#0xfff
        0x080051dc:    f2c40101    ....    MOVT     r1,#0x4001
        0x080051e0:    4288        .B      CMP      r0,r1
        0x080051e2:    dc15        ..      BGT      0x8005210 ; HAL_UARTEx_DisableFifoMode + 104
        0x080051e4:    f6470100    G...    MOVW     r1,#0x7800
        0x080051e8:    f2c40100    ....    MOVT     r1,#0x4000
        0x080051ec:    4288        .B      CMP      r0,r1
        0x080051ee:    d023        #.      BEQ      0x8005238 ; HAL_UARTEx_DisableFifoMode + 144
        0x080051f0:    f6474100    G..A    MOVW     r1,#0x7c00
        0x080051f4:    e007        ..      B        0x8005206 ; HAL_UARTEx_DisableFifoMode + 94
        0x080051f6:    f6444100    D..A    MOVW     r1,#0x4c00
        0x080051fa:    f2c40100    ....    MOVT     r1,#0x4000
        0x080051fe:    4288        .B      CMP      r0,r1
        0x08005200:    d01a        ..      BEQ      0x8005238 ; HAL_UARTEx_DisableFifoMode + 144
        0x08005202:    f2450100    E...    MOVW     r1,#0x5000
        0x08005206:    f2c40100    ....    MOVT     r1,#0x4000
        0x0800520a:    4288        .B      CMP      r0,r1
        0x0800520c:    d014        ..      BEQ      0x8005238 ; HAL_UARTEx_DisableFifoMode + 144
        0x0800520e:    e00b        ..      B        0x8005228 ; HAL_UARTEx_DisableFifoMode + 128
        0x08005210:    f2410100    A...    MOVW     r1,#0x1000
        0x08005214:    f2c40101    ....    MOVT     r1,#0x4001
        0x08005218:    4288        .B      CMP      r0,r1
        0x0800521a:    d00d        ..      BEQ      0x8005238 ; HAL_UARTEx_DisableFifoMode + 144
        0x0800521c:    f2414100    A..A    MOVW     r1,#0x1400
        0x08005220:    f2c40101    ....    MOVT     r1,#0x4001
        0x08005224:    4288        .B      CMP      r0,r1
        0x08005226:    d007        ..      BEQ      0x8005238 ; HAL_UARTEx_DisableFifoMode + 144
        0x08005228:    f64760c3    G..`    MOV      r0,#0x7ec3
        0x0800522c:    f44f710d    O..q    MOV      r1,#0x234
        0x08005230:    f6c00000    ....    MOVT     r0,#0x800
        0x08005234:    f001ff48    ..H.    BL       assert_failed ; 0x80070c8
        0x08005238:    f8940084    ....    LDRB     r0,[r4,#0x84]
        0x0800523c:    2801        .(      CMP      r0,#1
        0x0800523e:    d101        ..      BNE      0x8005244 ; HAL_UARTEx_DisableFifoMode + 156
        0x08005240:    2002        .       MOVS     r0,#2
        0x08005242:    bd10        ..      POP      {r4,pc}
        0x08005244:    2024        $       MOVS     r0,#0x24
        0x08005246:    f8c40088    ....    STR      r0,[r4,#0x88]
        0x0800524a:    6821        !h      LDR      r1,[r4,#0]
        0x0800524c:    680a        .h      LDR      r2,[r1,#0]
        0x0800524e:    6808        .h      LDR      r0,[r1,#0]
        0x08005250:    f0225200    "..R    BIC      r2,r2,#0x20000000
        0x08005254:    f0200001     ...    BIC      r0,r0,#1
        0x08005258:    6008        .`      STR      r0,[r1,#0]
        0x0800525a:    2000        .       MOVS     r0,#0
        0x0800525c:    6660        `f      STR      r0,[r4,#0x64]
        0x0800525e:    600a        .`      STR      r2,[r1,#0]
        0x08005260:    2120         !      MOVS     r1,#0x20
        0x08005262:    f8c41088    ....    STR      r1,[r4,#0x88]
        0x08005266:    f8840084    ....    STRB     r0,[r4,#0x84]
        0x0800526a:    bd10        ..      POP      {r4,pc}
        0x0800526c:    0000        ..      MOVS     r0,r0
        0x0800526e:    0000        ..      MOVS     r0,r0
    HAL_UARTEx_SetRxFifoThreshold
        0x08005270:    b570        p.      PUSH     {r4-r6,lr}
        0x08005272:    f24772ff    G..r    MOV      r2,#0x77ff
        0x08005276:    4604        .F      MOV      r4,r0
        0x08005278:    6800        .h      LDR      r0,[r0,#0]
        0x0800527a:    f2c40200    ....    MOVT     r2,#0x4000
        0x0800527e:    4290        .B      CMP      r0,r2
        0x08005280:    460d        .F      MOV      r5,r1
        0x08005282:    dc0e        ..      BGT      0x80052a2 ; HAL_UARTEx_SetRxFifoThreshold + 50
        0x08005284:    f64431ff    D..1    MOV      r1,#0x4bff
        0x08005288:    f2c40100    ....    MOVT     r1,#0x4000
        0x0800528c:    4288        .B      CMP      r0,r1
        0x0800528e:    dc17        ..      BGT      0x80052c0 ; HAL_UARTEx_SetRxFifoThreshold + 80
        0x08005290:    f2444100    D..A    MOVW     r1,#0x4400
        0x08005294:    f2c40100    ....    MOVT     r1,#0x4000
        0x08005298:    4288        .B      CMP      r0,r1
        0x0800529a:    d032        2.      BEQ      0x8005302 ; HAL_UARTEx_SetRxFifoThreshold + 146
        0x0800529c:    f6440100    D...    MOVW     r1,#0x4800
        0x080052a0:    e016        ..      B        0x80052d0 ; HAL_UARTEx_SetRxFifoThreshold + 96
        0x080052a2:    f64071ff    @..q    MOV      r1,#0xfff
        0x080052a6:    f2c40101    ....    MOVT     r1,#0x4001
        0x080052aa:    4288        .B      CMP      r0,r1
        0x080052ac:    dc15        ..      BGT      0x80052da ; HAL_UARTEx_SetRxFifoThreshold + 106
        0x080052ae:    f6470100    G...    MOVW     r1,#0x7800
        0x080052b2:    f2c40100    ....    MOVT     r1,#0x4000
        0x080052b6:    4288        .B      CMP      r0,r1
        0x080052b8:    d023        #.      BEQ      0x8005302 ; HAL_UARTEx_SetRxFifoThreshold + 146
        0x080052ba:    f6474100    G..A    MOVW     r1,#0x7c00
        0x080052be:    e007        ..      B        0x80052d0 ; HAL_UARTEx_SetRxFifoThreshold + 96
        0x080052c0:    f6444100    D..A    MOVW     r1,#0x4c00
        0x080052c4:    f2c40100    ....    MOVT     r1,#0x4000
        0x080052c8:    4288        .B      CMP      r0,r1
        0x080052ca:    d01a        ..      BEQ      0x8005302 ; HAL_UARTEx_SetRxFifoThreshold + 146
        0x080052cc:    f2450100    E...    MOVW     r1,#0x5000
        0x080052d0:    f2c40100    ....    MOVT     r1,#0x4000
        0x080052d4:    4288        .B      CMP      r0,r1
        0x080052d6:    d014        ..      BEQ      0x8005302 ; HAL_UARTEx_SetRxFifoThreshold + 146
        0x080052d8:    e00b        ..      B        0x80052f2 ; HAL_UARTEx_SetRxFifoThreshold + 130
        0x080052da:    f2410100    A...    MOVW     r1,#0x1000
        0x080052de:    f2c40101    ....    MOVT     r1,#0x4001
        0x080052e2:    4288        .B      CMP      r0,r1
        0x080052e4:    d00d        ..      BEQ      0x8005302 ; HAL_UARTEx_SetRxFifoThreshold + 146
        0x080052e6:    f2414100    A..A    MOVW     r1,#0x1400
        0x080052ea:    f2c40101    ....    MOVT     r1,#0x4001
        0x080052ee:    4288        .B      CMP      r0,r1
        0x080052f0:    d007        ..      BEQ      0x8005302 ; HAL_UARTEx_SetRxFifoThreshold + 146
        0x080052f2:    f64760c3    G..`    MOV      r0,#0x7ec3
        0x080052f6:    f2402193    @..!    MOV      r1,#0x293
        0x080052fa:    f6c00000    ....    MOVT     r0,#0x800
        0x080052fe:    f001fee3    ....    BL       assert_failed ; 0x80070c8
        0x08005302:    ea4f6075    O.u`    ROR      r0,r5,#25
        0x08005306:    2806        .(      CMP      r0,#6
        0x08005308:    d307        ..      BCC      0x800531a ; HAL_UARTEx_SetRxFifoThreshold + 170
        0x0800530a:    f64760c3    G..`    MOV      r0,#0x7ec3
        0x0800530e:    f44f7125    O.%q    MOV      r1,#0x294
        0x08005312:    f6c00000    ....    MOVT     r0,#0x800
        0x08005316:    f001fed7    ....    BL       assert_failed ; 0x80070c8
        0x0800531a:    f8940084    ....    LDRB     r0,[r4,#0x84]
        0x0800531e:    2801        .(      CMP      r0,#1
        0x08005320:    d101        ..      BNE      0x8005326 ; HAL_UARTEx_SetRxFifoThreshold + 182
        0x08005322:    2002        .       MOVS     r0,#2
        0x08005324:    bd70        p.      POP      {r4-r6,pc}
        0x08005326:    2001        .       MOVS     r0,#1
        0x08005328:    f8840084    ....    STRB     r0,[r4,#0x84]
        0x0800532c:    2024        $       MOVS     r0,#0x24
        0x0800532e:    f8c40088    ....    STR      r0,[r4,#0x88]
        0x08005332:    6820         h      LDR      r0,[r4,#0]
        0x08005334:    6806        .h      LDR      r6,[r0,#0]
        0x08005336:    6801        .h      LDR      r1,[r0,#0]
        0x08005338:    f0210101    !...    BIC      r1,r1,#1
        0x0800533c:    6001        .`      STR      r1,[r0,#0]
        0x0800533e:    6881        .h      LDR      r1,[r0,#8]
        0x08005340:    f0216160    !.`a    BIC      r1,r1,#0xe000000
        0x08005344:    4329        )C      ORRS     r1,r1,r5
        0x08005346:    6081        .`      STR      r1,[r0,#8]
        0x08005348:    4620         F      MOV      r0,r4
        0x0800534a:    f001f8d5    ....    BL       UARTEx_SetNbDataToProcess ; 0x80064f8
        0x0800534e:    6820         h      LDR      r0,[r4,#0]
        0x08005350:    6006        .`      STR      r6,[r0,#0]
        0x08005352:    2020                MOVS     r0,#0x20
        0x08005354:    f8c40088    ....    STR      r0,[r4,#0x88]
        0x08005358:    2000        .       MOVS     r0,#0
        0x0800535a:    f8840084    ....    STRB     r0,[r4,#0x84]
        0x0800535e:    bd70        p.      POP      {r4-r6,pc}
    HAL_UARTEx_SetTxFifoThreshold
        0x08005360:    b570        p.      PUSH     {r4-r6,lr}
        0x08005362:    f24772ff    G..r    MOV      r2,#0x77ff
        0x08005366:    4604        .F      MOV      r4,r0
        0x08005368:    6800        .h      LDR      r0,[r0,#0]
        0x0800536a:    f2c40200    ....    MOVT     r2,#0x4000
        0x0800536e:    4290        .B      CMP      r0,r2
        0x08005370:    460d        .F      MOV      r5,r1
        0x08005372:    dc0e        ..      BGT      0x8005392 ; HAL_UARTEx_SetTxFifoThreshold + 50
        0x08005374:    f64431ff    D..1    MOV      r1,#0x4bff
        0x08005378:    f2c40100    ....    MOVT     r1,#0x4000
        0x0800537c:    4288        .B      CMP      r0,r1
        0x0800537e:    dc17        ..      BGT      0x80053b0 ; HAL_UARTEx_SetTxFifoThreshold + 80
        0x08005380:    f2444100    D..A    MOVW     r1,#0x4400
        0x08005384:    f2c40100    ....    MOVT     r1,#0x4000
        0x08005388:    4288        .B      CMP      r0,r1
        0x0800538a:    d032        2.      BEQ      0x80053f2 ; HAL_UARTEx_SetTxFifoThreshold + 146
        0x0800538c:    f6440100    D...    MOVW     r1,#0x4800
        0x08005390:    e016        ..      B        0x80053c0 ; HAL_UARTEx_SetTxFifoThreshold + 96
        0x08005392:    f64071ff    @..q    MOV      r1,#0xfff
        0x08005396:    f2c40101    ....    MOVT     r1,#0x4001
        0x0800539a:    4288        .B      CMP      r0,r1
        0x0800539c:    dc15        ..      BGT      0x80053ca ; HAL_UARTEx_SetTxFifoThreshold + 106
        0x0800539e:    f6470100    G...    MOVW     r1,#0x7800
        0x080053a2:    f2c40100    ....    MOVT     r1,#0x4000
        0x080053a6:    4288        .B      CMP      r0,r1
        0x080053a8:    d023        #.      BEQ      0x80053f2 ; HAL_UARTEx_SetTxFifoThreshold + 146
        0x080053aa:    f6474100    G..A    MOVW     r1,#0x7c00
        0x080053ae:    e007        ..      B        0x80053c0 ; HAL_UARTEx_SetTxFifoThreshold + 96
        0x080053b0:    f6444100    D..A    MOVW     r1,#0x4c00
        0x080053b4:    f2c40100    ....    MOVT     r1,#0x4000
        0x080053b8:    4288        .B      CMP      r0,r1
        0x080053ba:    d01a        ..      BEQ      0x80053f2 ; HAL_UARTEx_SetTxFifoThreshold + 146
        0x080053bc:    f2450100    E...    MOVW     r1,#0x5000
        0x080053c0:    f2c40100    ....    MOVT     r1,#0x4000
        0x080053c4:    4288        .B      CMP      r0,r1
        0x080053c6:    d014        ..      BEQ      0x80053f2 ; HAL_UARTEx_SetTxFifoThreshold + 146
        0x080053c8:    e00b        ..      B        0x80053e2 ; HAL_UARTEx_SetTxFifoThreshold + 130
        0x080053ca:    f2410100    A...    MOVW     r1,#0x1000
        0x080053ce:    f2c40101    ....    MOVT     r1,#0x4001
        0x080053d2:    4288        .B      CMP      r0,r1
        0x080053d4:    d00d        ..      BEQ      0x80053f2 ; HAL_UARTEx_SetTxFifoThreshold + 146
        0x080053d6:    f2414100    A..A    MOVW     r1,#0x1400
        0x080053da:    f2c40101    ....    MOVT     r1,#0x4001
        0x080053de:    4288        .B      CMP      r0,r1
        0x080053e0:    d007        ..      BEQ      0x80053f2 ; HAL_UARTEx_SetTxFifoThreshold + 146
        0x080053e2:    f64760c3    G..`    MOV      r0,#0x7ec3
        0x080053e6:    f2402162    @.b!    MOV      r1,#0x262
        0x080053ea:    f6c00000    ....    MOVT     r0,#0x800
        0x080053ee:    f001fe6b    ..k.    BL       assert_failed ; 0x80070c8
        0x080053f2:    f0854000    ...@    EOR      r0,r5,#0x80000000
        0x080053f6:    00e9        ..      LSLS     r1,r5,#3
        0x080053f8:    ea417050    A.Pp    ORR      r0,r1,r0,LSR #29
        0x080053fc:    2807        .(      CMP      r0,#7
        0x080053fe:    d828        (.      BHI      0x8005452 ; HAL_UARTEx_SetTxFifoThreshold + 242
        0x08005400:    2101        .!      MOVS     r1,#1
        0x08005402:    fa01f000    ....    LSL      r0,r1,r0
        0x08005406:    f0100ff3    ....    TST      r0,#0xf3
        0x0800540a:    d022        ".      BEQ      0x8005452 ; HAL_UARTEx_SetTxFifoThreshold + 242
        0x0800540c:    f8940084    ....    LDRB     r0,[r4,#0x84]
        0x08005410:    2801        .(      CMP      r0,#1
        0x08005412:    d101        ..      BNE      0x8005418 ; HAL_UARTEx_SetTxFifoThreshold + 184
        0x08005414:    2002        .       MOVS     r0,#2
        0x08005416:    bd70        p.      POP      {r4-r6,pc}
        0x08005418:    2001        .       MOVS     r0,#1
        0x0800541a:    f8840084    ....    STRB     r0,[r4,#0x84]
        0x0800541e:    2024        $       MOVS     r0,#0x24
        0x08005420:    f8c40088    ....    STR      r0,[r4,#0x88]
        0x08005424:    6820         h      LDR      r0,[r4,#0]
        0x08005426:    6806        .h      LDR      r6,[r0,#0]
        0x08005428:    6801        .h      LDR      r1,[r0,#0]
        0x0800542a:    f0210101    !...    BIC      r1,r1,#1
        0x0800542e:    6001        .`      STR      r1,[r0,#0]
        0x08005430:    6881        .h      LDR      r1,[r0,#8]
        0x08005432:    f0214160    !.`A    BIC      r1,r1,#0xe0000000
        0x08005436:    4329        )C      ORRS     r1,r1,r5
        0x08005438:    6081        .`      STR      r1,[r0,#8]
        0x0800543a:    4620         F      MOV      r0,r4
        0x0800543c:    f001f85c    ..\.    BL       UARTEx_SetNbDataToProcess ; 0x80064f8
        0x08005440:    6820         h      LDR      r0,[r4,#0]
        0x08005442:    6006        .`      STR      r6,[r0,#0]
        0x08005444:    2020                MOVS     r0,#0x20
        0x08005446:    f8c40088    ....    STR      r0,[r4,#0x88]
        0x0800544a:    2000        .       MOVS     r0,#0
        0x0800544c:    f8840084    ....    STRB     r0,[r4,#0x84]
        0x08005450:    bd70        p.      POP      {r4-r6,pc}
        0x08005452:    f64760c3    G..`    MOV      r0,#0x7ec3
        0x08005456:    f2402163    @.c!    MOV      r1,#0x263
        0x0800545a:    f6c00000    ....    MOVT     r0,#0x800
        0x0800545e:    f001fe33    ..3.    BL       assert_failed ; 0x80070c8
        0x08005462:    e7d3        ..      B        0x800540c ; HAL_UARTEx_SetTxFifoThreshold + 172
        0x08005464:    0000        ..      MOVS     r0,r0
        0x08005466:    0000        ..      MOVS     r0,r0
    HAL_UART_Init
        0x08005468:    b510        ..      PUSH     {r4,lr}
        0x0800546a:    2800        .(      CMP      r0,#0
        0x0800546c:    f00080aa    ....    BEQ.W    0x80055c4 ; HAL_UART_Init + 348
        0x08005470:    4604        .F      MOV      r4,r0
        0x08005472:    6980        .i      LDR      r0,[r0,#0x18]
        0x08005474:    f24771ff    G..q    MOV      r1,#0x77ff
        0x08005478:    2800        .(      CMP      r0,#0
        0x0800547a:    6820         h      LDR      r0,[r4,#0]
        0x0800547c:    f2c40100    ....    MOVT     r1,#0x4000
        0x08005480:    d01a        ..      BEQ      0x80054b8 ; HAL_UART_Init + 80
        0x08005482:    4288        .B      CMP      r0,r1
        0x08005484:    dd33        3.      BLE      0x80054ee ; HAL_UART_Init + 134
        0x08005486:    f64071ff    @..q    MOV      r1,#0xfff
        0x0800548a:    f2c40101    ....    MOVT     r1,#0x4001
        0x0800548e:    4288        .B      CMP      r0,r1
        0x08005490:    dd4b        K.      BLE      0x800552a ; HAL_UART_Init + 194
        0x08005492:    f2410100    A...    MOVW     r1,#0x1000
        0x08005496:    f2c40101    ....    MOVT     r1,#0x4001
        0x0800549a:    4288        .B      CMP      r0,r1
        0x0800549c:    d07c        |.      BEQ      0x8005598 ; HAL_UART_Init + 304
        0x0800549e:    f2414100    A..A    MOVW     r1,#0x1400
        0x080054a2:    f2c40101    ....    MOVT     r1,#0x4001
        0x080054a6:    4288        .B      CMP      r0,r1
        0x080054a8:    d076        v.      BEQ      0x8005598 ; HAL_UART_Init + 304
        0x080054aa:    f6404100    @..A    MOVW     r1,#0xc00
        0x080054ae:    f6c50100    ....    MOVT     r1,#0x5800
        0x080054b2:    4288        .B      CMP      r0,r1
        0x080054b4:    d070        p.      BEQ      0x8005598 ; HAL_UART_Init + 304
        0x080054b6:    e04d        M.      B        0x8005554 ; HAL_UART_Init + 236
        0x080054b8:    4288        .B      CMP      r0,r1
        0x080054ba:    dd27        '.      BLE      0x800550c ; HAL_UART_Init + 164
        0x080054bc:    f64071ff    @..q    MOV      r1,#0xfff
        0x080054c0:    f2c40101    ....    MOVT     r1,#0x4001
        0x080054c4:    4288        .B      CMP      r0,r1
        0x080054c6:    dd4a        J.      BLE      0x800555e ; HAL_UART_Init + 246
        0x080054c8:    f2410100    A...    MOVW     r1,#0x1000
        0x080054cc:    f2c40101    ....    MOVT     r1,#0x4001
        0x080054d0:    4288        .B      CMP      r0,r1
        0x080054d2:    d061        a.      BEQ      0x8005598 ; HAL_UART_Init + 304
        0x080054d4:    f2414100    A..A    MOVW     r1,#0x1400
        0x080054d8:    f2c40101    ....    MOVT     r1,#0x4001
        0x080054dc:    4288        .B      CMP      r0,r1
        0x080054de:    d05b        [.      BEQ      0x8005598 ; HAL_UART_Init + 304
        0x080054e0:    f6404100    @..A    MOVW     r1,#0xc00
        0x080054e4:    f6c50100    ....    MOVT     r1,#0x5800
        0x080054e8:    4288        .B      CMP      r0,r1
        0x080054ea:    d055        U.      BEQ      0x8005598 ; HAL_UART_Init + 304
        0x080054ec:    e04c        L.      B        0x8005588 ; HAL_UART_Init + 288
        0x080054ee:    f64431ff    D..1    MOV      r1,#0x4bff
        0x080054f2:    f2c40100    ....    MOVT     r1,#0x4000
        0x080054f6:    4288        .B      CMP      r0,r1
        0x080054f8:    dc20         .      BGT      0x800553c ; HAL_UART_Init + 212
        0x080054fa:    f2444100    D..A    MOVW     r1,#0x4400
        0x080054fe:    f2c40100    ....    MOVT     r1,#0x4000
        0x08005502:    4288        .B      CMP      r0,r1
        0x08005504:    d048        H.      BEQ      0x8005598 ; HAL_UART_Init + 304
        0x08005506:    f6440100    D...    MOVW     r1,#0x4800
        0x0800550a:    e01f        ..      B        0x800554c ; HAL_UART_Init + 228
        0x0800550c:    f64431ff    D..1    MOV      r1,#0x4bff
        0x08005510:    f2c40100    ....    MOVT     r1,#0x4000
        0x08005514:    4288        .B      CMP      r0,r1
        0x08005516:    dc2b        +.      BGT      0x8005570 ; HAL_UART_Init + 264
        0x08005518:    f2444100    D..A    MOVW     r1,#0x4400
        0x0800551c:    f2c40100    ....    MOVT     r1,#0x4000
        0x08005520:    4288        .B      CMP      r0,r1
        0x08005522:    d039        9.      BEQ      0x8005598 ; HAL_UART_Init + 304
        0x08005524:    f6440100    D...    MOVW     r1,#0x4800
        0x08005528:    e02a        *.      B        0x8005580 ; HAL_UART_Init + 280
        0x0800552a:    f6470100    G...    MOVW     r1,#0x7800
        0x0800552e:    f2c40100    ....    MOVT     r1,#0x4000
        0x08005532:    4288        .B      CMP      r0,r1
        0x08005534:    d030        0.      BEQ      0x8005598 ; HAL_UART_Init + 304
        0x08005536:    f6474100    G..A    MOVW     r1,#0x7c00
        0x0800553a:    e007        ..      B        0x800554c ; HAL_UART_Init + 228
        0x0800553c:    f6444100    D..A    MOVW     r1,#0x4c00
        0x08005540:    f2c40100    ....    MOVT     r1,#0x4000
        0x08005544:    4288        .B      CMP      r0,r1
        0x08005546:    d027        '.      BEQ      0x8005598 ; HAL_UART_Init + 304
        0x08005548:    f2450100    E...    MOVW     r1,#0x5000
        0x0800554c:    f2c40100    ....    MOVT     r1,#0x4000
        0x08005550:    4288        .B      CMP      r0,r1
        0x08005552:    d021        !.      BEQ      0x8005598 ; HAL_UART_Init + 304
        0x08005554:    f647608a    G..`    MOV      r0,#0x7e8a
        0x08005558:    f44f719f    O..q    MOV      r1,#0x13e
        0x0800555c:    e018        ..      B        0x8005590 ; HAL_UART_Init + 296
        0x0800555e:    f6470100    G...    MOVW     r1,#0x7800
        0x08005562:    f2c40100    ....    MOVT     r1,#0x4000
        0x08005566:    4288        .B      CMP      r0,r1
        0x08005568:    d016        ..      BEQ      0x8005598 ; HAL_UART_Init + 304
        0x0800556a:    f6474100    G..A    MOVW     r1,#0x7c00
        0x0800556e:    e007        ..      B        0x8005580 ; HAL_UART_Init + 280
        0x08005570:    f6444100    D..A    MOVW     r1,#0x4c00
        0x08005574:    f2c40100    ....    MOVT     r1,#0x4000
        0x08005578:    4288        .B      CMP      r0,r1
        0x0800557a:    d00d        ..      BEQ      0x8005598 ; HAL_UART_Init + 304
        0x0800557c:    f2450100    E...    MOVW     r1,#0x5000
        0x08005580:    f2c40100    ....    MOVT     r1,#0x4000
        0x08005584:    4288        .B      CMP      r0,r1
        0x08005586:    d007        ..      BEQ      0x8005598 ; HAL_UART_Init + 304
        0x08005588:    f647608a    G..`    MOV      r0,#0x7e8a
        0x0800558c:    f2401143    @.C.    MOV      r1,#0x143
        0x08005590:    f6c00000    ....    MOVT     r0,#0x800
        0x08005594:    f001fd98    ....    BL       assert_failed ; 0x80070c8
        0x08005598:    f8d40088    ....    LDR      r0,[r4,#0x88]
        0x0800559c:    b928        (.      CBNZ     r0,0x80055aa ; HAL_UART_Init + 322
        0x0800559e:    2000        .       MOVS     r0,#0
        0x080055a0:    f8840084    ....    STRB     r0,[r4,#0x84]
        0x080055a4:    4620         F      MOV      r0,r4
        0x080055a6:    f000f827    ..'.    BL       HAL_UART_MspInit ; 0x80055f8
        0x080055aa:    2024        $       MOVS     r0,#0x24
        0x080055ac:    f8c40088    ....    STR      r0,[r4,#0x88]
        0x080055b0:    6820         h      LDR      r0,[r4,#0]
        0x080055b2:    6801        .h      LDR      r1,[r0,#0]
        0x080055b4:    f0210101    !...    BIC      r1,r1,#1
        0x080055b8:    6001        .`      STR      r1,[r0,#0]
        0x080055ba:    4620         F      MOV      r0,r4
        0x080055bc:    f001f990    ....    BL       UART_SetConfig ; 0x80068e0
        0x080055c0:    2801        .(      CMP      r0,#1
        0x080055c2:    d101        ..      BNE      0x80055c8 ; HAL_UART_Init + 352
        0x080055c4:    2001        .       MOVS     r0,#1
        0x080055c6:    bd10        ..      POP      {r4,pc}
        0x080055c8:    6aa0        .j      LDR      r0,[r4,#0x28]
        0x080055ca:    b110        ..      CBZ      r0,0x80055d2 ; HAL_UART_Init + 362
        0x080055cc:    4620         F      MOV      r0,r4
        0x080055ce:    f000ffbf    ....    BL       UART_AdvFeatureConfig ; 0x8006550
        0x080055d2:    6820         h      LDR      r0,[r4,#0]
        0x080055d4:    6841        Ah      LDR      r1,[r0,#4]
        0x080055d6:    f4214190    !..A    BIC      r1,r1,#0x4800
        0x080055da:    6041        A`      STR      r1,[r0,#4]
        0x080055dc:    6881        .h      LDR      r1,[r0,#8]
        0x080055de:    f021012a    !.*.    BIC      r1,r1,#0x2a
        0x080055e2:    6081        .`      STR      r1,[r0,#8]
        0x080055e4:    6801        .h      LDR      r1,[r0,#0]
        0x080055e6:    f0410101    A...    ORR      r1,r1,#1
        0x080055ea:    6001        .`      STR      r1,[r0,#0]
        0x080055ec:    4620         F      MOV      r0,r4
        0x080055ee:    f001f8eb    ....    BL       UART_CheckIdleState ; 0x80067c8
        0x080055f2:    bd10        ..      POP      {r4,pc}
        0x080055f4:    0000        ..      MOVS     r0,r0
        0x080055f6:    0000        ..      MOVS     r0,r0
    HAL_UART_MspInit
        0x080055f8:    b5b0        ..      PUSH     {r4,r5,r7,lr}
        0x080055fa:    b0b8        ..      SUB      sp,sp,#0xe0
        0x080055fc:    4604        .F      MOV      r4,r0
        0x080055fe:    a802        ..      ADD      r0,sp,#8
        0x08005600:    21c0        .!      MOVS     r1,#0xc0
        0x08005602:    2500        .%      MOVS     r5,#0
        0x08005604:    e9cd5536    ..6U    STRD     r5,r5,[sp,#0xd8]
        0x08005608:    e9cd5534    ..4U    STRD     r5,r5,[sp,#0xd0]
        0x0800560c:    9533        3.      STR      r5,[sp,#0xcc]
        0x0800560e:    f7faff43    ..C.    BL       __aeabi_memclr4 ; 0x8000498
        0x08005612:    f2410100    A...    MOVW     r1,#0x1000
        0x08005616:    6820         h      LDR      r0,[r4,#0]
        0x08005618:    f2c40101    ....    MOVT     r1,#0x4001
        0x0800561c:    4288        .B      CMP      r0,r1
        0x0800561e:    d001        ..      BEQ      0x8005624 ; HAL_UART_MspInit + 44
        0x08005620:    b038        8.      ADD      sp,sp,#0xe0
        0x08005622:    bdb0        ..      POP      {r4,r5,r7,pc}
        0x08005624:    a802        ..      ADD      r0,sp,#8
        0x08005626:    9503        ..      STR      r5,[sp,#0xc]
        0x08005628:    2401        .$      MOVS     r4,#1
        0x0800562a:    9402        ..      STR      r4,[sp,#8]
        0x0800562c:    9521        !.      STR      r5,[sp,#0x84]
        0x0800562e:    f7fdfa3b    ..;.    BL       HAL_RCCEx_PeriphCLKConfig ; 0x8002aa8
        0x08005632:    b108        ..      CBZ      r0,0x8005638 ; HAL_UART_MspInit + 64
        0x08005634:    f7fbf960    ..`.    BL       Error_Handler ; 0x80008f8
        0x08005638:    f24440e0    D..@    MOV      r0,#0x44e0
        0x0800563c:    f6c50002    ....    MOVT     r0,#0x5802
        0x08005640:    6901        .i      LDR      r1,[r0,#0x10]
        0x08005642:    f0410110    A...    ORR      r1,r1,#0x10
        0x08005646:    6101        .a      STR      r1,[r0,#0x10]
        0x08005648:    6901        .i      LDR      r1,[r0,#0x10]
        0x0800564a:    f0010110    ....    AND      r1,r1,#0x10
        0x0800564e:    9101        ..      STR      r1,[sp,#4]
        0x08005650:    9901        ..      LDR      r1,[sp,#4]
        0x08005652:    6801        .h      LDR      r1,[r0,#0]
        0x08005654:    f0410101    A...    ORR      r1,r1,#1
        0x08005658:    6001        .`      STR      r1,[r0,#0]
        0x0800565a:    6800        .h      LDR      r0,[r0,#0]
        0x0800565c:    a933        3.      ADD      r1,sp,#0xcc
        0x0800565e:    f0000001    ....    AND      r0,r0,#1
        0x08005662:    9001        ..      STR      r0,[sp,#4]
        0x08005664:    9801        ..      LDR      r0,[sp,#4]
        0x08005666:    f44f60c0    O..`    MOV      r0,#0x600
        0x0800566a:    9033        3.      STR      r0,[sp,#0xcc]
        0x0800566c:    2002        .       MOVS     r0,#2
        0x0800566e:    9034        4.      STR      r0,[sp,#0xd0]
        0x08005670:    2000        .       MOVS     r0,#0
        0x08005672:    e9cd0435    ..5.    STRD     r0,r4,[sp,#0xd4]
        0x08005676:    2007        .       MOVS     r0,#7
        0x08005678:    9037        7.      STR      r0,[sp,#0xdc]
        0x0800567a:    2000        .       MOVS     r0,#0
        0x0800567c:    f6c50002    ....    MOVT     r0,#0x5802
        0x08005680:    f7fcfc16    ....    BL       HAL_GPIO_Init ; 0x8001eb0
        0x08005684:    b038        8.      ADD      sp,sp,#0xe0
        0x08005686:    bdb0        ..      POP      {r4,r5,r7,pc}
    HAL_UART_Transmit
        0x08005688:    e92d41f0    -..A    PUSH     {r4-r8,lr}
        0x0800568c:    b082        ..      SUB      sp,sp,#8
        0x0800568e:    4604        .F      MOV      r4,r0
        0x08005690:    f8d00088    ....    LDR      r0,[r0,#0x88]
        0x08005694:    2820         (      CMP      r0,#0x20
        0x08005696:    d13f        ?.      BNE      0x8005718 ; HAL_UART_Transmit + 144
        0x08005698:    460e        .F      MOV      r6,r1
        0x0800569a:    2900        .)      CMP      r1,#0
        0x0800569c:    f04f0001    O...    MOV      r0,#1
        0x080056a0:    d04b        K.      BEQ      0x800573a ; HAL_UART_Transmit + 178
        0x080056a2:    4617        .F      MOV      r7,r2
        0x080056a4:    2a00        .*      CMP      r2,#0
        0x080056a6:    d048        H.      BEQ      0x800573a ; HAL_UART_Transmit + 178
        0x080056a8:    461d        .F      MOV      r5,r3
        0x080056aa:    f04f0800    O...    MOV      r8,#0
        0x080056ae:    f8c48090    ....    STR      r8,[r4,#0x90]
        0x080056b2:    2021        !       MOVS     r0,#0x21
        0x080056b4:    f8c40088    ....    STR      r0,[r4,#0x88]
        0x080056b8:    f7fcfd7e    ..~.    BL       HAL_GetTick ; 0x80021b8
        0x080056bc:    f8a47054    ..Tp    STRH     r7,[r4,#0x54]
        0x080056c0:    f8a47056    ..Vp    STRH     r7,[r4,#0x56]
        0x080056c4:    4607        .F      MOV      r7,r0
        0x080056c6:    68a1        .h      LDR      r1,[r4,#8]
        0x080056c8:    f5b15f80    ..._    CMP      r1,#0x1000
        0x080056cc:    d10f        ..      BNE      0x80056ee ; HAL_UART_Transmit + 102
        0x080056ce:    6920         i      LDR      r0,[r4,#0x10]
        0x080056d0:    2800        .(      CMP      r0,#0
        0x080056d2:    bf14        ..      ITE      NE
        0x080056d4:    4630        0F      MOVNE    r0,r6
        0x080056d6:    46b0        .F      MOVEQ    r8,r6
        0x080056d8:    4606        .F      MOV      r6,r0
        0x080056da:    e008        ..      B        0x80056ee ; HAL_UART_Transmit + 102
        0x080056dc:    6820         h      LDR      r0,[r4,#0]
        0x080056de:    f8161b01    ....    LDRB     r1,[r6],#1
        0x080056e2:    6281        .b      STR      r1,[r0,#0x28]
        0x080056e4:    f8b40056    ..V.    LDRH     r0,[r4,#0x56]
        0x080056e8:    3801        .8      SUBS     r0,#1
        0x080056ea:    f8a40056    ..V.    STRH     r0,[r4,#0x56]
        0x080056ee:    f8b40056    ..V.    LDRH     r0,[r4,#0x56]
        0x080056f2:    b1a8        ..      CBZ      r0,0x8005720 ; HAL_UART_Transmit + 152
        0x080056f4:    2180        .!      MOVS     r1,#0x80
        0x080056f6:    2200        ."      MOVS     r2,#0
        0x080056f8:    4620         F      MOV      r0,r4
        0x080056fa:    463b        ;F      MOV      r3,r7
        0x080056fc:    9500        ..      STR      r5,[sp,#0]
        0x080056fe:    f001fc3f    ..?.    BL       UART_WaitOnFlagUntilTimeout ; 0x8006f80
        0x08005702:    b9e8        ..      CBNZ     r0,0x8005740 ; HAL_UART_Transmit + 184
        0x08005704:    2e00        ..      CMP      r6,#0
        0x08005706:    d1e9        ..      BNE      0x80056dc ; HAL_UART_Transmit + 84
        0x08005708:    f8380b02    8...    LDRH     r0,[r8],#2
        0x0800570c:    6821        !h      LDR      r1,[r4,#0]
        0x0800570e:    2600        .&      MOVS     r6,#0
        0x08005710:    f36f205f    o._     BFC      r0,#9,#23
        0x08005714:    6288        .b      STR      r0,[r1,#0x28]
        0x08005716:    e7e5        ..      B        0x80056e4 ; HAL_UART_Transmit + 92
        0x08005718:    2002        .       MOVS     r0,#2
        0x0800571a:    b002        ..      ADD      sp,sp,#8
        0x0800571c:    e8bd81f0    ....    POP      {r4-r8,pc}
        0x08005720:    2140        @!      MOVS     r1,#0x40
        0x08005722:    2200        ."      MOVS     r2,#0
        0x08005724:    4620         F      MOV      r0,r4
        0x08005726:    463b        ;F      MOV      r3,r7
        0x08005728:    9500        ..      STR      r5,[sp,#0]
        0x0800572a:    f001fc29    ..).    BL       UART_WaitOnFlagUntilTimeout ; 0x8006f80
        0x0800572e:    2120         !      MOVS     r1,#0x20
        0x08005730:    2800        .(      CMP      r0,#0
        0x08005732:    f8c41088    ....    STR      r1,[r4,#0x88]
        0x08005736:    bf18        ..      IT       NE
        0x08005738:    2003        .       MOVNE    r0,#3
        0x0800573a:    b002        ..      ADD      sp,sp,#8
        0x0800573c:    e8bd81f0    ....    POP      {r4-r8,pc}
        0x08005740:    2020                MOVS     r0,#0x20
        0x08005742:    f8c40088    ....    STR      r0,[r4,#0x88]
        0x08005746:    2003        .       MOVS     r0,#3
        0x08005748:    b002        ..      ADD      sp,sp,#8
        0x0800574a:    e8bd81f0    ....    POP      {r4-r8,pc}
        0x0800574e:    0000        ..      MOVS     r0,r0
    HardFault_Handler
        0x08005750:    e7fe        ..      B        HardFault_Handler ; 0x8005750
        0x08005752:    0000        ..      MOVS     r0,r0
        0x08005754:    0000        ..      MOVS     r0,r0
        0x08005756:    0000        ..      MOVS     r0,r0
    LL_ADC_Disable
        0x08005758:    f64f72c0    O..r    MOV      r2,#0xffc0
        0x0800575c:    6881        .h      LDR      r1,[r0,#8]
        0x0800575e:    f6c772ff    ...r    MOVT     r2,#0x7fff
        0x08005762:    4011        .@      ANDS     r1,r1,r2
        0x08005764:    3102        .1      ADDS     r1,#2
        0x08005766:    6081        .`      STR      r1,[r0,#8]
        0x08005768:    4770        pG      BX       lr
        0x0800576a:    0000        ..      MOVS     r0,r0
        0x0800576c:    0000        ..      MOVS     r0,r0
        0x0800576e:    0000        ..      MOVS     r0,r0
    LL_ADC_DisableDeepPowerDown
        0x08005770:    f64f72c0    O..r    MOV      r2,#0xffc0
        0x08005774:    6881        .h      LDR      r1,[r0,#8]
        0x08005776:    f6c572ff    ...r    MOVT     r2,#0x5fff
        0x0800577a:    4011        .@      ANDS     r1,r1,r2
        0x0800577c:    6081        .`      STR      r1,[r0,#8]
        0x0800577e:    4770        pG      BX       lr
    LL_ADC_Enable
        0x08005780:    f64f72c0    O..r    MOV      r2,#0xffc0
        0x08005784:    6881        .h      LDR      r1,[r0,#8]
        0x08005786:    f6c772ff    ...r    MOVT     r2,#0x7fff
        0x0800578a:    4011        .@      ANDS     r1,r1,r2
        0x0800578c:    3101        .1      ADDS     r1,#1
        0x0800578e:    6081        .`      STR      r1,[r0,#8]
        0x08005790:    4770        pG      BX       lr
        0x08005792:    0000        ..      MOVS     r0,r0
        0x08005794:    0000        ..      MOVS     r0,r0
        0x08005796:    0000        ..      MOVS     r0,r0
    LL_ADC_EnableInternalRegulator
        0x08005798:    f64f72c0    O..r    MOV      r2,#0xffc0
        0x0800579c:    6881        .h      LDR      r1,[r0,#8]
        0x0800579e:    f6c672ff    ...r    MOVT     r2,#0x6fff
        0x080057a2:    4011        .@      ANDS     r1,r1,r2
        0x080057a4:    f1015180    ...Q    ADD      r1,r1,#0x10000000
        0x080057a8:    6081        .`      STR      r1,[r0,#8]
        0x080057aa:    4770        pG      BX       lr
        0x080057ac:    0000        ..      MOVS     r0,r0
        0x080057ae:    0000        ..      MOVS     r0,r0
    LL_ADC_GetCommonPathInternalCh
        0x080057b0:    6880        .h      LDR      r0,[r0,#8]
        0x080057b2:    f00070e0    ...p    AND      r0,r0,#0x1c00000
        0x080057b6:    4770        pG      BX       lr
    LL_ADC_GetMultiDMATransfer
        0x080057b8:    6880        .h      LDR      r0,[r0,#8]
        0x080057ba:    f4004040    ..@@    AND      r0,r0,#0xc000
        0x080057be:    4770        pG      BX       lr
    LL_ADC_GetMultimode
        0x080057c0:    6880        .h      LDR      r0,[r0,#8]
        0x080057c2:    f000001f    ....    AND      r0,r0,#0x1f
        0x080057c6:    4770        pG      BX       lr
    LL_ADC_GetResolution
        0x080057c8:    f2410100    A...    MOVW     r1,#0x1000
        0x080057cc:    f6c54100    ...A    MOVT     r1,#0x5c00
        0x080057d0:    680a        .h      LDR      r2,[r1,#0]
        0x080057d2:    4601        .F      MOV      r1,r0
        0x080057d4:    f0025040    ..@P    AND      r0,r2,#0x30000000
        0x080057d8:    68ca        .h      LDR      r2,[r1,#0xc]
        0x080057da:    f1b05f80    ..._    CMP      r0,#0x10000000
        0x080057de:    f002001c    ....    AND      r0,r2,#0x1c
        0x080057e2:    bf08        ..      IT       EQ
        0x080057e4:    4770        pG      BXEQ     lr
        0x080057e6:    281c        .(      CMP      r0,#0x1c
        0x080057e8:    d101        ..      BNE      0x80057ee ; LL_ADC_GetResolution + 38
        0x080057ea:    2010        .       MOVS     r0,#0x10
        0x080057ec:    4770        pG      BX       lr
        0x080057ee:    68c8        .h      LDR      r0,[r1,#0xc]
        0x080057f0:    f000001c    ....    AND      r0,r0,#0x1c
        0x080057f4:    4770        pG      BX       lr
        0x080057f6:    0000        ..      MOVS     r0,r0
    LL_ADC_INJ_IsConversionOngoing
        0x080057f8:    6880        .h      LDR      r0,[r0,#8]
        0x080057fa:    f3c000c0    ....    UBFX     r0,r0,#3,#1
        0x080057fe:    4770        pG      BX       lr
    LL_ADC_INJ_IsTriggerSourceSWStart
        0x08005800:    6cc0        .l      LDR      r0,[r0,#0x4c]
        0x08005802:    f40070c0    ...p    AND      r0,r0,#0x180
        0x08005806:    fab0f080    ....    CLZ      r0,r0
        0x0800580a:    0940        @.      LSRS     r0,r0,#5
        0x0800580c:    4770        pG      BX       lr
        0x0800580e:    0000        ..      MOVS     r0,r0
    LL_ADC_INJ_StopConversion
        0x08005810:    f64f72c0    O..r    MOV      r2,#0xffc0
        0x08005814:    6881        .h      LDR      r1,[r0,#8]
        0x08005816:    f6c772ff    ...r    MOVT     r2,#0x7fff
        0x0800581a:    4011        .@      ANDS     r1,r1,r2
        0x0800581c:    3120         1      ADDS     r1,r1,#0x20
        0x0800581e:    6081        .`      STR      r1,[r0,#8]
        0x08005820:    4770        pG      BX       lr
        0x08005822:    0000        ..      MOVS     r0,r0
        0x08005824:    0000        ..      MOVS     r0,r0
        0x08005826:    0000        ..      MOVS     r0,r0
    LL_ADC_IsCalibrationOnGoing
        0x08005828:    6880        .h      LDR      r0,[r0,#8]
        0x0800582a:    0fc0        ..      LSRS     r0,r0,#31
        0x0800582c:    4770        pG      BX       lr
        0x0800582e:    0000        ..      MOVS     r0,r0
    LL_ADC_IsDeepPowerDownEnabled
        0x08005830:    6880        .h      LDR      r0,[r0,#8]
        0x08005832:    f3c07040    ..@p    UBFX     r0,r0,#29,#1
        0x08005836:    4770        pG      BX       lr
    LL_ADC_IsDisableOngoing
        0x08005838:    6880        .h      LDR      r0,[r0,#8]
        0x0800583a:    f3c00040    ..@.    UBFX     r0,r0,#1,#1
        0x0800583e:    4770        pG      BX       lr
    LL_ADC_IsEnabled
        0x08005840:    6880        .h      LDR      r0,[r0,#8]
        0x08005842:    f0000001    ....    AND      r0,r0,#1
        0x08005846:    4770        pG      BX       lr
    LL_ADC_IsEnabled
        0x08005848:    6880        .h      LDR      r0,[r0,#8]
        0x0800584a:    f0000001    ....    AND      r0,r0,#1
        0x0800584e:    4770        pG      BX       lr
    LL_ADC_IsInternalRegulatorEnabled
        0x08005850:    6880        .h      LDR      r0,[r0,#8]
        0x08005852:    f3c07000    ...p    UBFX     r0,r0,#28,#1
        0x08005856:    4770        pG      BX       lr
    LL_ADC_REG_IsConversionOngoing
        0x08005858:    6880        .h      LDR      r0,[r0,#8]
        0x0800585a:    f3c00080    ....    UBFX     r0,r0,#2,#1
        0x0800585e:    4770        pG      BX       lr
    LL_ADC_REG_IsConversionOngoing
        0x08005860:    6880        .h      LDR      r0,[r0,#8]
        0x08005862:    f3c00080    ....    UBFX     r0,r0,#2,#1
        0x08005866:    4770        pG      BX       lr
    LL_ADC_REG_IsTriggerSourceSWStart
        0x08005868:    68c0        .h      LDR      r0,[r0,#0xc]
        0x0800586a:    f4006040    ..@`    AND      r0,r0,#0xc00
        0x0800586e:    fab0f080    ....    CLZ      r0,r0
        0x08005872:    0940        @.      LSRS     r0,r0,#5
        0x08005874:    4770        pG      BX       lr
        0x08005876:    0000        ..      MOVS     r0,r0
    LL_ADC_REG_SetSequencerRanks
        0x08005878:    b580        ..      PUSH     {r7,lr}
        0x0800587a:    f3c12301    ...#    UBFX     r3,r1,#8,#2
        0x0800587e:    f001011f    ....    AND      r1,r1,#0x1f
        0x08005882:    f3c26284    ...b    UBFX     r2,r2,#26,#5
        0x08005886:    f04f0c1f    O...    MOV      r12,#0x1f
        0x0800588a:    eb000083    ....    ADD      r0,r0,r3,LSL #2
        0x0800588e:    fa0cf301    ....    LSL      r3,r12,r1
        0x08005892:    f8d0e030    ..0.    LDR      lr,[r0,#0x30]
        0x08005896:    fa02f101    ....    LSL      r1,r2,r1
        0x0800589a:    ea2e0303    ....    BIC      r3,lr,r3
        0x0800589e:    4319        .C      ORRS     r1,r1,r3
        0x080058a0:    6301        .c      STR      r1,[r0,#0x30]
        0x080058a2:    bd80        ..      POP      {r7,pc}
        0x080058a4:    0000        ..      MOVS     r0,r0
        0x080058a6:    0000        ..      MOVS     r0,r0
    LL_ADC_REG_StartConversion
        0x080058a8:    f64f72c0    O..r    MOV      r2,#0xffc0
        0x080058ac:    6881        .h      LDR      r1,[r0,#8]
        0x080058ae:    f6c772ff    ...r    MOVT     r2,#0x7fff
        0x080058b2:    4011        .@      ANDS     r1,r1,r2
        0x080058b4:    3104        .1      ADDS     r1,#4
        0x080058b6:    6081        .`      STR      r1,[r0,#8]
        0x080058b8:    4770        pG      BX       lr
        0x080058ba:    0000        ..      MOVS     r0,r0
        0x080058bc:    0000        ..      MOVS     r0,r0
        0x080058be:    0000        ..      MOVS     r0,r0
    LL_ADC_REG_StopConversion
        0x080058c0:    f64f72c0    O..r    MOV      r2,#0xffc0
        0x080058c4:    6881        .h      LDR      r1,[r0,#8]
        0x080058c6:    f6c772ff    ...r    MOVT     r2,#0x7fff
        0x080058ca:    4011        .@      ANDS     r1,r1,r2
        0x080058cc:    3110        .1      ADDS     r1,r1,#0x10
        0x080058ce:    6081        .`      STR      r1,[r0,#8]
        0x080058d0:    4770        pG      BX       lr
        0x080058d2:    0000        ..      MOVS     r0,r0
        0x080058d4:    0000        ..      MOVS     r0,r0
        0x080058d6:    0000        ..      MOVS     r0,r0
    LL_ADC_SetChannelSamplingTime
        0x080058d8:    b580        ..      PUSH     {r7,lr}
        0x080058da:    f3c16340    ..@c    UBFX     r3,r1,#25,#1
        0x080058de:    f04f0c07    O...    MOV      r12,#7
        0x080058e2:    f3c15104    ...Q    UBFX     r1,r1,#20,#5
        0x080058e6:    eb000083    ....    ADD      r0,r0,r3,LSL #2
        0x080058ea:    fa0cf301    ....    LSL      r3,r12,r1
        0x080058ee:    f8d0e014    ....    LDR      lr,[r0,#0x14]
        0x080058f2:    fa02f101    ....    LSL      r1,r2,r1
        0x080058f6:    ea2e0303    ....    BIC      r3,lr,r3
        0x080058fa:    4319        .C      ORRS     r1,r1,r3
        0x080058fc:    6141        Aa      STR      r1,[r0,#0x14]
        0x080058fe:    bd80        ..      POP      {r7,pc}
    LL_ADC_SetChannelSingleDiff
        0x08005900:    b580        ..      PUSH     {r7,lr}
        0x08005902:    f64f7eff    O..~    MOV      lr,#0xffff
        0x08005906:    43cb        .C      MVNS     r3,r1
        0x08005908:    f2c00e0f    ....    MOVT     lr,#0xf
        0x0800590c:    f0020218    ....    AND      r2,r2,#0x18
        0x08005910:    f8d0c0c0    ....    LDR      r12,[r0,#0xc0]
        0x08005914:    ea63030e    c...    ORN      r3,r3,lr
        0x08005918:    fa2ef202    ....    LSR      r2,lr,r2
        0x0800591c:    ea03030c    ....    AND      r3,r3,r12
        0x08005920:    4011        .@      ANDS     r1,r1,r2
        0x08005922:    4319        .C      ORRS     r1,r1,r3
        0x08005924:    f8c010c0    ....    STR      r1,[r0,#0xc0]
        0x08005928:    bd80        ..      POP      {r7,pc}
        0x0800592a:    0000        ..      MOVS     r0,r0
        0x0800592c:    0000        ..      MOVS     r0,r0
        0x0800592e:    0000        ..      MOVS     r0,r0
    LL_ADC_SetCommonClock
        0x08005930:    6882        .h      LDR      r2,[r0,#8]
        0x08005932:    f422127c    ".|.    BIC      r2,r2,#0x3f0000
        0x08005936:    4311        .C      ORRS     r1,r1,r2
        0x08005938:    6081        .`      STR      r1,[r0,#8]
        0x0800593a:    4770        pG      BX       lr
        0x0800593c:    0000        ..      MOVS     r0,r0
        0x0800593e:    0000        ..      MOVS     r0,r0
    LL_ADC_SetCommonPathInternalCh
        0x08005940:    6882        .h      LDR      r2,[r0,#8]
        0x08005942:    f02272e0    "..r    BIC      r2,r2,#0x1c00000
        0x08005946:    4311        .C      ORRS     r1,r1,r2
        0x08005948:    6081        .`      STR      r1,[r0,#8]
        0x0800594a:    4770        pG      BX       lr
        0x0800594c:    0000        ..      MOVS     r0,r0
        0x0800594e:    0000        ..      MOVS     r0,r0
    LL_ADC_SetDataRightShift
        0x08005950:    6903        .i      LDR      r3,[r0,#0x10]
        0x08005952:    f001011f    ....    AND      r1,r1,#0x1f
        0x08005956:    f42343f0    #..C    BIC      r3,r3,#0x7800
        0x0800595a:    fa02f101    ....    LSL      r1,r2,r1
        0x0800595e:    4319        .C      ORRS     r1,r1,r3
        0x08005960:    6101        .a      STR      r1,[r0,#0x10]
        0x08005962:    4770        pG      BX       lr
        0x08005964:    0000        ..      MOVS     r0,r0
        0x08005966:    0000        ..      MOVS     r0,r0
    LL_ADC_SetOffset
        0x08005968:    eb000081    ....    ADD      r0,r0,r1,LSL #2
        0x0800596c:    f00242f8    ...B    AND      r2,r2,#0x7c000000
        0x08005970:    431a        .C      ORRS     r2,r2,r3
        0x08005972:    6e01        .n      LDR      r1,[r0,#0x60]
        0x08005974:    f0014100    ...A    AND      r1,r1,#0x80000000
        0x08005978:    4311        .C      ORRS     r1,r1,r2
        0x0800597a:    6601        .f      STR      r1,[r0,#0x60]
        0x0800597c:    4770        pG      BX       lr
        0x0800597e:    0000        ..      MOVS     r0,r0
    LL_ADC_SetOffsetSignedSaturation
        0x08005980:    eb000081    ....    ADD      r0,r0,r1,LSL #2
        0x08005984:    6e01        .n      LDR      r1,[r0,#0x60]
        0x08005986:    f0214100    !..A    BIC      r1,r1,#0x80000000
        0x0800598a:    4311        .C      ORRS     r1,r1,r2
        0x0800598c:    6601        .f      STR      r1,[r0,#0x60]
        0x0800598e:    4770        pG      BX       lr
    LL_ADC_StartCalibration
        0x08005990:    f64f7cc0    O..|    MOV      r12,#0xffc0
        0x08005994:    6883        .h      LDR      r3,[r0,#8]
        0x08005996:    f6c37cfe    ...|    MOVT     r12,#0x3ffe
        0x0800599a:    f4013180    ...1    AND      r1,r1,#0x10000
        0x0800599e:    f0024280    ...B    AND      r2,r2,#0x40000000
        0x080059a2:    ea03030c    ....    AND      r3,r3,r12
        0x080059a6:    4411        .D      ADD      r1,r1,r2
        0x080059a8:    4419        .D      ADD      r1,r1,r3
        0x080059aa:    f1014100    ...A    ADD      r1,r1,#0x80000000
        0x080059ae:    6081        .`      STR      r1,[r0,#8]
        0x080059b0:    4770        pG      BX       lr
        0x080059b2:    0000        ..      MOVS     r0,r0
        0x080059b4:    0000        ..      MOVS     r0,r0
        0x080059b6:    0000        ..      MOVS     r0,r0
    MX_ADC1_Init
        0x080059b8:    b510        ..      PUSH     {r4,lr}
        0x080059ba:    b08a        ..      SUB      sp,sp,#0x28
        0x080059bc:    f24000d4    @...    MOVW     r0,#0xd4
        0x080059c0:    f2420100    B...    MOVW     r1,#0x2000
        0x080059c4:    f2c24000    ...@    MOVT     r0,#0x2400
        0x080059c8:    2400        .$      MOVS     r4,#0
        0x080059ca:    e9cd4408    ...D    STRD     r4,r4,[sp,#0x20]
        0x080059ce:    e9cd4406    ...D    STRD     r4,r4,[sp,#0x18]
        0x080059d2:    e9cd4404    ...D    STRD     r4,r4,[sp,#0x10]
        0x080059d6:    e9cd4402    ...D    STRD     r4,r4,[sp,#8]
        0x080059da:    e9cd4400    ...D    STRD     r4,r4,[sp,#0]
        0x080059de:    f2c40102    ....    MOVT     r1,#0x4002
        0x080059e2:    6001        .`      STR      r1,[r0,#0]
        0x080059e4:    f44f2180    O..!    MOV      r1,#0x40000
        0x080059e8:    6041        A`      STR      r1,[r0,#4]
        0x080059ea:    2108        .!      MOVS     r1,#8
        0x080059ec:    7704        .w      STRB     r4,[r0,#0x1c]
        0x080059ee:    e9c01402    ....    STRD     r1,r4,[r0,#8]
        0x080059f2:    2104        .!      MOVS     r1,#4
        0x080059f4:    6101        .a      STR      r1,[r0,#0x10]
        0x080059f6:    f44f7180    O..q    MOV      r1,#0x100
        0x080059fa:    8281        ..      STRH     r1,[r0,#0x14]
        0x080059fc:    2101        .!      MOVS     r1,#1
        0x080059fe:    6181        .a      STR      r1,[r0,#0x18]
        0x08005a00:    e9c04409    ...D    STRD     r4,r4,[r0,#0x24]
        0x08005a04:    62c4        .b      STR      r4,[r0,#0x2c]
        0x08005a06:    f44f5180    O..Q    MOV      r1,#0x1000
        0x08005a0a:    e9c0140c    ....    STRD     r1,r4,[r0,#0x30]
        0x08005a0e:    f8804038    ..8@    STRB     r4,[r0,#0x38]
        0x08005a12:    f7fbfe69    ..i.    BL       HAL_ADC_Init ; 0x80016e8
        0x08005a16:    b108        ..      CBZ      r0,0x8005a1c ; MX_ADC1_Init + 100
        0x08005a18:    f7faff6e    ..n.    BL       Error_Handler ; 0x80008f8
        0x08005a1c:    f24000d4    @...    MOVW     r0,#0xd4
        0x08005a20:    a907        ..      ADD      r1,sp,#0x1c
        0x08005a22:    f2c24000    ...@    MOVT     r0,#0x2400
        0x08005a26:    9407        ..      STR      r4,[sp,#0x1c]
        0x08005a28:    f7fafff2    ....    BL       HAL_ADCEx_MultiModeConfigChannel ; 0x8000a10
        0x08005a2c:    b108        ..      CBZ      r0,0x8005a32 ; MX_ADC1_Init + 122
        0x08005a2e:    f7faff63    ..c.    BL       Error_Handler ; 0x80008f8
        0x08005a32:    2010        .       MOVS     r0,#0x10
        0x08005a34:    f24071ff    @..q    MOV      r1,#0x7ff
        0x08005a38:    f2c100c0    ....    MOVT     r0,#0x10c0
        0x08005a3c:    9000        ..      STR      r0,[sp,#0]
        0x08005a3e:    2006        .       MOVS     r0,#6
        0x08005a40:    9001        ..      STR      r0,[sp,#4]
        0x08005a42:    2000        .       MOVS     r0,#0
        0x08005a44:    9002        ..      STR      r0,[sp,#8]
        0x08005a46:    9103        ..      STR      r1,[sp,#0xc]
        0x08005a48:    2104        .!      MOVS     r1,#4
        0x08005a4a:    e9cd1004    ....    STRD     r1,r0,[sp,#0x10]
        0x08005a4e:    f88d0019    ....    STRB     r0,[sp,#0x19]
        0x08005a52:    f24000d4    @...    MOVW     r0,#0xd4
        0x08005a56:    f2c24000    ...@    MOVT     r0,#0x2400
        0x08005a5a:    4669        iF      MOV      r1,sp
        0x08005a5c:    f7fbf8a4    ....    BL       HAL_ADC_ConfigChannel ; 0x8000ba8
        0x08005a60:    b108        ..      CBZ      r0,0x8005a66 ; MX_ADC1_Init + 174
        0x08005a62:    f7faff49    ..I.    BL       Error_Handler ; 0x80008f8
        0x08005a66:    b00a        ..      ADD      sp,sp,#0x28
        0x08005a68:    bd10        ..      POP      {r4,pc}
        0x08005a6a:    0000        ..      MOVS     r0,r0
        0x08005a6c:    0000        ..      MOVS     r0,r0
        0x08005a6e:    0000        ..      MOVS     r0,r0
    MX_GPIO_Init
        0x08005a70:    e92d4ff0    -..O    PUSH     {r4-r11,lr}
        0x08005a74:    b087        ..      SUB      sp,sp,#0x1c
        0x08005a76:    f24440e0    D..@    MOV      r0,#0x44e0
        0x08005a7a:    2500        .%      MOVS     r5,#0
        0x08005a7c:    f6c50002    ....    MOVT     r0,#0x5802
        0x08005a80:    9506        ..      STR      r5,[sp,#0x18]
        0x08005a82:    e9cd5504    ...U    STRD     r5,r5,[sp,#0x10]
        0x08005a86:    e9cd5502    ...U    STRD     r5,r5,[sp,#8]
        0x08005a8a:    6801        .h      LDR      r1,[r0,#0]
        0x08005a8c:    f2400a00    @...    MOVW     r10,#0
        0x08005a90:    f0410104    A...    ORR      r1,r1,#4
        0x08005a94:    6001        .`      STR      r1,[r0,#0]
        0x08005a96:    6801        .h      LDR      r1,[r0,#0]
        0x08005a98:    f6c50a02    ....    MOVT     r10,#0x5802
        0x08005a9c:    f0010104    ....    AND      r1,r1,#4
        0x08005aa0:    9101        ..      STR      r1,[sp,#4]
        0x08005aa2:    9901        ..      LDR      r1,[sp,#4]
        0x08005aa4:    6801        .h      LDR      r1,[r0,#0]
        0x08005aa6:    f0410101    A...    ORR      r1,r1,#1
        0x08005aaa:    6001        .`      STR      r1,[r0,#0]
        0x08005aac:    6801        .h      LDR      r1,[r0,#0]
        0x08005aae:    f50a6700    ...g    ADD      r7,r10,#0x800
        0x08005ab2:    f0010101    ....    AND      r1,r1,#1
        0x08005ab6:    9101        ..      STR      r1,[sp,#4]
        0x08005ab8:    9901        ..      LDR      r1,[sp,#4]
        0x08005aba:    6801        .h      LDR      r1,[r0,#0]
        0x08005abc:    f0410110    A...    ORR      r1,r1,#0x10
        0x08005ac0:    6001        .`      STR      r1,[r0,#0]
        0x08005ac2:    6801        .h      LDR      r1,[r0,#0]
        0x08005ac4:    2201        ."      MOVS     r2,#1
        0x08005ac6:    f0010110    ....    AND      r1,r1,#0x10
        0x08005aca:    9101        ..      STR      r1,[sp,#4]
        0x08005acc:    9901        ..      LDR      r1,[sp,#4]
        0x08005ace:    6801        .h      LDR      r1,[r0,#0]
        0x08005ad0:    f0410102    A...    ORR      r1,r1,#2
        0x08005ad4:    6001        .`      STR      r1,[r0,#0]
        0x08005ad6:    6801        .h      LDR      r1,[r0,#0]
        0x08005ad8:    260a        .&      MOVS     r6,#0xa
        0x08005ada:    f0010102    ....    AND      r1,r1,#2
        0x08005ade:    9101        ..      STR      r1,[sp,#4]
        0x08005ae0:    9901        ..      LDR      r1,[sp,#4]
        0x08005ae2:    6801        .h      LDR      r1,[r0,#0]
        0x08005ae4:    f0410108    A...    ORR      r1,r1,#8
        0x08005ae8:    6001        .`      STR      r1,[r0,#0]
        0x08005aea:    6800        .h      LDR      r0,[r0,#0]
        0x08005aec:    210a        .!      MOVS     r1,#0xa
        0x08005aee:    f0000008    ....    AND      r0,r0,#8
        0x08005af2:    9001        ..      STR      r0,[sp,#4]
        0x08005af4:    9801        ..      LDR      r0,[sp,#4]
        0x08005af6:    4638        8F      MOV      r0,r7
        0x08005af8:    f04f0b01    O...    MOV      r11,#1
        0x08005afc:    f7fcfb30    ..0.    BL       HAL_GPIO_WritePin ; 0x8002160
        0x08005b00:    2102        .!      MOVS     r1,#2
        0x08005b02:    2201        ."      MOVS     r2,#1
        0x08005b04:    4650        PF      MOV      r0,r10
        0x08005b06:    f7fcfb2b    ..+.    BL       HAL_GPIO_WritePin ; 0x8002160
        0x08005b0a:    f50a5980    ...Y    ADD      r9,r10,#0x1000
        0x08005b0e:    f44f5140    O.@Q    MOV      r1,#0x3000
        0x08005b12:    2200        ."      MOVS     r2,#0
        0x08005b14:    4648        HF      MOV      r0,r9
        0x08005b16:    f7fcfb23    ..#.    BL       HAL_GPIO_WritePin ; 0x8002160
        0x08005b1a:    f50a6480    ...d    ADD      r4,r10,#0x400
        0x08005b1e:    f2410110    A...    MOV      r1,#0x1010
        0x08005b22:    2200        ."      MOVS     r2,#0
        0x08005b24:    4620         F      MOV      r0,r4
        0x08005b26:    f7fcfb1b    ....    BL       HAL_GPIO_WritePin ; 0x8002160
        0x08005b2a:    f50a6840    ..@h    ADD      r8,r10,#0xc00
        0x08005b2e:    f2406104    @..a    MOV      r1,#0x604
        0x08005b32:    2200        ."      MOVS     r2,#0
        0x08005b34:    4640        @F      MOV      r0,r8
        0x08005b36:    f7fcfb13    ....    BL       HAL_GPIO_WritePin ; 0x8002160
        0x08005b3a:    e9cd6b02    ...k    STRD     r6,r11,[sp,#8]
        0x08005b3e:    ae02        ..      ADD      r6,sp,#8
        0x08005b40:    4638        8F      MOV      r0,r7
        0x08005b42:    4631        1F      MOV      r1,r6
        0x08005b44:    e9cd5504    ...U    STRD     r5,r5,[sp,#0x10]
        0x08005b48:    f7fcf9b2    ....    BL       HAL_GPIO_Init ; 0x8001eb0
        0x08005b4c:    4650        PF      MOV      r0,r10
        0x08005b4e:    4631        1F      MOV      r1,r6
        0x08005b50:    e9cdb502    ....    STRD     r11,r5,[sp,#8]
        0x08005b54:    2702        .'      MOVS     r7,#2
        0x08005b56:    9704        ..      STR      r7,[sp,#0x10]
        0x08005b58:    f7fcf9aa    ....    BL       HAL_GPIO_Init ; 0x8001eb0
        0x08005b5c:    4650        PF      MOV      r0,r10
        0x08005b5e:    4631        1F      MOV      r1,r6
        0x08005b60:    9702        ..      STR      r7,[sp,#8]
        0x08005b62:    2702        .'      MOVS     r7,#2
        0x08005b64:    e9cdb503    ....    STRD     r11,r5,[sp,#0xc]
        0x08005b68:    9505        ..      STR      r5,[sp,#0x14]
        0x08005b6a:    f7fcf9a1    ....    BL       HAL_GPIO_Init ; 0x8001eb0
        0x08005b6e:    a902        ..      ADD      r1,sp,#8
        0x08005b70:    2004        .       MOVS     r0,#4
        0x08005b72:    e8810821    ..!.    STM      r1,{r0,r5,r11}
        0x08005b76:    4650        PF      MOV      r0,r10
        0x08005b78:    4631        1F      MOV      r1,r6
        0x08005b7a:    f7fcf999    ....    BL       HAL_GPIO_Init ; 0x8001eb0
        0x08005b7e:    20b0        .       MOVS     r0,#0xb0
        0x08005b80:    4631        1F      MOV      r1,r6
        0x08005b82:    e9cd0702    ....    STRD     r0,r7,[sp,#8]
        0x08005b86:    2003        .       MOVS     r0,#3
        0x08005b88:    9005        ..      STR      r0,[sp,#0x14]
        0x08005b8a:    2005        .       MOVS     r0,#5
        0x08005b8c:    9006        ..      STR      r0,[sp,#0x18]
        0x08005b8e:    4650        PF      MOV      r0,r10
        0x08005b90:    9504        ..      STR      r5,[sp,#0x10]
        0x08005b92:    2703        .'      MOVS     r7,#3
        0x08005b94:    f7fcf98c    ....    BL       HAL_GPIO_Init ; 0x8001eb0
        0x08005b98:    f44f5040    O.@P    MOV      r0,#0x3000
        0x08005b9c:    4631        1F      MOV      r1,r6
        0x08005b9e:    e9cd0b02    ....    STRD     r0,r11,[sp,#8]
        0x08005ba2:    4648        HF      MOV      r0,r9
        0x08005ba4:    e9cd5504    ...U    STRD     r5,r5,[sp,#0x10]
        0x08005ba8:    f7fcf982    ....    BL       HAL_GPIO_Init ; 0x8001eb0
        0x08005bac:    f44f5080    O..P    MOV      r0,#0x1000
        0x08005bb0:    4631        1F      MOV      r1,r6
        0x08005bb2:    e9cd0b02    ....    STRD     r0,r11,[sp,#8]
        0x08005bb6:    4620         F      MOV      r0,r4
        0x08005bb8:    f04f0903    O...    MOV      r9,#3
        0x08005bbc:    e9cd5704    ...W    STRD     r5,r7,[sp,#0x10]
        0x08005bc0:    f7fcf976    ..v.    BL       HAL_GPIO_Init ; 0x8001eb0
        0x08005bc4:    f44f40c0    O..@    MOV      r0,#0x6000
        0x08005bc8:    9002        ..      STR      r0,[sp,#8]
        0x08005bca:    2005        .       MOVS     r0,#5
        0x08005bcc:    9006        ..      STR      r0,[sp,#0x18]
        0x08005bce:    4620         F      MOV      r0,r4
        0x08005bd0:    4631        1F      MOV      r1,r6
        0x08005bd2:    2702        .'      MOVS     r7,#2
        0x08005bd4:    f8cd9014    ....    STR      r9,[sp,#0x14]
        0x08005bd8:    e9cd7503    ...u    STRD     r7,r5,[sp,#0xc]
        0x08005bdc:    f7fcf968    ..h.    BL       HAL_GPIO_Init ; 0x8001eb0
        0x08005be0:    f44f60c0    O..`    MOV      r0,#0x600
        0x08005be4:    4631        1F      MOV      r1,r6
        0x08005be6:    e9cd0b02    ....    STRD     r0,r11,[sp,#8]
        0x08005bea:    4640        @F      MOV      r0,r8
        0x08005bec:    e9cd5904    ...Y    STRD     r5,r9,[sp,#0x10]
        0x08005bf0:    f7fcf95e    ..^.    BL       HAL_GPIO_Init ; 0x8001eb0
        0x08005bf4:    f44f7080    O..p    MOV      r0,#0x100
        0x08005bf8:    4631        1F      MOV      r1,r6
        0x08005bfa:    e9cd0702    ....    STRD     r0,r7,[sp,#8]
        0x08005bfe:    4650        PF      MOV      r0,r10
        0x08005c00:    2702        .'      MOVS     r7,#2
        0x08005c02:    e9cd5504    ...U    STRD     r5,r5,[sp,#0x10]
        0x08005c06:    9506        ..      STR      r5,[sp,#0x18]
        0x08005c08:    f7fcf952    ..R.    BL       HAL_GPIO_Init ; 0x8001eb0
        0x08005c0c:    2004        .       MOVS     r0,#4
        0x08005c0e:    4631        1F      MOV      r1,r6
        0x08005c10:    e9cd0b02    ....    STRD     r0,r11,[sp,#8]
        0x08005c14:    4640        @F      MOV      r0,r8
        0x08005c16:    e9cd5504    ...U    STRD     r5,r5,[sp,#0x10]
        0x08005c1a:    f7fcf949    ..I.    BL       HAL_GPIO_Init ; 0x8001eb0
        0x08005c1e:    2010        .       MOVS     r0,#0x10
        0x08005c20:    4631        1F      MOV      r1,r6
        0x08005c22:    e9cd0b02    ....    STRD     r0,r11,[sp,#8]
        0x08005c26:    4620         F      MOV      r0,r4
        0x08005c28:    e9cd5504    ...U    STRD     r5,r5,[sp,#0x10]
        0x08005c2c:    f7fcf940    ..@.    BL       HAL_GPIO_Init ; 0x8001eb0
        0x08005c30:    2040        @       MOVS     r0,#0x40
        0x08005c32:    4631        1F      MOV      r1,r6
        0x08005c34:    e9cd0702    ....    STRD     r0,r7,[sp,#8]
        0x08005c38:    200a        .       MOVS     r0,#0xa
        0x08005c3a:    9006        ..      STR      r0,[sp,#0x18]
        0x08005c3c:    4620         F      MOV      r0,r4
        0x08005c3e:    e9cd5904    ...Y    STRD     r5,r9,[sp,#0x10]
        0x08005c42:    f7fcf935    ..5.    BL       HAL_GPIO_Init ; 0x8001eb0
        0x08005c46:    b007        ..      ADD      sp,sp,#0x1c
        0x08005c48:    e8bd8ff0    ....    POP      {r4-r11,pc}
        0x08005c4c:    0000        ..      MOVS     r0,r0
        0x08005c4e:    0000        ..      MOVS     r0,r0
    MX_TIM6_Init
        0x08005c50:    b510        ..      PUSH     {r4,lr}
        0x08005c52:    b084        ..      SUB      sp,sp,#0x10
        0x08005c54:    f2401038    @.8.    MOVW     r0,#0x138
        0x08005c58:    f2410100    A...    MOVW     r1,#0x1000
        0x08005c5c:    f2c24000    ...@    MOVT     r0,#0x2400
        0x08005c60:    2400        .$      MOVS     r4,#0
        0x08005c62:    9403        ..      STR      r4,[sp,#0xc]
        0x08005c64:    f2c40100    ....    MOVT     r1,#0x4000
        0x08005c68:    e9cd4401    ...D    STRD     r4,r4,[sp,#4]
        0x08005c6c:    6001        .`      STR      r1,[r0,#0]
        0x08005c6e:    21ef        .!      MOVS     r1,#0xef
        0x08005c70:    e9c01401    ....    STRD     r1,r4,[r0,#4]
        0x08005c74:    f24031e7    @..1    MOV      r1,#0x3e7
        0x08005c78:    60c1        .`      STR      r1,[r0,#0xc]
        0x08005c7a:    6184        .a      STR      r4,[r0,#0x18]
        0x08005c7c:    f7feffac    ....    BL       HAL_TIM_Base_Init ; 0x8004bd8
        0x08005c80:    b108        ..      CBZ      r0,0x8005c86 ; MX_TIM6_Init + 54
        0x08005c82:    f7fafe39    ..9.    BL       Error_Handler ; 0x80008f8
        0x08005c86:    f2401038    @.8.    MOVW     r0,#0x138
        0x08005c8a:    a901        ..      ADD      r1,sp,#4
        0x08005c8c:    f2c24000    ...@    MOVT     r0,#0x2400
        0x08005c90:    9401        ..      STR      r4,[sp,#4]
        0x08005c92:    9403        ..      STR      r4,[sp,#0xc]
        0x08005c94:    f7fefebc    ....    BL       HAL_TIMEx_MasterConfigSynchronization ; 0x8004a10
        0x08005c98:    b108        ..      CBZ      r0,0x8005c9e ; MX_TIM6_Init + 78
        0x08005c9a:    f7fafe2d    ..-.    BL       Error_Handler ; 0x80008f8
        0x08005c9e:    b004        ..      ADD      sp,sp,#0x10
        0x08005ca0:    bd10        ..      POP      {r4,pc}
        0x08005ca2:    0000        ..      MOVS     r0,r0
        0x08005ca4:    0000        ..      MOVS     r0,r0
        0x08005ca6:    0000        ..      MOVS     r0,r0
    MX_USART1_UART_Init
        0x08005ca8:    b580        ..      PUSH     {r7,lr}
        0x08005caa:    f2401084    @...    MOVW     r0,#0x184
        0x08005cae:    f2410100    A...    MOVW     r1,#0x1000
        0x08005cb2:    f2c24000    ...@    MOVT     r0,#0x2400
        0x08005cb6:    f2484280    H..B    MOV      r2,#0x8480
        0x08005cba:    f2c40101    ....    MOVT     r1,#0x4001
        0x08005cbe:    f2c0021e    ....    MOVT     r2,#0x1e
        0x08005cc2:    e9c01200    ....    STRD     r1,r2,[r0,#0]
        0x08005cc6:    2100        .!      MOVS     r1,#0
        0x08005cc8:    6101        .a      STR      r1,[r0,#0x10]
        0x08005cca:    e9c01102    ....    STRD     r1,r1,[r0,#8]
        0x08005cce:    220c        ."      MOVS     r2,#0xc
        0x08005cd0:    e9c02105    ...!    STRD     r2,r1,[r0,#0x14]
        0x08005cd4:    e9c01107    ....    STRD     r1,r1,[r0,#0x1c]
        0x08005cd8:    e9c01109    ....    STRD     r1,r1,[r0,#0x24]
        0x08005cdc:    f7fffbc4    ....    BL       HAL_UART_Init ; 0x8005468
        0x08005ce0:    b108        ..      CBZ      r0,0x8005ce6 ; MX_USART1_UART_Init + 62
        0x08005ce2:    f7fafe09    ....    BL       Error_Handler ; 0x80008f8
        0x08005ce6:    f2401084    @...    MOVW     r0,#0x184
        0x08005cea:    2100        .!      MOVS     r1,#0
        0x08005cec:    f2c24000    ...@    MOVT     r0,#0x2400
        0x08005cf0:    f7fffb36    ..6.    BL       HAL_UARTEx_SetTxFifoThreshold ; 0x8005360
        0x08005cf4:    b108        ..      CBZ      r0,0x8005cfa ; MX_USART1_UART_Init + 82
        0x08005cf6:    f7fafdff    ....    BL       Error_Handler ; 0x80008f8
        0x08005cfa:    f2401084    @...    MOVW     r0,#0x184
        0x08005cfe:    2100        .!      MOVS     r1,#0
        0x08005d00:    f2c24000    ...@    MOVT     r0,#0x2400
        0x08005d04:    f7fffab4    ....    BL       HAL_UARTEx_SetRxFifoThreshold ; 0x8005270
        0x08005d08:    b108        ..      CBZ      r0,0x8005d0e ; MX_USART1_UART_Init + 102
        0x08005d0a:    f7fafdf5    ....    BL       Error_Handler ; 0x80008f8
        0x08005d0e:    f2401084    @...    MOVW     r0,#0x184
        0x08005d12:    f2c24000    ...@    MOVT     r0,#0x2400
        0x08005d16:    f7fffa47    ..G.    BL       HAL_UARTEx_DisableFifoMode ; 0x80051a8
        0x08005d1a:    2800        .(      CMP      r0,#0
        0x08005d1c:    bf08        ..      IT       EQ
        0x08005d1e:    bd80        ..      POPEQ    {r7,pc}
        0x08005d20:    f7fafdea    ....    BL       Error_Handler ; 0x80008f8
        0x08005d24:    bd80        ..      POP      {r7,pc}
        0x08005d26:    0000        ..      MOVS     r0,r0
    MemManage_Handler
        0x08005d28:    e7fe        ..      B        MemManage_Handler ; 0x8005d28
        0x08005d2a:    0000        ..      MOVS     r0,r0
        0x08005d2c:    0000        ..      MOVS     r0,r0
        0x08005d2e:    0000        ..      MOVS     r0,r0
    NMI_Handler
        0x08005d30:    e7fe        ..      B        NMI_Handler ; 0x8005d30
        0x08005d32:    0000        ..      MOVS     r0,r0
        0x08005d34:    0000        ..      MOVS     r0,r0
        0x08005d36:    0000        ..      MOVS     r0,r0
    NVIC_EncodePriority
        0x08005d38:    f0000007    ....    AND      r0,r0,#7
        0x08005d3c:    f04f3cff    O..<    MOV      r12,#0xffffffff
        0x08005d40:    f0800307    ....    EOR      r3,r0,#7
        0x08005d44:    2b04        .+      CMP      r3,#4
        0x08005d46:    bf28        (.      IT       CS
        0x08005d48:    2304        .#      MOVCS    r3,#4
        0x08005d4a:    3803        .8      SUBS     r0,#3
        0x08005d4c:    bf38        8.      IT       CC
        0x08005d4e:    2000        .       MOVCC    r0,#0
        0x08005d50:    fa0cf303    ....    LSL      r3,r12,r3
        0x08005d54:    4399        .C      BICS     r1,r1,r3
        0x08005d56:    fa0cf300    ....    LSL      r3,r12,r0
        0x08005d5a:    fa01f000    ....    LSL      r0,r1,r0
        0x08005d5e:    ea220103    "...    BIC      r1,r2,r3
        0x08005d62:    4308        .C      ORRS     r0,r0,r1
        0x08005d64:    4770        pG      BX       lr
        0x08005d66:    0000        ..      MOVS     r0,r0
    PendSV_Handler
        0x08005d68:    4770        pG      BX       lr
        0x08005d6a:    0000        ..      MOVS     r0,r0
        0x08005d6c:    0000        ..      MOVS     r0,r0
        0x08005d6e:    0000        ..      MOVS     r0,r0
    PeriphCommonClock_Config
        0x08005d70:    b510        ..      PUSH     {r4,lr}
        0x08005d72:    b0b0        ..      SUB      sp,sp,#0xc0
        0x08005d74:    466c        lF      MOV      r4,sp
        0x08005d76:    21c0        .!      MOVS     r1,#0xc0
        0x08005d78:    4620         F      MOV      r0,r4
        0x08005d7a:    f7fafb8d    ....    BL       __aeabi_memclr4 ; 0x8000498
        0x08005d7e:    2000        .       MOVS     r0,#0
        0x08005d80:    9001        ..      STR      r0,[sp,#4]
        0x08005d82:    f04f4080    O..@    MOV      r0,#0x40000000
        0x08005d86:    9000        ..      STR      r0,[sp,#0]
        0x08005d88:    f44f4000    O..@    MOV      r0,#0x8000
        0x08005d8c:    902f        /.      STR      r0,[sp,#0xbc]
        0x08005d8e:    4620         F      MOV      r0,r4
        0x08005d90:    f7fcfe8a    ....    BL       HAL_RCCEx_PeriphCLKConfig ; 0x8002aa8
        0x08005d94:    2800        .(      CMP      r0,#0
        0x08005d96:    bf04        ..      ITT      EQ
        0x08005d98:    b030        0.      ADDEQ    sp,sp,#0xc0
        0x08005d9a:    bd10        ..      POPEQ    {r4,pc}
        0x08005d9c:    f7fafdac    ....    BL       Error_Handler ; 0x80008f8
    RCCEx_PLL2_Config
        0x08005da0:    b5f0        ..      PUSH     {r4-r7,lr}
        0x08005da2:    b081        ..      SUB      sp,sp,#4
        0x08005da4:    4605        .F      MOV      r5,r0
        0x08005da6:    6800        .h      LDR      r0,[r0,#0]
        0x08005da8:    3801        .8      SUBS     r0,#1
        0x08005daa:    460c        .F      MOV      r4,r1
        0x08005dac:    283f        ?(      CMP      r0,#0x3f
        0x08005dae:    d307        ..      BCC      0x8005dc0 ; RCCEx_PLL2_Config + 32
        0x08005db0:    f647502d    G.-P    MOV      r0,#0x7d2d
        0x08005db4:    f6406172    @.ra    MOV      r1,#0xe72
        0x08005db8:    f6c00000    ....    MOVT     r0,#0x800
        0x08005dbc:    f001f984    ....    BL       assert_failed ; 0x80070c8
        0x08005dc0:    6868        hh      LDR      r0,[r5,#4]
        0x08005dc2:    3804        .8      SUBS     r0,#4
        0x08005dc4:    f5b07ffe    ....    CMP      r0,#0x1fc
        0x08005dc8:    d907        ..      BLS      0x8005dda ; RCCEx_PLL2_Config + 58
        0x08005dca:    f647502d    G.-P    MOV      r0,#0x7d2d
        0x08005dce:    f6406173    @.sa    MOV      r1,#0xe73
        0x08005dd2:    f6c00000    ....    MOVT     r0,#0x800
        0x08005dd6:    f001f977    ..w.    BL       assert_failed ; 0x80070c8
        0x08005dda:    68a8        .h      LDR      r0,[r5,#8]
        0x08005ddc:    3801        .8      SUBS     r0,#1
        0x08005dde:    2880        .(      CMP      r0,#0x80
        0x08005de0:    d307        ..      BCC      0x8005df2 ; RCCEx_PLL2_Config + 82
        0x08005de2:    f647502d    G.-P    MOV      r0,#0x7d2d
        0x08005de6:    f6406174    @.ta    MOV      r1,#0xe74
        0x08005dea:    f6c00000    ....    MOVT     r0,#0x800
        0x08005dee:    f001f96b    ..k.    BL       assert_failed ; 0x80070c8
        0x08005df2:    6928        (i      LDR      r0,[r5,#0x10]
        0x08005df4:    3801        .8      SUBS     r0,#1
        0x08005df6:    2880        .(      CMP      r0,#0x80
        0x08005df8:    d307        ..      BCC      0x8005e0a ; RCCEx_PLL2_Config + 106
        0x08005dfa:    f647502d    G.-P    MOV      r0,#0x7d2d
        0x08005dfe:    f6406175    @.ua    MOV      r1,#0xe75
        0x08005e02:    f6c00000    ....    MOVT     r0,#0x800
        0x08005e06:    f001f95f    .._.    BL       assert_failed ; 0x80070c8
        0x08005e0a:    68e8        .h      LDR      r0,[r5,#0xc]
        0x08005e0c:    3801        .8      SUBS     r0,#1
        0x08005e0e:    2880        .(      CMP      r0,#0x80
        0x08005e10:    d307        ..      BCC      0x8005e22 ; RCCEx_PLL2_Config + 130
        0x08005e12:    f647502d    G.-P    MOV      r0,#0x7d2d
        0x08005e16:    f6406176    @.va    MOV      r1,#0xe76
        0x08005e1a:    f6c00000    ....    MOVT     r0,#0x800
        0x08005e1e:    f001f953    ..S.    BL       assert_failed ; 0x80070c8
        0x08005e22:    6968        hi      LDR      r0,[r5,#0x14]
        0x08005e24:    ea4f10b0    O...    ROR      r0,r0,#6
        0x08005e28:    2804        .(      CMP      r0,#4
        0x08005e2a:    d307        ..      BCC      0x8005e3c ; RCCEx_PLL2_Config + 156
        0x08005e2c:    f647502d    G.-P    MOV      r0,#0x7d2d
        0x08005e30:    f6406177    @.wa    MOV      r1,#0xe77
        0x08005e34:    f6c00000    ....    MOVT     r0,#0x800
        0x08005e38:    f001f946    ..F.    BL       assert_failed ; 0x80070c8
        0x08005e3c:    69a8        .i      LDR      r0,[r5,#0x18]
        0x08005e3e:    f0400020    @. .    ORR      r0,r0,#0x20
        0x08005e42:    2820         (      CMP      r0,#0x20
        0x08005e44:    d007        ..      BEQ      0x8005e56 ; RCCEx_PLL2_Config + 182
        0x08005e46:    f647502d    G.-P    MOV      r0,#0x7d2d
        0x08005e4a:    f6406178    @.xa    MOV      r1,#0xe78
        0x08005e4e:    f6c00000    ....    MOVT     r0,#0x800
        0x08005e52:    f001f939    ..9.    BL       assert_failed ; 0x80070c8
        0x08005e56:    69e8        .i      LDR      r0,[r5,#0x1c]
        0x08005e58:    f5b05f00    ..._    CMP      r0,#0x2000
        0x08005e5c:    d307        ..      BCC      0x8005e6e ; RCCEx_PLL2_Config + 206
        0x08005e5e:    f647502d    G.-P    MOV      r0,#0x7d2d
        0x08005e62:    f6406179    @.ya    MOV      r1,#0xe79
        0x08005e66:    f6c00000    ....    MOVT     r0,#0x800
        0x08005e6a:    f001f92d    ..-.    BL       assert_failed ; 0x80070c8
        0x08005e6e:    f244472c    D.,G    MOV      r7,#0x442c
        0x08005e72:    f6c50702    ....    MOVT     r7,#0x5802
        0x08005e76:    f8570c04    W...    LDR      r0,[r7,#-4]
        0x08005e7a:    f0000003    ....    AND      r0,r0,#3
        0x08005e7e:    2803        .(      CMP      r0,#3
        0x08005e80:    d102        ..      BNE      0x8005e88 ; RCCEx_PLL2_Config + 232
        0x08005e82:    2001        .       MOVS     r0,#1
        0x08005e84:    b001        ..      ADD      sp,sp,#4
        0x08005e86:    bdf0        ..      POP      {r4-r7,pc}
        0x08005e88:    f8570c2c    W.,.    LDR      r0,[r7,#-0x2c]
        0x08005e8c:    f0206080     ..`    BIC      r0,r0,#0x4000000
        0x08005e90:    f8470c2c    G.,.    STR      r0,[r7,#-0x2c]
        0x08005e94:    f7fcf990    ....    BL       HAL_GetTick ; 0x80021b8
        0x08005e98:    4606        .F      MOV      r6,r0
        0x08005e9a:    bf00        ..      NOP      
        0x08005e9c:    f8570c2c    W.,.    LDR      r0,[r7,#-0x2c]
        0x08005ea0:    0100        ..      LSLS     r0,r0,#4
        0x08005ea2:    d505        ..      BPL      0x8005eb0 ; RCCEx_PLL2_Config + 272
        0x08005ea4:    f7fcf988    ....    BL       HAL_GetTick ; 0x80021b8
        0x08005ea8:    1b80        ..      SUBS     r0,r0,r6
        0x08005eaa:    2802        .(      CMP      r0,#2
        0x08005eac:    d9f6        ..      BLS      0x8005e9c ; RCCEx_PLL2_Config + 252
        0x08005eae:    e064        d.      B        0x8005f7a ; RCCEx_PLL2_Config + 474
        0x08005eb0:    f8570c04    W...    LDR      r0,[r7,#-4]
        0x08005eb4:    68ee        .h      LDR      r6,[r5,#0xc]
        0x08005eb6:    e895000e    ....    LDM      r5,{r1-r3}
        0x08005eba:    f420307c     .|0    BIC      r0,r0,#0x3f000
        0x08005ebe:    2c01        .,      CMP      r4,#1
        0x08005ec0:    ea403001    @..0    ORR      r0,r0,r1,LSL #12
        0x08005ec4:    f1a20101    ....    SUB      r1,r2,#1
        0x08005ec8:    f36f215f    o._!    BFC      r1,#9,#23
        0x08005ecc:    f44f427e    O.~B    MOV      r2,#0xfe00
        0x08005ed0:    eb022243    ..C"    ADD      r2,r2,r3,LSL #9
        0x08005ed4:    f8470c04    G...    STR      r0,[r7,#-4]
        0x08005ed8:    b292        ..      UXTH     r2,r2
        0x08005eda:    f04f43fe    O..C    MOV      r3,#0x7f000000
        0x08005ede:    eb020001    ....    ADD      r0,r2,r1
        0x08005ee2:    f44f01fe    O...    MOV      r1,#0x7f0000
        0x08005ee6:    692a        *i      LDR      r2,[r5,#0x10]
        0x08005ee8:    eb014106    ...A    ADD      r1,r1,r6,LSL #16
        0x08005eec:    f40101fe    ....    AND      r1,r1,#0x7f0000
        0x08005ef0:    eb036202    ...b    ADD      r2,r3,r2,LSL #24
        0x08005ef4:    4408        .D      ADD      r0,r0,r1
        0x08005ef6:    f00241fe    ...A    AND      r1,r2,#0x7f000000
        0x08005efa:    4408        .D      ADD      r0,r0,r1
        0x08005efc:    60f8        .`      STR      r0,[r7,#0xc]
        0x08005efe:    6838        8h      LDR      r0,[r7,#0]
        0x08005f00:    6969        ii      LDR      r1,[r5,#0x14]
        0x08005f02:    f02000c0     ...    BIC      r0,r0,#0xc0
        0x08005f06:    ea400001    @...    ORR      r0,r0,r1
        0x08005f0a:    6038        8`      STR      r0,[r7,#0]
        0x08005f0c:    6838        8h      LDR      r0,[r7,#0]
        0x08005f0e:    69a9        .i      LDR      r1,[r5,#0x18]
        0x08005f10:    f0200020     . .    BIC      r0,r0,#0x20
        0x08005f14:    ea400001    @...    ORR      r0,r0,r1
        0x08005f18:    6038        8`      STR      r0,[r7,#0]
        0x08005f1a:    6838        8h      LDR      r0,[r7,#0]
        0x08005f1c:    f64f71f8    O..q    MOV      r1,#0xfff8
        0x08005f20:    f0200010     ...    BIC      r0,r0,#0x10
        0x08005f24:    6038        8`      STR      r0,[r7,#0]
        0x08005f26:    6938        8i      LDR      r0,[r7,#0x10]
        0x08005f28:    69ea        .i      LDR      r2,[r5,#0x1c]
        0x08005f2a:    ea200001     ...    BIC      r0,r0,r1
        0x08005f2e:    f44f1100    O...    MOV      r1,#0x200000
        0x08005f32:    ea4000c2    @...    ORR      r0,r0,r2,LSL #3
        0x08005f36:    6138        8a      STR      r0,[r7,#0x10]
        0x08005f38:    6838        8h      LDR      r0,[r7,#0]
        0x08005f3a:    bf08        ..      IT       EQ
        0x08005f3c:    f44f1180    O...    MOVEQ    r1,#0x100000
        0x08005f40:    f0400010    @...    ORR      r0,r0,#0x10
        0x08005f44:    2c00        .,      CMP      r4,#0
        0x08005f46:    6038        8`      STR      r0,[r7,#0]
        0x08005f48:    bf08        ..      IT       EQ
        0x08005f4a:    f44f2100    O..!    MOVEQ    r1,#0x80000
        0x08005f4e:    6838        8h      LDR      r0,[r7,#0]
        0x08005f50:    4308        .C      ORRS     r0,r0,r1
        0x08005f52:    6038        8`      STR      r0,[r7,#0]
        0x08005f54:    f8570c2c    W.,.    LDR      r0,[r7,#-0x2c]
        0x08005f58:    f0406080    @..`    ORR      r0,r0,#0x4000000
        0x08005f5c:    f8470c2c    G.,.    STR      r0,[r7,#-0x2c]
        0x08005f60:    f7fcf92a    ..*.    BL       HAL_GetTick ; 0x80021b8
        0x08005f64:    4604        .F      MOV      r4,r0
        0x08005f66:    bf00        ..      NOP      
        0x08005f68:    f8570c2c    W.,.    LDR      r0,[r7,#-0x2c]
        0x08005f6c:    0100        ..      LSLS     r0,r0,#4
        0x08005f6e:    d407        ..      BMI      0x8005f80 ; RCCEx_PLL2_Config + 480
        0x08005f70:    f7fcf922    ..".    BL       HAL_GetTick ; 0x80021b8
        0x08005f74:    1b00        ..      SUBS     r0,r0,r4
        0x08005f76:    2803        .(      CMP      r0,#3
        0x08005f78:    d3f6        ..      BCC      0x8005f68 ; RCCEx_PLL2_Config + 456
        0x08005f7a:    2003        .       MOVS     r0,#3
        0x08005f7c:    b001        ..      ADD      sp,sp,#4
        0x08005f7e:    bdf0        ..      POP      {r4-r7,pc}
        0x08005f80:    2000        .       MOVS     r0,#0
        0x08005f82:    b001        ..      ADD      sp,sp,#4
        0x08005f84:    bdf0        ..      POP      {r4-r7,pc}
        0x08005f86:    0000        ..      MOVS     r0,r0
    RCCEx_PLL3_Config
        0x08005f88:    b5f0        ..      PUSH     {r4-r7,lr}
        0x08005f8a:    b081        ..      SUB      sp,sp,#4
        0x08005f8c:    4605        .F      MOV      r5,r0
        0x08005f8e:    6800        .h      LDR      r0,[r0,#0]
        0x08005f90:    3801        .8      SUBS     r0,#1
        0x08005f92:    460c        .F      MOV      r4,r1
        0x08005f94:    283f        ?(      CMP      r0,#0x3f
        0x08005f96:    d307        ..      BCC      0x8005fa8 ; RCCEx_PLL3_Config + 32
        0x08005f98:    f647502d    G.-P    MOV      r0,#0x7d2d
        0x08005f9c:    f64061da    @..a    MOV      r1,#0xeda
        0x08005fa0:    f6c00000    ....    MOVT     r0,#0x800
        0x08005fa4:    f001f890    ....    BL       assert_failed ; 0x80070c8
        0x08005fa8:    6868        hh      LDR      r0,[r5,#4]
        0x08005faa:    3804        .8      SUBS     r0,#4
        0x08005fac:    f5b07ffe    ....    CMP      r0,#0x1fc
        0x08005fb0:    d907        ..      BLS      0x8005fc2 ; RCCEx_PLL3_Config + 58
        0x08005fb2:    f647502d    G.-P    MOV      r0,#0x7d2d
        0x08005fb6:    f64061db    @..a    MOV      r1,#0xedb
        0x08005fba:    f6c00000    ....    MOVT     r0,#0x800
        0x08005fbe:    f001f883    ....    BL       assert_failed ; 0x80070c8
        0x08005fc2:    68a8        .h      LDR      r0,[r5,#8]
        0x08005fc4:    3801        .8      SUBS     r0,#1
        0x08005fc6:    2880        .(      CMP      r0,#0x80
        0x08005fc8:    d307        ..      BCC      0x8005fda ; RCCEx_PLL3_Config + 82
        0x08005fca:    f647502d    G.-P    MOV      r0,#0x7d2d
        0x08005fce:    f64061dc    @..a    MOV      r1,#0xedc
        0x08005fd2:    f6c00000    ....    MOVT     r0,#0x800
        0x08005fd6:    f001f877    ..w.    BL       assert_failed ; 0x80070c8
        0x08005fda:    6928        (i      LDR      r0,[r5,#0x10]
        0x08005fdc:    3801        .8      SUBS     r0,#1
        0x08005fde:    2880        .(      CMP      r0,#0x80
        0x08005fe0:    d307        ..      BCC      0x8005ff2 ; RCCEx_PLL3_Config + 106
        0x08005fe2:    f647502d    G.-P    MOV      r0,#0x7d2d
        0x08005fe6:    f64061dd    @..a    MOV      r1,#0xedd
        0x08005fea:    f6c00000    ....    MOVT     r0,#0x800
        0x08005fee:    f001f86b    ..k.    BL       assert_failed ; 0x80070c8
        0x08005ff2:    68e8        .h      LDR      r0,[r5,#0xc]
        0x08005ff4:    3801        .8      SUBS     r0,#1
        0x08005ff6:    2880        .(      CMP      r0,#0x80
        0x08005ff8:    d307        ..      BCC      0x800600a ; RCCEx_PLL3_Config + 130
        0x08005ffa:    f647502d    G.-P    MOV      r0,#0x7d2d
        0x08005ffe:    f64061de    @..a    MOV      r1,#0xede
        0x08006002:    f6c00000    ....    MOVT     r0,#0x800
        0x08006006:    f001f85f    .._.    BL       assert_failed ; 0x80070c8
        0x0800600a:    6968        hi      LDR      r0,[r5,#0x14]
        0x0800600c:    ea4f20b0    O..     ROR      r0,r0,#10
        0x08006010:    2804        .(      CMP      r0,#4
        0x08006012:    d307        ..      BCC      0x8006024 ; RCCEx_PLL3_Config + 156
        0x08006014:    f647502d    G.-P    MOV      r0,#0x7d2d
        0x08006018:    f64061df    @..a    MOV      r1,#0xedf
        0x0800601c:    f6c00000    ....    MOVT     r0,#0x800
        0x08006020:    f001f852    ..R.    BL       assert_failed ; 0x80070c8
        0x08006024:    69a8        .i      LDR      r0,[r5,#0x18]
        0x08006026:    f4407000    @..p    ORR      r0,r0,#0x200
        0x0800602a:    f5b07f00    ....    CMP      r0,#0x200
        0x0800602e:    d007        ..      BEQ      0x8006040 ; RCCEx_PLL3_Config + 184
        0x08006030:    f647502d    G.-P    MOV      r0,#0x7d2d
        0x08006034:    f44f616e    O.na    MOV      r1,#0xee0
        0x08006038:    f6c00000    ....    MOVT     r0,#0x800
        0x0800603c:    f001f844    ..D.    BL       assert_failed ; 0x80070c8
        0x08006040:    69e8        .i      LDR      r0,[r5,#0x1c]
        0x08006042:    f5b05f00    ..._    CMP      r0,#0x2000
        0x08006046:    d307        ..      BCC      0x8006058 ; RCCEx_PLL3_Config + 208
        0x08006048:    f647502d    G.-P    MOV      r0,#0x7d2d
        0x0800604c:    f64061e1    @..a    MOV      r1,#0xee1
        0x08006050:    f6c00000    ....    MOVT     r0,#0x800
        0x08006054:    f001f838    ..8.    BL       assert_failed ; 0x80070c8
        0x08006058:    f244472c    D.,G    MOV      r7,#0x442c
        0x0800605c:    f6c50702    ....    MOVT     r7,#0x5802
        0x08006060:    f8570c04    W...    LDR      r0,[r7,#-4]
        0x08006064:    f0000003    ....    AND      r0,r0,#3
        0x08006068:    2803        .(      CMP      r0,#3
        0x0800606a:    d102        ..      BNE      0x8006072 ; RCCEx_PLL3_Config + 234
        0x0800606c:    2001        .       MOVS     r0,#1
        0x0800606e:    b001        ..      ADD      sp,sp,#4
        0x08006070:    bdf0        ..      POP      {r4-r7,pc}
        0x08006072:    f8570c2c    W.,.    LDR      r0,[r7,#-0x2c]
        0x08006076:    f0205080     ..P    BIC      r0,r0,#0x10000000
        0x0800607a:    f8470c2c    G.,.    STR      r0,[r7,#-0x2c]
        0x0800607e:    f7fcf89b    ....    BL       HAL_GetTick ; 0x80021b8
        0x08006082:    4606        .F      MOV      r6,r0
        0x08006084:    f8570c2c    W.,.    LDR      r0,[r7,#-0x2c]
        0x08006088:    0080        ..      LSLS     r0,r0,#2
        0x0800608a:    d505        ..      BPL      0x8006098 ; RCCEx_PLL3_Config + 272
        0x0800608c:    f7fcf894    ....    BL       HAL_GetTick ; 0x80021b8
        0x08006090:    1b80        ..      SUBS     r0,r0,r6
        0x08006092:    2802        .(      CMP      r0,#2
        0x08006094:    d9f6        ..      BLS      0x8006084 ; RCCEx_PLL3_Config + 252
        0x08006096:    e064        d.      B        0x8006162 ; RCCEx_PLL3_Config + 474
        0x08006098:    f8570c04    W...    LDR      r0,[r7,#-4]
        0x0800609c:    68ee        .h      LDR      r6,[r5,#0xc]
        0x0800609e:    e895000e    ....    LDM      r5,{r1-r3}
        0x080060a2:    f020707c     .|p    BIC      r0,r0,#0x3f00000
        0x080060a6:    2c01        .,      CMP      r4,#1
        0x080060a8:    ea405001    @..P    ORR      r0,r0,r1,LSL #20
        0x080060ac:    f1a20101    ....    SUB      r1,r2,#1
        0x080060b0:    f36f215f    o._!    BFC      r1,#9,#23
        0x080060b4:    f44f427e    O.~B    MOV      r2,#0xfe00
        0x080060b8:    eb022243    ..C"    ADD      r2,r2,r3,LSL #9
        0x080060bc:    f8470c04    G...    STR      r0,[r7,#-4]
        0x080060c0:    b292        ..      UXTH     r2,r2
        0x080060c2:    f04f43fe    O..C    MOV      r3,#0x7f000000
        0x080060c6:    eb020001    ....    ADD      r0,r2,r1
        0x080060ca:    f44f01fe    O...    MOV      r1,#0x7f0000
        0x080060ce:    692a        *i      LDR      r2,[r5,#0x10]
        0x080060d0:    eb014106    ...A    ADD      r1,r1,r6,LSL #16
        0x080060d4:    f40101fe    ....    AND      r1,r1,#0x7f0000
        0x080060d8:    eb036202    ...b    ADD      r2,r3,r2,LSL #24
        0x080060dc:    4408        .D      ADD      r0,r0,r1
        0x080060de:    f00241fe    ...A    AND      r1,r2,#0x7f000000
        0x080060e2:    4408        .D      ADD      r0,r0,r1
        0x080060e4:    6178        xa      STR      r0,[r7,#0x14]
        0x080060e6:    6838        8h      LDR      r0,[r7,#0]
        0x080060e8:    6969        ii      LDR      r1,[r5,#0x14]
        0x080060ea:    f4206040     .@`    BIC      r0,r0,#0xc00
        0x080060ee:    ea400001    @...    ORR      r0,r0,r1
        0x080060f2:    6038        8`      STR      r0,[r7,#0]
        0x080060f4:    6838        8h      LDR      r0,[r7,#0]
        0x080060f6:    69a9        .i      LDR      r1,[r5,#0x18]
        0x080060f8:    f4207000     ..p    BIC      r0,r0,#0x200
        0x080060fc:    ea400001    @...    ORR      r0,r0,r1
        0x08006100:    6038        8`      STR      r0,[r7,#0]
        0x08006102:    6838        8h      LDR      r0,[r7,#0]
        0x08006104:    f64f71f8    O..q    MOV      r1,#0xfff8
        0x08006108:    f4207080     ..p    BIC      r0,r0,#0x100
        0x0800610c:    6038        8`      STR      r0,[r7,#0]
        0x0800610e:    69b8        .i      LDR      r0,[r7,#0x18]
        0x08006110:    69ea        .i      LDR      r2,[r5,#0x1c]
        0x08006112:    ea200001     ...    BIC      r0,r0,r1
        0x08006116:    f04f7180    O..q    MOV      r1,#0x1000000
        0x0800611a:    ea4000c2    @...    ORR      r0,r0,r2,LSL #3
        0x0800611e:    61b8        .a      STR      r0,[r7,#0x18]
        0x08006120:    6838        8h      LDR      r0,[r7,#0]
        0x08006122:    bf08        ..      IT       EQ
        0x08006124:    f44f0100    O...    MOVEQ    r1,#0x800000
        0x08006128:    f4407080    @..p    ORR      r0,r0,#0x100
        0x0800612c:    2c00        .,      CMP      r4,#0
        0x0800612e:    6038        8`      STR      r0,[r7,#0]
        0x08006130:    bf08        ..      IT       EQ
        0x08006132:    f44f0180    O...    MOVEQ    r1,#0x400000
        0x08006136:    6838        8h      LDR      r0,[r7,#0]
        0x08006138:    4308        .C      ORRS     r0,r0,r1
        0x0800613a:    6038        8`      STR      r0,[r7,#0]
        0x0800613c:    f8570c2c    W.,.    LDR      r0,[r7,#-0x2c]
        0x08006140:    f0405080    @..P    ORR      r0,r0,#0x10000000
        0x08006144:    f8470c2c    G.,.    STR      r0,[r7,#-0x2c]
        0x08006148:    f7fcf836    ..6.    BL       HAL_GetTick ; 0x80021b8
        0x0800614c:    4604        .F      MOV      r4,r0
        0x0800614e:    bf00        ..      NOP      
        0x08006150:    f8570c2c    W.,.    LDR      r0,[r7,#-0x2c]
        0x08006154:    0080        ..      LSLS     r0,r0,#2
        0x08006156:    d407        ..      BMI      0x8006168 ; RCCEx_PLL3_Config + 480
        0x08006158:    f7fcf82e    ....    BL       HAL_GetTick ; 0x80021b8
        0x0800615c:    1b00        ..      SUBS     r0,r0,r4
        0x0800615e:    2803        .(      CMP      r0,#3
        0x08006160:    d3f6        ..      BCC      0x8006150 ; RCCEx_PLL3_Config + 456
        0x08006162:    2003        .       MOVS     r0,#3
        0x08006164:    b001        ..      ADD      sp,sp,#4
        0x08006166:    bdf0        ..      POP      {r4-r7,pc}
        0x08006168:    2000        .       MOVS     r0,#0
        0x0800616a:    b001        ..      ADD      sp,sp,#4
        0x0800616c:    bdf0        ..      POP      {r4-r7,pc}
        0x0800616e:    0000        ..      MOVS     r0,r0
    SVC_Handler
        0x08006170:    4770        pG      BX       lr
        0x08006172:    0000        ..      MOVS     r0,r0
        0x08006174:    0000        ..      MOVS     r0,r0
        0x08006176:    0000        ..      MOVS     r0,r0
    SysTick_Config
        0x08006178:    b5b0        ..      PUSH     {r4,r5,r7,lr}
        0x0800617a:    3801        .8      SUBS     r0,#1
        0x0800617c:    2400        .$      MOVS     r4,#0
        0x0800617e:    ebb46f10    ...o    CMP      r4,r0,LSR #24
        0x08006182:    d001        ..      BEQ      0x8006188 ; SysTick_Config + 16
        0x08006184:    2001        .       MOVS     r0,#1
        0x08006186:    bdb0        ..      POP      {r4,r5,r7,pc}
        0x08006188:    f24e0510    N...    MOV      r5,#0xe010
        0x0800618c:    210f        .!      MOVS     r1,#0xf
        0x0800618e:    f2ce0500    ....    MOVT     r5,#0xe000
        0x08006192:    6068        h`      STR      r0,[r5,#4]
        0x08006194:    f04f30ff    O..0    MOV      r0,#0xffffffff
        0x08006198:    f000ff6e    ..n.    BL       __NVIC_SetPriority ; 0x8007078
        0x0800619c:    60ac        .`      STR      r4,[r5,#8]
        0x0800619e:    2007        .       MOVS     r0,#7
        0x080061a0:    6028        (`      STR      r0,[r5,#0]
        0x080061a2:    4620         F      MOV      r0,r4
        0x080061a4:    bdb0        ..      POP      {r4,r5,r7,pc}
        0x080061a6:    0000        ..      MOVS     r0,r0
    SysTick_Handler
        0x080061a8:    b580        ..      PUSH     {r7,lr}
        0x080061aa:    f7fcf80d    ....    BL       HAL_IncTick ; 0x80021c8
        0x080061ae:    bd80        ..      POP      {r7,pc}
    SystemClock_Config
        0x080061b0:    b570        p.      PUSH     {r4-r6,lr}
        0x080061b2:    b09c        ..      SUB      sp,sp,#0x70
        0x080061b4:    f6440418    D...    MOV      r4,#0x4818
        0x080061b8:    f240452c    @.,E    MOV      r5,#0x42c
        0x080061bc:    a809        ..      ADD      r0,sp,#0x24
        0x080061be:    214c        L!      MOVS     r1,#0x4c
        0x080061c0:    f6c50402    ....    MOVT     r4,#0x5802
        0x080061c4:    f6c50500    ....    MOVT     r5,#0x5800
        0x080061c8:    f7faf966    ..f.    BL       __aeabi_memclr4 ; 0x8000498
        0x080061cc:    2002        .       MOVS     r0,#2
        0x080061ce:    2600        .&      MOVS     r6,#0
        0x080061d0:    e9cd6607    ...f    STRD     r6,r6,[sp,#0x1c]
        0x080061d4:    e9cd6605    ...f    STRD     r6,r6,[sp,#0x14]
        0x080061d8:    e9cd6603    ...f    STRD     r6,r6,[sp,#0xc]
        0x080061dc:    e9cd6601    ...f    STRD     r6,r6,[sp,#4]
        0x080061e0:    f7fcf8b6    ....    BL       HAL_PWREx_ConfigSupply ; 0x8002350
        0x080061e4:    9600        ..      STR      r6,[sp,#0]
        0x080061e6:    6828        (h      LDR      r0,[r5,#0]
        0x080061e8:    f0200001     ...    BIC      r0,r0,#1
        0x080061ec:    6028        (`      STR      r0,[r5,#0]
        0x080061ee:    6828        (h      LDR      r0,[r5,#0]
        0x080061f0:    f0000001    ....    AND      r0,r0,#1
        0x080061f4:    9000        ..      STR      r0,[sp,#0]
        0x080061f6:    6820         h      LDR      r0,[r4,#0]
        0x080061f8:    f4404040    @.@@    ORR      r0,r0,#0xc000
        0x080061fc:    6020         `      STR      r0,[r4,#0]
        0x080061fe:    6820         h      LDR      r0,[r4,#0]
        0x08006200:    f4004040    ..@@    AND      r0,r0,#0xc000
        0x08006204:    9000        ..      STR      r0,[sp,#0]
        0x08006206:    9800        ..      LDR      r0,[sp,#0]
        0x08006208:    6820         h      LDR      r0,[r4,#0]
        0x0800620a:    0480        ..      LSLS     r0,r0,#18
        0x0800620c:    d5fc        ..      BPL      0x8006208 ; SystemClock_Config + 88
        0x0800620e:    f64f40dc    O..@    MOV      r0,#0xfcdc
        0x08006212:    f6cf70ff    ...p    MOVT     r0,#0xffff
        0x08006216:    5821        !X      LDR      r1,[r4,r0]
        0x08006218:    f0410102    A...    ORR      r1,r1,#2
        0x0800621c:    5021        !P      STR      r1,[r4,r0]
        0x0800621e:    5820         X      LDR      r0,[r4,r0]
        0x08006220:    f0000002    ....    AND      r0,r0,#2
        0x08006224:    9000        ..      STR      r0,[sp,#0]
        0x08006226:    9800        ..      LDR      r0,[sp,#0]
        0x08006228:    2000        .       MOVS     r0,#0
        0x0800622a:    9000        ..      STR      r0,[sp,#0]
        0x0800622c:    6820         h      LDR      r0,[r4,#0]
        0x0800622e:    f4404040    @.@@    ORR      r0,r0,#0xc000
        0x08006232:    6020         `      STR      r0,[r4,#0]
        0x08006234:    6820         h      LDR      r0,[r4,#0]
        0x08006236:    f4004040    ..@@    AND      r0,r0,#0xc000
        0x0800623a:    9000        ..      STR      r0,[sp,#0]
        0x0800623c:    6828        (h      LDR      r0,[r5,#0]
        0x0800623e:    f0400001    @...    ORR      r0,r0,#1
        0x08006242:    6028        (`      STR      r0,[r5,#0]
        0x08006244:    6828        (h      LDR      r0,[r5,#0]
        0x08006246:    f0000001    ....    AND      r0,r0,#1
        0x0800624a:    9000        ..      STR      r0,[sp,#0]
        0x0800624c:    9800        ..      LDR      r0,[sp,#0]
        0x0800624e:    bf00        ..      NOP      
        0x08006250:    6820         h      LDR      r0,[r4,#0]
        0x08006252:    0480        ..      LSLS     r0,r0,#18
        0x08006254:    d5fc        ..      BPL      0x8006250 ; SystemClock_Config + 160
        0x08006256:    f64f4010    O..@    MOV      r0,#0xfc10
        0x0800625a:    f6cf70ff    ...p    MOVT     r0,#0xffff
        0x0800625e:    5821        !X      LDR      r1,[r4,r0]
        0x08006260:    f0210103    !...    BIC      r1,r1,#3
        0x08006264:    5021        !P      STR      r1,[r4,r0]
        0x08006266:    2002        .       MOVS     r0,#2
        0x08006268:    9009        ..      STR      r0,[sp,#0x24]
        0x0800626a:    2101        .!      MOVS     r1,#1
        0x0800626c:    910c        ..      STR      r1,[sp,#0x30]
        0x0800626e:    2120         !      MOVS     r1,#0x20
        0x08006270:    910d        ..      STR      r1,[sp,#0x34]
        0x08006272:    9012        ..      STR      r0,[sp,#0x48]
        0x08006274:    2400        .$      MOVS     r4,#0
        0x08006276:    2104        .!      MOVS     r1,#4
        0x08006278:    9114        ..      STR      r1,[sp,#0x50]
        0x0800627a:    213c        <!      MOVS     r1,#0x3c
        0x0800627c:    9413        ..      STR      r4,[sp,#0x4c]
        0x0800627e:    e9cd1015    ....    STRD     r1,r0,[sp,#0x54]
        0x08006282:    2105        .!      MOVS     r1,#5
        0x08006284:    941b        ..      STR      r4,[sp,#0x6c]
        0x08006286:    e9cd1017    ....    STRD     r1,r0,[sp,#0x5c]
        0x0800628a:    200c        .       MOVS     r0,#0xc
        0x0800628c:    e9cd0419    ....    STRD     r0,r4,[sp,#0x64]
        0x08006290:    a809        ..      ADD      r0,sp,#0x24
        0x08006292:    f7fdff41    ..A.    BL       HAL_RCC_OscConfig ; 0x8004118
        0x08006296:    b9d0        ..      CBNZ     r0,0x80062ce ; SystemClock_Config + 286
        0x08006298:    203f        ?       MOVS     r0,#0x3f
        0x0800629a:    9001        ..      STR      r0,[sp,#4]
        0x0800629c:    2003        .       MOVS     r0,#3
        0x0800629e:    f44f6180    O..a    MOV      r1,#0x400
        0x080062a2:    e9cd0402    ....    STRD     r0,r4,[sp,#8]
        0x080062a6:    2008        .       MOVS     r0,#8
        0x080062a8:    9004        ..      STR      r0,[sp,#0x10]
        0x080062aa:    2040        @       MOVS     r0,#0x40
        0x080062ac:    e9cd0005    ....    STRD     r0,r0,[sp,#0x14]
        0x080062b0:    e9cd1007    ....    STRD     r1,r0,[sp,#0x1c]
        0x080062b4:    a801        ..      ADD      r0,sp,#4
        0x080062b6:    2104        .!      MOVS     r1,#4
        0x080062b8:    f7fdfb8e    ....    BL       HAL_RCC_ClockConfig ; 0x80039d8
        0x080062bc:    b938        8.      CBNZ     r0,0x80062ce ; SystemClock_Config + 286
        0x080062be:    2000        .       MOVS     r0,#0
        0x080062c0:    2100        .!      MOVS     r1,#0
        0x080062c2:    f44f1200    O...    MOV      r2,#0x200000
        0x080062c6:    f7fdfe9b    ....    BL       HAL_RCC_MCOConfig ; 0x8004000
        0x080062ca:    b01c        ..      ADD      sp,sp,#0x70
        0x080062cc:    bd70        p.      POP      {r4-r6,pc}
        0x080062ce:    f7fafb13    ....    BL       Error_Handler ; 0x80008f8
        0x080062d2:    0000        ..      MOVS     r0,r0
        0x080062d4:    0000        ..      MOVS     r0,r0
        0x080062d6:    0000        ..      MOVS     r0,r0
    SystemInit
        0x080062d8:    f64e5088    N..P    MOV      r0,#0xed88
        0x080062dc:    f2420c00    B...    MOVW     r12,#0x2000
        0x080062e0:    f2ce0000    ....    MOVT     r0,#0xe000
        0x080062e4:    f2c52c00    ...,    MOVT     r12,#0x5200
        0x080062e8:    6801        .h      LDR      r1,[r0,#0]
        0x080062ea:    f4410170    A.p.    ORR      r1,r1,#0xf00000
        0x080062ee:    6001        .`      STR      r1,[r0,#0]
        0x080062f0:    f8dc0000    ....    LDR      r0,[r12,#0]
        0x080062f4:    f000000f    ....    AND      r0,r0,#0xf
        0x080062f8:    2806        .(      CMP      r0,#6
        0x080062fa:    d806        ..      BHI      0x800630a ; SystemInit + 50
        0x080062fc:    f8dc0000    ....    LDR      r0,[r12,#0]
        0x08006300:    2107        .!      MOVS     r1,#7
        0x08006302:    f3610003    a...    BFI      r0,r1,#0,#4
        0x08006306:    f8cc0000    ....    STR      r0,[r12,#0]
        0x0800630a:    f2444000    D..@    MOVW     r0,#0x4400
        0x0800630e:    f64e527f    N..R    MOV      r2,#0xed7f
        0x08006312:    f6c50002    ....    MOVT     r0,#0x5802
        0x08006316:    f6ce22f6    ..."    MOVT     r2,#0xeaf6
        0x0800631a:    6801        .h      LDR      r1,[r0,#0]
        0x0800631c:    f0410101    A...    ORR      r1,r1,#1
        0x08006320:    6001        .`      STR      r1,[r0,#0]
        0x08006322:    2100        .!      MOVS     r1,#0
        0x08006324:    6101        .a      STR      r1,[r0,#0x10]
        0x08006326:    6803        .h      LDR      r3,[r0,#0]
        0x08006328:    401a        .@      ANDS     r2,r2,r3
        0x0800632a:    6002        .`      STR      r2,[r0,#0]
        0x0800632c:    f8dc2000    ...     LDR      r2,[r12,#0]
        0x08006330:    0712        ..      LSLS     r2,r2,#28
        0x08006332:    d506        ..      BPL      0x8006342 ; SystemInit + 106
        0x08006334:    f8dc2000    ...     LDR      r2,[r12,#0]
        0x08006338:    2307        .#      MOVS     r3,#7
        0x0800633a:    f3630203    c...    BFI      r2,r3,#0,#4
        0x0800633e:    f8cc2000    ...     STR      r2,[r12,#0]
        0x08006342:    f2402200    @.."    MOVW     r2,#0x200
        0x08006346:    6181        .a      STR      r1,[r0,#0x18]
        0x08006348:    61c1        .a      STR      r1,[r0,#0x1c]
        0x0800634a:    f2c02202    ..."    MOVT     r2,#0x202
        0x0800634e:    6201        .b      STR      r1,[r0,#0x20]
        0x08006350:    6282        .b      STR      r2,[r0,#0x28]
        0x08006352:    2200        ."      MOVS     r2,#0
        0x08006354:    f2c012ff    ....    MOVT     r2,#0x1ff
        0x08006358:    62c2        .b      STR      r2,[r0,#0x2c]
        0x0800635a:    f2402280    @.."    MOVW     r2,#0x280
        0x0800635e:    f2c01201    ....    MOVT     r2,#0x101
        0x08006362:    6302        .c      STR      r2,[r0,#0x30]
        0x08006364:    6341        Ac      STR      r1,[r0,#0x34]
        0x08006366:    6382        .c      STR      r2,[r0,#0x38]
        0x08006368:    63c1        .c      STR      r1,[r0,#0x3c]
        0x0800636a:    6402        .d      STR      r2,[r0,#0x40]
        0x0800636c:    6441        Ad      STR      r1,[r0,#0x44]
        0x0800636e:    6802        .h      LDR      r2,[r0,#0]
        0x08006370:    f4222280    ".."    BIC      r2,r2,#0x40000
        0x08006374:    6002        .`      STR      r2,[r0,#0]
        0x08006376:    6601        .f      STR      r1,[r0,#0x60]
        0x08006378:    f2410000    A...    MOVW     r0,#0x1000
        0x0800637c:    f6c54000    ...@    MOVT     r0,#0x5c00
        0x08006380:    6800        .h      LDR      r0,[r0,#0]
        0x08006382:    ebb17f50    ..P.    CMP      r1,r0,LSR #29
        0x08006386:    d105        ..      BNE      0x8006394 ; SystemInit + 188
        0x08006388:    f2481008    H...    MOV      r0,#0x8108
        0x0800638c:    2101        .!      MOVS     r1,#1
        0x0800638e:    f2c51000    ....    MOVT     r0,#0x5100
        0x08006392:    6001        .`      STR      r1,[r0,#0]
        0x08006394:    f2440000    D...    MOVW     r0,#0x4000
        0x08006398:    f24301d2    C...    MOV      r1,#0x30d2
        0x0800639c:    f2c52000    ...     MOVT     r0,#0x5200
        0x080063a0:    6001        .`      STR      r1,[r0,#0]
        0x080063a2:    4770        pG      BX       lr
        0x080063a4:    0000        ..      MOVS     r0,r0
        0x080063a6:    0000        ..      MOVS     r0,r0
    TIM6_DAC_IRQHandler
        0x080063a8:    b580        ..      PUSH     {r7,lr}
        0x080063aa:    f2401038    @.8.    MOVW     r0,#0x138
        0x080063ae:    f2c24000    ...@    MOVT     r0,#0x2400
        0x080063b2:    f7fefdf5    ....    BL       HAL_TIM_IRQHandler ; 0x8004fa0
        0x080063b6:    bd80        ..      POP      {r7,pc}
    TIM_Base_SetConfig
        0x080063b8:    b510        ..      PUSH     {r4,lr}
        0x080063ba:    f64032ff    @..2    MOV      r2,#0xbff
        0x080063be:    f2c40200    ....    MOVT     r2,#0x4000
        0x080063c2:    4290        .B      CMP      r0,r2
        0x080063c4:    6802        .h      LDR      r2,[r0,#0]
        0x080063c6:    dc0f        ..      BGT      0x80063e8 ; TIM_Base_SetConfig + 48
        0x080063c8:    f1b04f80    ...O    CMP      r0,#0x40000000
        0x080063cc:    d01d        ..      BEQ      0x800640a ; TIM_Base_SetConfig + 82
        0x080063ce:    f2404300    @..C    MOVW     r3,#0x400
        0x080063d2:    f2c40300    ....    MOVT     r3,#0x4000
        0x080063d6:    4298        .B      CMP      r0,r3
        0x080063d8:    d017        ..      BEQ      0x800640a ; TIM_Base_SetConfig + 82
        0x080063da:    f6400300    @...    MOVW     r3,#0x800
        0x080063de:    f2c40300    ....    MOVT     r3,#0x4000
        0x080063e2:    4298        .B      CMP      r0,r3
        0x080063e4:    d011        ..      BEQ      0x800640a ; TIM_Base_SetConfig + 82
        0x080063e6:    e014        ..      B        0x8006412 ; TIM_Base_SetConfig + 90
        0x080063e8:    f6404300    @..C    MOVW     r3,#0xc00
        0x080063ec:    f2c40300    ....    MOVT     r3,#0x4000
        0x080063f0:    4298        .B      CMP      r0,r3
        0x080063f2:    d00a        ..      BEQ      0x800640a ; TIM_Base_SetConfig + 82
        0x080063f4:    f2404300    @..C    MOVW     r3,#0x400
        0x080063f8:    f2c40301    ....    MOVT     r3,#0x4001
        0x080063fc:    4298        .B      CMP      r0,r3
        0x080063fe:    d004        ..      BEQ      0x800640a ; TIM_Base_SetConfig + 82
        0x08006400:    2300        .#      MOVS     r3,#0
        0x08006402:    f2c40301    ....    MOVT     r3,#0x4001
        0x08006406:    4298        .B      CMP      r0,r3
        0x08006408:    d103        ..      BNE      0x8006412 ; TIM_Base_SetConfig + 90
        0x0800640a:    f0220270    ".p.    BIC      r2,r2,#0x70
        0x0800640e:    684b        Kh      LDR      r3,[r1,#4]
        0x08006410:    431a        .C      ORRS     r2,r2,r3
        0x08006412:    f64f73ff    O..s    MOV      r3,#0xffff
        0x08006416:    f6437cff    C..|    MOV      r12,#0x3fff
        0x0800641a:    f2c40300    ....    MOVT     r3,#0x4000
        0x0800641e:    f2c40c01    ....    MOVT     r12,#0x4001
        0x08006422:    4298        .B      CMP      r0,r3
        0x08006424:    dd10        ..      BLE      0x8006448 ; TIM_Base_SetConfig + 144
        0x08006426:    4560        `E      CMP      r0,r12
        0x08006428:    dd1a        ..      BLE      0x8006460 ; TIM_Base_SetConfig + 168
        0x0800642a:    f2440300    D...    MOVW     r3,#0x4000
        0x0800642e:    f2c40301    ....    MOVT     r3,#0x4001
        0x08006432:    4298        .B      CMP      r0,r3
        0x08006434:    d02c        ,.      BEQ      0x8006490 ; TIM_Base_SetConfig + 216
        0x08006436:    f6440300    D...    MOVW     r3,#0x4800
        0x0800643a:    f2c40301    ....    MOVT     r3,#0x4001
        0x0800643e:    4298        .B      CMP      r0,r3
        0x08006440:    d026        &.      BEQ      0x8006490 ; TIM_Base_SetConfig + 216
        0x08006442:    f2444300    D..C    MOVW     r3,#0x4400
        0x08006446:    e012        ..      B        0x800646e ; TIM_Base_SetConfig + 182
        0x08006448:    f24073ff    @..s    MOV      r3,#0x7ff
        0x0800644c:    f2c40300    ....    MOVT     r3,#0x4000
        0x08006450:    4298        .B      CMP      r0,r3
        0x08006452:    dc11        ..      BGT      0x8006478 ; TIM_Base_SetConfig + 192
        0x08006454:    f1b04f80    ...O    CMP      r0,#0x40000000
        0x08006458:    d01a        ..      BEQ      0x8006490 ; TIM_Base_SetConfig + 216
        0x0800645a:    f2404300    @..C    MOVW     r3,#0x400
        0x0800645e:    e013        ..      B        0x8006488 ; TIM_Base_SetConfig + 208
        0x08006460:    2300        .#      MOVS     r3,#0
        0x08006462:    f2c40301    ....    MOVT     r3,#0x4001
        0x08006466:    4298        .B      CMP      r0,r3
        0x08006468:    d012        ..      BEQ      0x8006490 ; TIM_Base_SetConfig + 216
        0x0800646a:    f2404300    @..C    MOVW     r3,#0x400
        0x0800646e:    f2c40301    ....    MOVT     r3,#0x4001
        0x08006472:    4298        .B      CMP      r0,r3
        0x08006474:    d00c        ..      BEQ      0x8006490 ; TIM_Base_SetConfig + 216
        0x08006476:    e00f        ..      B        0x8006498 ; TIM_Base_SetConfig + 224
        0x08006478:    f6400300    @...    MOVW     r3,#0x800
        0x0800647c:    f2c40300    ....    MOVT     r3,#0x4000
        0x08006480:    4298        .B      CMP      r0,r3
        0x08006482:    d005        ..      BEQ      0x8006490 ; TIM_Base_SetConfig + 216
        0x08006484:    f6404300    @..C    MOVW     r3,#0xc00
        0x08006488:    f2c40300    ....    MOVT     r3,#0x4000
        0x0800648c:    4298        .B      CMP      r0,r3
        0x0800648e:    d103        ..      BNE      0x8006498 ; TIM_Base_SetConfig + 224
        0x08006490:    f4227240    ".@r    BIC      r2,r2,#0x300
        0x08006494:    68cb        .h      LDR      r3,[r1,#0xc]
        0x08006496:    431a        .C      ORRS     r2,r2,r3
        0x08006498:    f0220280    "...    BIC      r2,r2,#0x80
        0x0800649c:    694c        Li      LDR      r4,[r1,#0x14]
        0x0800649e:    4560        `E      CMP      r0,r12
        0x080064a0:    f8d1e000    ....    LDR      lr,[r1,#0]
        0x080064a4:    688b        .h      LDR      r3,[r1,#8]
        0x080064a6:    ea420204    B...    ORR      r2,r2,r4
        0x080064aa:    6002        .`      STR      r2,[r0,#0]
        0x080064ac:    62c3        .b      STR      r3,[r0,#0x2c]
        0x080064ae:    f8c0e028    ..(.    STR      lr,[r0,#0x28]
        0x080064b2:    dd0e        ..      BLE      0x80064d2 ; TIM_Base_SetConfig + 282
        0x080064b4:    f2440200    D...    MOVW     r2,#0x4000
        0x080064b8:    f2c40201    ....    MOVT     r2,#0x4001
        0x080064bc:    4290        .B      CMP      r0,r2
        0x080064be:    d013        ..      BEQ      0x80064e8 ; TIM_Base_SetConfig + 304
        0x080064c0:    f6440200    D...    MOVW     r2,#0x4800
        0x080064c4:    f2c40201    ....    MOVT     r2,#0x4001
        0x080064c8:    4290        .B      CMP      r0,r2
        0x080064ca:    d00d        ..      BEQ      0x80064e8 ; TIM_Base_SetConfig + 304
        0x080064cc:    f2444200    D..B    MOVW     r2,#0x4400
        0x080064d0:    e006        ..      B        0x80064e0 ; TIM_Base_SetConfig + 296
        0x080064d2:    2200        ."      MOVS     r2,#0
        0x080064d4:    f2c40201    ....    MOVT     r2,#0x4001
        0x080064d8:    4290        .B      CMP      r0,r2
        0x080064da:    d005        ..      BEQ      0x80064e8 ; TIM_Base_SetConfig + 304
        0x080064dc:    f2404200    @..B    MOVW     r2,#0x400
        0x080064e0:    f2c40201    ....    MOVT     r2,#0x4001
        0x080064e4:    4290        .B      CMP      r0,r2
        0x080064e6:    d101        ..      BNE      0x80064ec ; TIM_Base_SetConfig + 308
        0x080064e8:    6909        .i      LDR      r1,[r1,#0x10]
        0x080064ea:    6301        .c      STR      r1,[r0,#0x30]
        0x080064ec:    2101        .!      MOVS     r1,#1
        0x080064ee:    6141        Aa      STR      r1,[r0,#0x14]
        0x080064f0:    bd10        ..      POP      {r4,pc}
        0x080064f2:    0000        ..      MOVS     r0,r0
        0x080064f4:    0000        ..      MOVS     r0,r0
        0x080064f6:    0000        ..      MOVS     r0,r0
    UARTEx_SetNbDataToProcess
        0x080064f8:    b510        ..      PUSH     {r4,lr}
        0x080064fa:    6e41        An      LDR      r1,[r0,#0x64]
        0x080064fc:    b301        ..      CBZ      r1,0x8006540 ; UARTEx_SetNbDataToProcess + 72
        0x080064fe:    6801        .h      LDR      r1,[r0,#0]
        0x08006500:    f6474c36    G.6L    MOV      r12,#0x7c36
        0x08006504:    f6c00c00    ....    MOVT     r12,#0x800
        0x08006508:    f6474e3e    G.>N    MOV      lr,#0x7c3e
        0x0800650c:    688a        .h      LDR      r2,[r1,#8]
        0x0800650e:    f6c00e00    ....    MOVT     lr,#0x800
        0x08006512:    6889        .h      LDR      r1,[r1,#8]
        0x08006514:    f3c26242    ..Bb    UBFX     r2,r2,#25,#3
        0x08006518:    0f4c        L.      LSRS     r4,r1,#29
        0x0800651a:    f81c3002    ...0    LDRB     r3,[r12,r2]
        0x0800651e:    f81e1002    ....    LDRB     r1,[lr,r2]
        0x08006522:    011a        ..      LSLS     r2,r3,#4
        0x08006524:    f81e3004    ...0    LDRB     r3,[lr,r4]
        0x08006528:    fbb2f1f1    ....    UDIV     r1,r2,r1
        0x0800652c:    f81c2004    ...     LDRB     r2,[r12,r4]
        0x08006530:    f8a01068    ..h.    STRH     r1,[r0,#0x68]
        0x08006534:    0112        ..      LSLS     r2,r2,#4
        0x08006536:    fbb2f2f3    ....    UDIV     r2,r2,r3
        0x0800653a:    f8a0206a    ..j     STRH     r2,[r0,#0x6a]
        0x0800653e:    bd10        ..      POP      {r4,pc}
        0x08006540:    2101        .!      MOVS     r1,#1
        0x08006542:    f8a0106a    ..j.    STRH     r1,[r0,#0x6a]
        0x08006546:    f8a01068    ..h.    STRH     r1,[r0,#0x68]
        0x0800654a:    bd10        ..      POP      {r4,pc}
        0x0800654c:    0000        ..      MOVS     r0,r0
        0x0800654e:    0000        ..      MOVS     r0,r0
    UART_AdvFeatureConfig
        0x08006550:    b510        ..      PUSH     {r4,lr}
        0x08006552:    4604        .F      MOV      r4,r0
        0x08006554:    6a80        .j      LDR      r0,[r0,#0x28]
        0x08006556:    f5b07f80    ....    CMP      r0,#0x100
        0x0800655a:    d307        ..      BCC      0x800656c ; UART_AdvFeatureConfig + 28
        0x0800655c:    f647608a    G..`    MOV      r0,#0x7e8a
        0x08006560:    f64041ca    @..A    MOV      r1,#0xcca
        0x08006564:    f6c00000    ....    MOVT     r0,#0x800
        0x08006568:    f000fdae    ....    BL       assert_failed ; 0x80070c8
        0x0800656c:    f8940028    ..(.    LDRB     r0,[r4,#0x28]
        0x08006570:    07c0        ..      LSLS     r0,r0,#31
        0x08006572:    d014        ..      BEQ      0x800659e ; UART_AdvFeatureConfig + 78
        0x08006574:    6ae0        .j      LDR      r0,[r4,#0x2c]
        0x08006576:    f4403000    @..0    ORR      r0,r0,#0x20000
        0x0800657a:    f5b03f00    ...?    CMP      r0,#0x20000
        0x0800657e:    d007        ..      BEQ      0x8006590 ; UART_AdvFeatureConfig + 64
        0x08006580:    f647608a    G..`    MOV      r0,#0x7e8a
        0x08006584:    f64041cf    @..A    MOV      r1,#0xccf
        0x08006588:    f6c00000    ....    MOVT     r0,#0x800
        0x0800658c:    f000fd9c    ....    BL       assert_failed ; 0x80070c8
        0x08006590:    6820         h      LDR      r0,[r4,#0]
        0x08006592:    6ae1        .j      LDR      r1,[r4,#0x2c]
        0x08006594:    6842        Bh      LDR      r2,[r0,#4]
        0x08006596:    f4223200    "..2    BIC      r2,r2,#0x20000
        0x0800659a:    4311        .C      ORRS     r1,r1,r2
        0x0800659c:    6041        A`      STR      r1,[r0,#4]
        0x0800659e:    f8940028    ..(.    LDRB     r0,[r4,#0x28]
        0x080065a2:    0780        ..      LSLS     r0,r0,#30
        0x080065a4:    d514        ..      BPL      0x80065d0 ; UART_AdvFeatureConfig + 128
        0x080065a6:    6b20         k      LDR      r0,[r4,#0x30]
        0x080065a8:    f4403080    @..0    ORR      r0,r0,#0x10000
        0x080065ac:    f5b03f80    ...?    CMP      r0,#0x10000
        0x080065b0:    d007        ..      BEQ      0x80065c2 ; UART_AdvFeatureConfig + 114
        0x080065b2:    f647608a    G..`    MOV      r0,#0x7e8a
        0x080065b6:    f64041d6    @..A    MOV      r1,#0xcd6
        0x080065ba:    f6c00000    ....    MOVT     r0,#0x800
        0x080065be:    f000fd83    ....    BL       assert_failed ; 0x80070c8
        0x080065c2:    6820         h      LDR      r0,[r4,#0]
        0x080065c4:    6b21        !k      LDR      r1,[r4,#0x30]
        0x080065c6:    6842        Bh      LDR      r2,[r0,#4]
        0x080065c8:    f4223280    "..2    BIC      r2,r2,#0x10000
        0x080065cc:    4311        .C      ORRS     r1,r1,r2
        0x080065ce:    6041        A`      STR      r1,[r0,#4]
        0x080065d0:    f8940028    ..(.    LDRB     r0,[r4,#0x28]
        0x080065d4:    0740        @.      LSLS     r0,r0,#29
        0x080065d6:    d514        ..      BPL      0x8006602 ; UART_AdvFeatureConfig + 178
        0x080065d8:    6b60        `k      LDR      r0,[r4,#0x34]
        0x080065da:    f4402080    @..     ORR      r0,r0,#0x40000
        0x080065de:    f5b02f80    .../    CMP      r0,#0x40000
        0x080065e2:    d007        ..      BEQ      0x80065f4 ; UART_AdvFeatureConfig + 164
        0x080065e4:    f647608a    G..`    MOV      r0,#0x7e8a
        0x080065e8:    f64041dd    @..A    MOV      r1,#0xcdd
        0x080065ec:    f6c00000    ....    MOVT     r0,#0x800
        0x080065f0:    f000fd6a    ..j.    BL       assert_failed ; 0x80070c8
        0x080065f4:    6820         h      LDR      r0,[r4,#0]
        0x080065f6:    6b61        ak      LDR      r1,[r4,#0x34]
        0x080065f8:    6842        Bh      LDR      r2,[r0,#4]
        0x080065fa:    f4222280    ".."    BIC      r2,r2,#0x40000
        0x080065fe:    4311        .C      ORRS     r1,r1,r2
        0x08006600:    6041        A`      STR      r1,[r0,#4]
        0x08006602:    f8940028    ..(.    LDRB     r0,[r4,#0x28]
        0x08006606:    0700        ..      LSLS     r0,r0,#28
        0x08006608:    d514        ..      BPL      0x8006634 ; UART_AdvFeatureConfig + 228
        0x0800660a:    6ba0        .k      LDR      r0,[r4,#0x38]
        0x0800660c:    f4404000    @..@    ORR      r0,r0,#0x8000
        0x08006610:    f5b04f00    ...O    CMP      r0,#0x8000
        0x08006614:    d007        ..      BEQ      0x8006626 ; UART_AdvFeatureConfig + 214
        0x08006616:    f647608a    G..`    MOV      r0,#0x7e8a
        0x0800661a:    f64041e4    @..A    MOV      r1,#0xce4
        0x0800661e:    f6c00000    ....    MOVT     r0,#0x800
        0x08006622:    f000fd51    ..Q.    BL       assert_failed ; 0x80070c8
        0x08006626:    6820         h      LDR      r0,[r4,#0]
        0x08006628:    6ba1        .k      LDR      r1,[r4,#0x38]
        0x0800662a:    6842        Bh      LDR      r2,[r0,#4]
        0x0800662c:    f4224200    "..B    BIC      r2,r2,#0x8000
        0x08006630:    4311        .C      ORRS     r1,r1,r2
        0x08006632:    6041        A`      STR      r1,[r0,#4]
        0x08006634:    f8940028    ..(.    LDRB     r0,[r4,#0x28]
        0x08006638:    06c0        ..      LSLS     r0,r0,#27
        0x0800663a:    d514        ..      BPL      0x8006666 ; UART_AdvFeatureConfig + 278
        0x0800663c:    6be0        .k      LDR      r0,[r4,#0x3c]
        0x0800663e:    f4405080    @..P    ORR      r0,r0,#0x1000
        0x08006642:    f5b05f80    ..._    CMP      r0,#0x1000
        0x08006646:    d007        ..      BEQ      0x8006658 ; UART_AdvFeatureConfig + 264
        0x08006648:    f647608a    G..`    MOV      r0,#0x7e8a
        0x0800664c:    f64041eb    @..A    MOV      r1,#0xceb
        0x08006650:    f6c00000    ....    MOVT     r0,#0x800
        0x08006654:    f000fd38    ..8.    BL       assert_failed ; 0x80070c8
        0x08006658:    6820         h      LDR      r0,[r4,#0]
        0x0800665a:    6be1        .k      LDR      r1,[r4,#0x3c]
        0x0800665c:    6882        .h      LDR      r2,[r0,#8]
        0x0800665e:    f4225280    "..R    BIC      r2,r2,#0x1000
        0x08006662:    4311        .C      ORRS     r1,r1,r2
        0x08006664:    6081        .`      STR      r1,[r0,#8]
        0x08006666:    f8940028    ..(.    LDRB     r0,[r4,#0x28]
        0x0800666a:    0680        ..      LSLS     r0,r0,#26
        0x0800666c:    d514        ..      BPL      0x8006698 ; UART_AdvFeatureConfig + 328
        0x0800666e:    6c20         l      LDR      r0,[r4,#0x40]
        0x08006670:    f4405000    @..P    ORR      r0,r0,#0x2000
        0x08006674:    f5b05f00    ..._    CMP      r0,#0x2000
        0x08006678:    d007        ..      BEQ      0x800668a ; UART_AdvFeatureConfig + 314
        0x0800667a:    f647608a    G..`    MOV      r0,#0x7e8a
        0x0800667e:    f64041f2    @..A    MOV      r1,#0xcf2
        0x08006682:    f6c00000    ....    MOVT     r0,#0x800
        0x08006686:    f000fd1f    ....    BL       assert_failed ; 0x80070c8
        0x0800668a:    6820         h      LDR      r0,[r4,#0]
        0x0800668c:    6c21        !l      LDR      r1,[r4,#0x40]
        0x0800668e:    6882        .h      LDR      r2,[r0,#8]
        0x08006690:    f4225200    "..R    BIC      r2,r2,#0x2000
        0x08006694:    4311        .C      ORRS     r1,r1,r2
        0x08006696:    6081        .`      STR      r1,[r0,#8]
        0x08006698:    f8940028    ..(.    LDRB     r0,[r4,#0x28]
        0x0800669c:    0640        @.      LSLS     r0,r0,#25
        0x0800669e:    d56c        l.      BPL      0x800677a ; UART_AdvFeatureConfig + 554
        0x080066a0:    f24771ff    G..q    MOV      r1,#0x77ff
        0x080066a4:    6820         h      LDR      r0,[r4,#0]
        0x080066a6:    f2c40100    ....    MOVT     r1,#0x4000
        0x080066aa:    4288        .B      CMP      r0,r1
        0x080066ac:    dc10        ..      BGT      0x80066d0 ; UART_AdvFeatureConfig + 384
        0x080066ae:    f64431ff    D..1    MOV      r1,#0x4bff
        0x080066b2:    f2c40100    ....    MOVT     r1,#0x4000
        0x080066b6:    4288        .B      CMP      r0,r1
        0x080066b8:    dc1b        ..      BGT      0x80066f2 ; UART_AdvFeatureConfig + 418
        0x080066ba:    f2444100    D..A    MOVW     r1,#0x4400
        0x080066be:    f2c40100    ....    MOVT     r1,#0x4000
        0x080066c2:    4288        .B      CMP      r0,r1
        0x080066c4:    d02c        ,.      BEQ      0x8006720 ; UART_AdvFeatureConfig + 464
        0x080066c6:    f6440100    D...    MOVW     r1,#0x4800
        0x080066ca:    f2c40100    ....    MOVT     r1,#0x4000
        0x080066ce:    e025        %.      B        0x800671c ; UART_AdvFeatureConfig + 460
        0x080066d0:    f64071ff    @..q    MOV      r1,#0xfff
        0x080066d4:    f2c40101    ....    MOVT     r1,#0x4001
        0x080066d8:    4288        .B      CMP      r0,r1
        0x080066da:    dc15        ..      BGT      0x8006708 ; UART_AdvFeatureConfig + 440
        0x080066dc:    f6470100    G...    MOVW     r1,#0x7800
        0x080066e0:    f2c40100    ....    MOVT     r1,#0x4000
        0x080066e4:    4288        .B      CMP      r0,r1
        0x080066e6:    d01b        ..      BEQ      0x8006720 ; UART_AdvFeatureConfig + 464
        0x080066e8:    f6474100    G..A    MOVW     r1,#0x7c00
        0x080066ec:    f2c40100    ....    MOVT     r1,#0x4000
        0x080066f0:    e014        ..      B        0x800671c ; UART_AdvFeatureConfig + 460
        0x080066f2:    f6444100    D..A    MOVW     r1,#0x4c00
        0x080066f6:    f2c40100    ....    MOVT     r1,#0x4000
        0x080066fa:    4288        .B      CMP      r0,r1
        0x080066fc:    d010        ..      BEQ      0x8006720 ; UART_AdvFeatureConfig + 464
        0x080066fe:    f2450100    E...    MOVW     r1,#0x5000
        0x08006702:    f2c40100    ....    MOVT     r1,#0x4000
        0x08006706:    e009        ..      B        0x800671c ; UART_AdvFeatureConfig + 460
        0x08006708:    f2410100    A...    MOVW     r1,#0x1000
        0x0800670c:    f2c40101    ....    MOVT     r1,#0x4001
        0x08006710:    4288        .B      CMP      r0,r1
        0x08006712:    d005        ..      BEQ      0x8006720 ; UART_AdvFeatureConfig + 464
        0x08006714:    f2414100    A..A    MOVW     r1,#0x1400
        0x08006718:    f2c40101    ....    MOVT     r1,#0x4001
        0x0800671c:    4288        .B      CMP      r0,r1
        0x0800671e:    d147        G.      BNE      0x80067b0 ; UART_AdvFeatureConfig + 608
        0x08006720:    6c60        `l      LDR      r0,[r4,#0x44]
        0x08006722:    f4401080    @...    ORR      r0,r0,#0x100000
        0x08006726:    f5b01f80    ....    CMP      r0,#0x100000
        0x0800672a:    d007        ..      BEQ      0x800673c ; UART_AdvFeatureConfig + 492
        0x0800672c:    f647608a    G..`    MOV      r0,#0x7e8a
        0x08006730:    f64041fa    @..A    MOV      r1,#0xcfa
        0x08006734:    f6c00000    ....    MOVT     r0,#0x800
        0x08006738:    f000fcc6    ....    BL       assert_failed ; 0x80070c8
        0x0800673c:    6820         h      LDR      r0,[r4,#0]
        0x0800673e:    6c61        al      LDR      r1,[r4,#0x44]
        0x08006740:    f5b11f80    ....    CMP      r1,#0x100000
        0x08006744:    6842        Bh      LDR      r2,[r0,#4]
        0x08006746:    f4221280    "...    BIC      r2,r2,#0x100000
        0x0800674a:    ea410102    A...    ORR      r1,r1,r2
        0x0800674e:    6041        A`      STR      r1,[r0,#4]
        0x08006750:    d113        ..      BNE      0x800677a ; UART_AdvFeatureConfig + 554
        0x08006752:    6ca0        .l      LDR      r0,[r4,#0x48]
        0x08006754:    ea4f5070    O.pP    ROR      r0,r0,#21
        0x08006758:    2804        .(      CMP      r0,#4
        0x0800675a:    d307        ..      BCC      0x800676c ; UART_AdvFeatureConfig + 540
        0x0800675c:    f647608a    G..`    MOV      r0,#0x7e8a
        0x08006760:    f64041ff    @..A    MOV      r1,#0xcff
        0x08006764:    f6c00000    ....    MOVT     r0,#0x800
        0x08006768:    f000fcae    ....    BL       assert_failed ; 0x80070c8
        0x0800676c:    6820         h      LDR      r0,[r4,#0]
        0x0800676e:    6ca1        .l      LDR      r1,[r4,#0x48]
        0x08006770:    6842        Bh      LDR      r2,[r0,#4]
        0x08006772:    f42202c0    "...    BIC      r2,r2,#0x600000
        0x08006776:    4311        .C      ORRS     r1,r1,r2
        0x08006778:    6041        A`      STR      r1,[r0,#4]
        0x0800677a:    f8940028    ..(.    LDRB     r0,[r4,#0x28]
        0x0800677e:    0600        ..      LSLS     r0,r0,#24
        0x08006780:    bf58        X.      IT       PL
        0x08006782:    bd10        ..      POPPL    {r4,pc}
        0x08006784:    6ce0        .l      LDR      r0,[r4,#0x4c]
        0x08006786:    f4402000    @..     ORR      r0,r0,#0x80000
        0x0800678a:    f5b02f00    .../    CMP      r0,#0x80000
        0x0800678e:    d007        ..      BEQ      0x80067a0 ; UART_AdvFeatureConfig + 592
        0x08006790:    f647608a    G..`    MOV      r0,#0x7e8a
        0x08006794:    f6405107    @..Q    MOV      r1,#0xd07
        0x08006798:    f6c00000    ....    MOVT     r0,#0x800
        0x0800679c:    f000fc94    ....    BL       assert_failed ; 0x80070c8
        0x080067a0:    6820         h      LDR      r0,[r4,#0]
        0x080067a2:    6ce1        .l      LDR      r1,[r4,#0x4c]
        0x080067a4:    6842        Bh      LDR      r2,[r0,#4]
        0x080067a6:    f4222200    ".."    BIC      r2,r2,#0x80000
        0x080067aa:    4311        .C      ORRS     r1,r1,r2
        0x080067ac:    6041        A`      STR      r1,[r0,#4]
        0x080067ae:    bd10        ..      POP      {r4,pc}
        0x080067b0:    f647608a    G..`    MOV      r0,#0x7e8a
        0x080067b4:    f64041f9    @..A    MOV      r1,#0xcf9
        0x080067b8:    f6c00000    ....    MOVT     r0,#0x800
        0x080067bc:    f000fc84    ....    BL       assert_failed ; 0x80070c8
        0x080067c0:    e7ae        ..      B        0x8006720 ; UART_AdvFeatureConfig + 464
        0x080067c2:    0000        ..      MOVS     r0,r0
        0x080067c4:    0000        ..      MOVS     r0,r0
        0x080067c6:    0000        ..      MOVS     r0,r0
    UART_CheckIdleState
        0x080067c8:    b5b0        ..      PUSH     {r4,r5,r7,lr}
        0x080067ca:    b082        ..      SUB      sp,sp,#8
        0x080067cc:    4604        .F      MOV      r4,r0
        0x080067ce:    2000        .       MOVS     r0,#0
        0x080067d0:    f8c40090    ....    STR      r0,[r4,#0x90]
        0x080067d4:    f7fbfcf0    ....    BL       HAL_GetTick ; 0x80021b8
        0x080067d8:    6821        !h      LDR      r1,[r4,#0]
        0x080067da:    4605        .F      MOV      r5,r0
        0x080067dc:    6809        .h      LDR      r1,[r1,#0]
        0x080067de:    0709        ..      LSLS     r1,r1,#28
        0x080067e0:    d519        ..      BPL      0x8006816 ; UART_CheckIdleState + 78
        0x080067e2:    f44f1100    O...    MOV      r1,#0x200000
        0x080067e6:    2200        ."      MOVS     r2,#0
        0x080067e8:    f06f407e    o.~@    MVN      r0,#0xfe000000
        0x080067ec:    9000        ..      STR      r0,[sp,#0]
        0x080067ee:    4620         F      MOV      r0,r4
        0x080067f0:    462b        +F      MOV      r3,r5
        0x080067f2:    f000fbc5    ....    BL       UART_WaitOnFlagUntilTimeout ; 0x8006f80
        0x080067f6:    b170        p.      CBZ      r0,0x8006816 ; UART_CheckIdleState + 78
        0x080067f8:    6820         h      LDR      r0,[r4,#0]
        0x080067fa:    e8500f00    P...    LDREX    r0,[r0]
        0x080067fe:    6821        !h      LDR      r1,[r4,#0]
        0x08006800:    f0200080     ...    BIC      r0,r0,#0x80
        0x08006804:    e8410200    A...    STREX    r2,r0,[r1]
        0x08006808:    2a00        .*      CMP      r2,#0
        0x0800680a:    d1f5        ..      BNE      0x80067f8 ; UART_CheckIdleState + 48
        0x0800680c:    2020                MOVS     r0,#0x20
        0x0800680e:    f8c40088    ....    STR      r0,[r4,#0x88]
        0x08006812:    2003        .       MOVS     r0,#3
        0x08006814:    e02f        /.      B        0x8006876 ; UART_CheckIdleState + 174
        0x08006816:    6820         h      LDR      r0,[r4,#0]
        0x08006818:    6800        .h      LDR      r0,[r0,#0]
        0x0800681a:    0740        @.      LSLS     r0,r0,#29
        0x0800681c:    d523        #.      BPL      0x8006866 ; UART_CheckIdleState + 158
        0x0800681e:    f44f0180    O...    MOV      r1,#0x400000
        0x08006822:    2200        ."      MOVS     r2,#0
        0x08006824:    f06f407e    o.~@    MVN      r0,#0xfe000000
        0x08006828:    9000        ..      STR      r0,[sp,#0]
        0x0800682a:    4620         F      MOV      r0,r4
        0x0800682c:    462b        +F      MOV      r3,r5
        0x0800682e:    f000fba7    ....    BL       UART_WaitOnFlagUntilTimeout ; 0x8006f80
        0x08006832:    b1c0        ..      CBZ      r0,0x8006866 ; UART_CheckIdleState + 158
        0x08006834:    6820         h      LDR      r0,[r4,#0]
        0x08006836:    e8500f00    P...    LDREX    r0,[r0]
        0x0800683a:    6821        !h      LDR      r1,[r4,#0]
        0x0800683c:    f4207090     ..p    BIC      r0,r0,#0x120
        0x08006840:    e8410200    A...    STREX    r2,r0,[r1]
        0x08006844:    2a00        .*      CMP      r2,#0
        0x08006846:    d1f5        ..      BNE      0x8006834 ; UART_CheckIdleState + 108
        0x08006848:    6820         h      LDR      r0,[r4,#0]
        0x0800684a:    e8500f02    P...    LDREX    r0,[r0,#8]
        0x0800684e:    6821        !h      LDR      r1,[r4,#0]
        0x08006850:    f0200001     ...    BIC      r0,r0,#1
        0x08006854:    e8410202    A...    STREX    r2,r0,[r1,#8]
        0x08006858:    2a00        .*      CMP      r2,#0
        0x0800685a:    d1f5        ..      BNE      0x8006848 ; UART_CheckIdleState + 128
        0x0800685c:    2020                MOVS     r0,#0x20
        0x0800685e:    f8c4008c    ....    STR      r0,[r4,#0x8c]
        0x08006862:    2003        .       MOVS     r0,#3
        0x08006864:    e007        ..      B        0x8006876 ; UART_CheckIdleState + 174
        0x08006866:    2020                MOVS     r0,#0x20
        0x08006868:    f8c40088    ....    STR      r0,[r4,#0x88]
        0x0800686c:    f8c4008c    ....    STR      r0,[r4,#0x8c]
        0x08006870:    2000        .       MOVS     r0,#0
        0x08006872:    66e0        .f      STR      r0,[r4,#0x6c]
        0x08006874:    6720         g      STR      r0,[r4,#0x70]
        0x08006876:    2100        .!      MOVS     r1,#0
        0x08006878:    f8841084    ....    STRB     r1,[r4,#0x84]
        0x0800687c:    b002        ..      ADD      sp,sp,#8
        0x0800687e:    bdb0        ..      POP      {r4,r5,r7,pc}
    UART_EndRxTransfer
        0x08006880:    6801        .h      LDR      r1,[r0,#0]
        0x08006882:    e8511f00    Q...    LDREX    r1,[r1]
        0x08006886:    6802        .h      LDR      r2,[r0,#0]
        0x08006888:    f4217190    !..q    BIC      r1,r1,#0x120
        0x0800688c:    e8421300    B...    STREX    r3,r1,[r2]
        0x08006890:    2b00        .+      CMP      r3,#0
        0x08006892:    d1f5        ..      BNE      UART_EndRxTransfer ; 0x8006880
        0x08006894:    f64f7cfe    O..|    MOV      r12,#0xfffe
        0x08006898:    f6ce7cff    ...|    MOVT     r12,#0xefff
        0x0800689c:    6802        .h      LDR      r2,[r0,#0]
        0x0800689e:    e8522f02    R../    LDREX    r2,[r2,#8]
        0x080068a2:    6803        .h      LDR      r3,[r0,#0]
        0x080068a4:    ea02020c    ....    AND      r2,r2,r12
        0x080068a8:    e8432102    C..!    STREX    r1,r2,[r3,#8]
        0x080068ac:    2900        .)      CMP      r1,#0
        0x080068ae:    d1f5        ..      BNE      0x800689c ; UART_EndRxTransfer + 28
        0x080068b0:    6ec1        .n      LDR      r1,[r0,#0x6c]
        0x080068b2:    2901        .)      CMP      r1,#1
        0x080068b4:    d10a        ..      BNE      0x80068cc ; UART_EndRxTransfer + 76
        0x080068b6:    bf00        ..      NOP      
        0x080068b8:    6801        .h      LDR      r1,[r0,#0]
        0x080068ba:    e8511f00    Q...    LDREX    r1,[r1]
        0x080068be:    6802        .h      LDR      r2,[r0,#0]
        0x080068c0:    f0210110    !...    BIC      r1,r1,#0x10
        0x080068c4:    e8421300    B...    STREX    r3,r1,[r2]
        0x080068c8:    2b00        .+      CMP      r3,#0
        0x080068ca:    d1f5        ..      BNE      0x80068b8 ; UART_EndRxTransfer + 56
        0x080068cc:    2120         !      MOVS     r1,#0x20
        0x080068ce:    f8c0108c    ....    STR      r1,[r0,#0x8c]
        0x080068d2:    2100        .!      MOVS     r1,#0
        0x080068d4:    66c1        .f      STR      r1,[r0,#0x6c]
        0x080068d6:    6741        Ag      STR      r1,[r0,#0x74]
        0x080068d8:    4770        pG      BX       lr
        0x080068da:    0000        ..      MOVS     r0,r0
        0x080068dc:    0000        ..      MOVS     r0,r0
        0x080068de:    0000        ..      MOVS     r0,r0
    UART_SetConfig
        0x080068e0:    b5f0        ..      PUSH     {r4-r7,lr}
        0x080068e2:    b083        ..      SUB      sp,sp,#0xc
        0x080068e4:    f64b4121    K.!A    MOV      r1,#0xbc21
        0x080068e8:    4604        .F      MOV      r4,r0
        0x080068ea:    6840        @h      LDR      r0,[r0,#4]
        0x080068ec:    f2c001be    ....    MOVT     r1,#0xbe
        0x080068f0:    4288        .B      CMP      r0,r1
        0x080068f2:    d307        ..      BCC      0x8006904 ; UART_SetConfig + 36
        0x080068f4:    f647608a    G..`    MOV      r0,#0x7e8a
        0x080068f8:    f64031cc    @..1    MOV      r1,#0xbcc
        0x080068fc:    f6c00000    ....    MOVT     r0,#0x800
        0x08006900:    f000fbe2    ....    BL       assert_failed ; 0x80070c8
        0x08006904:    68a0        .h      LDR      r0,[r4,#8]
        0x08006906:    b130        0.      CBZ      r0,0x8006916 ; UART_SetConfig + 54
        0x08006908:    f5b05f80    ..._    CMP      r0,#0x1000
        0x0800690c:    bf18        ..      IT       NE
        0x0800690e:    f1b05f80    ..._    CMPNE    r0,#0x10000000
        0x08006912:    f040811b    @...    BNE.W    0x8006b4c ; UART_SetConfig + 620
        0x08006916:    f6404500    @..E    MOVW     r5,#0xc00
        0x0800691a:    6820         h      LDR      r0,[r4,#0]
        0x0800691c:    f6c50500    ....    MOVT     r5,#0x5800
        0x08006920:    42a8        .B      CMP      r0,r5
        0x08006922:    68e0        .h      LDR      r0,[r4,#0xc]
        0x08006924:    d016        ..      BEQ      0x8006954 ; UART_SetConfig + 116
        0x08006926:    ea4f3030    O.00    ROR      r0,r0,#12
        0x0800692a:    2804        .(      CMP      r0,#4
        0x0800692c:    d307        ..      BCC      0x800693e ; UART_SetConfig + 94
        0x0800692e:    f647608a    G..`    MOV      r0,#0x7e8a
        0x08006932:    f64031d4    @..1    MOV      r1,#0xbd4
        0x08006936:    f6c00000    ....    MOVT     r0,#0x800
        0x0800693a:    f000fbc5    ....    BL       assert_failed ; 0x80070c8
        0x0800693e:    6a20         j      LDR      r0,[r4,#0x20]
        0x08006940:    f4406000    @..`    ORR      r0,r0,#0x800
        0x08006944:    f5b06f00    ...o    CMP      r0,#0x800
        0x08006948:    d011        ..      BEQ      0x800696e ; UART_SetConfig + 142
        0x0800694a:    f647608a    G..`    MOV      r0,#0x7e8a
        0x0800694e:    f64031d5    @..1    MOV      r1,#0xbd5
        0x08006952:    e008        ..      B        0x8006966 ; UART_SetConfig + 134
        0x08006954:    f4405000    @..P    ORR      r0,r0,#0x2000
        0x08006958:    f5b05f00    ..._    CMP      r0,#0x2000
        0x0800695c:    d007        ..      BEQ      0x800696e ; UART_SetConfig + 142
        0x0800695e:    f647608a    G..`    MOV      r0,#0x7e8a
        0x08006962:    f44f613d    O.=a    MOV      r1,#0xbd0
        0x08006966:    f6c00000    ....    MOVT     r0,#0x800
        0x0800696a:    f000fbad    ....    BL       assert_failed ; 0x80070c8
        0x0800696e:    6920         i      LDR      r0,[r4,#0x10]
        0x08006970:    b130        0.      CBZ      r0,0x8006980 ; UART_SetConfig + 160
        0x08006972:    f5b06f80    ...o    CMP      r0,#0x400
        0x08006976:    bf18        ..      IT       NE
        0x08006978:    f5b06fc0    ...o    CMPNE    r0,#0x600
        0x0800697c:    f04080ef    @...    BNE.W    0x8006b5e ; UART_SetConfig + 638
        0x08006980:    6960        `i      LDR      r0,[r4,#0x14]
        0x08006982:    b110        ..      CBZ      r0,0x800698a ; UART_SetConfig + 170
        0x08006984:    f020000c     ...    BIC      r0,r0,#0xc
        0x08006988:    b138        8.      CBZ      r0,0x800699a ; UART_SetConfig + 186
        0x0800698a:    f647608a    G..`    MOV      r0,#0x7e8a
        0x0800698e:    f64031d9    @..1    MOV      r1,#0xbd9
        0x08006992:    f6c00000    ....    MOVT     r0,#0x800
        0x08006996:    f000fb97    ....    BL       assert_failed ; 0x80070c8
        0x0800699a:    69a0        .i      LDR      r0,[r4,#0x18]
        0x0800699c:    ea4f2030    O.0     ROR      r0,r0,#8
        0x080069a0:    2804        .(      CMP      r0,#4
        0x080069a2:    d307        ..      BCC      0x80069b4 ; UART_SetConfig + 212
        0x080069a4:    f647608a    G..`    MOV      r0,#0x7e8a
        0x080069a8:    f64031da    @..1    MOV      r1,#0xbda
        0x080069ac:    f6c00000    ....    MOVT     r0,#0x800
        0x080069b0:    f000fb8a    ....    BL       assert_failed ; 0x80070c8
        0x080069b4:    69e0        .i      LDR      r0,[r4,#0x1c]
        0x080069b6:    f4404000    @..@    ORR      r0,r0,#0x8000
        0x080069ba:    f5b04f00    ...O    CMP      r0,#0x8000
        0x080069be:    d007        ..      BEQ      0x80069d0 ; UART_SetConfig + 240
        0x080069c0:    f647608a    G..`    MOV      r0,#0x7e8a
        0x080069c4:    f64031db    @..1    MOV      r1,#0xbdb
        0x080069c8:    f6c00000    ....    MOVT     r0,#0x800
        0x080069cc:    f000fb7c    ..|.    BL       assert_failed ; 0x80070c8
        0x080069d0:    6a60        `j      LDR      r0,[r4,#0x24]
        0x080069d2:    280c        .(      CMP      r0,#0xc
        0x080069d4:    d307        ..      BCC      0x80069e6 ; UART_SetConfig + 262
        0x080069d6:    f647608a    G..`    MOV      r0,#0x7e8a
        0x080069da:    f64031dc    @..1    MOV      r1,#0xbdc
        0x080069de:    f6c00000    ....    MOVT     r0,#0x800
        0x080069e2:    f000fb71    ..q.    BL       assert_failed ; 0x80070c8
        0x080069e6:    6820         h      LDR      r0,[r4,#0]
        0x080069e8:    f64616f3    F...    MOV      r6,#0x69f3
        0x080069ec:    e9d41302    ....    LDRD     r1,r3,[r4,#8]
        0x080069f0:    6922        "i      LDR      r2,[r4,#0x10]
        0x080069f2:    f6cc76ff    ...v    MOVT     r6,#0xcfff
        0x080069f6:    4311        .C      ORRS     r1,r1,r2
        0x080069f8:    6962        bi      LDR      r2,[r4,#0x14]
        0x080069fa:    4311        .C      ORRS     r1,r1,r2
        0x080069fc:    69e2        .i      LDR      r2,[r4,#0x1c]
        0x080069fe:    6807        .h      LDR      r7,[r0,#0]
        0x08006a00:    4311        .C      ORRS     r1,r1,r2
        0x08006a02:    4037        7@      ANDS     r7,r7,r6
        0x08006a04:    42a8        .B      CMP      r0,r5
        0x08006a06:    ea410107    A...    ORR      r1,r1,r7
        0x08006a0a:    6001        .`      STR      r1,[r0,#0]
        0x08006a0c:    6841        Ah      LDR      r1,[r0,#4]
        0x08006a0e:    f24f47ff    O..G    MOV      r7,#0xf4ff
        0x08006a12:    f4215140    !.@Q    BIC      r1,r1,#0x3000
        0x08006a16:    f2c117ff    ....    MOVT     r7,#0x11ff
        0x08006a1a:    ea410103    A...    ORR      r1,r1,r3
        0x08006a1e:    6041        A`      STR      r1,[r0,#4]
        0x08006a20:    69a1        .i      LDR      r1,[r4,#0x18]
        0x08006a22:    f24776ff    G..v    MOV      r6,#0x77ff
        0x08006a26:    bf1c        ..      ITT      NE
        0x08006a28:    6a23        #j      LDRNE    r3,[r4,#0x20]
        0x08006a2a:    4319        .C      ORRNE    r1,r1,r3
        0x08006a2c:    6883        .h      LDR      r3,[r0,#8]
        0x08006a2e:    f2c40600    ....    MOVT     r6,#0x4000
        0x08006a32:    403b        ;@      ANDS     r3,r3,r7
        0x08006a34:    42b0        .B      CMP      r0,r6
        0x08006a36:    ea410103    A...    ORR      r1,r1,r3
        0x08006a3a:    6081        .`      STR      r1,[r0,#8]
        0x08006a3c:    6ac3        .j      LDR      r3,[r0,#0x2c]
        0x08006a3e:    f2444154    D.TA    MOV      r1,#0x4454
        0x08006a42:    f023030f    #...    BIC      r3,r3,#0xf
        0x08006a46:    6a67        gj      LDR      r7,[r4,#0x24]
        0x08006a48:    f6c50102    ....    MOVT     r1,#0x5802
        0x08006a4c:    ea430307    C...    ORR      r3,r3,r7
        0x08006a50:    62c3        .b      STR      r3,[r0,#0x2c]
        0x08006a52:    f04f0380    O...    MOV      r3,#0x80
        0x08006a56:    dd25        %.      BLE      0x8006aa4 ; UART_SetConfig + 452
        0x08006a58:    f64077ff    @..w    MOV      r7,#0xfff
        0x08006a5c:    f2c40701    ....    MOVT     r7,#0x4001
        0x08006a60:    42b8        .B      CMP      r0,r7
        0x08006a62:    dd3f        ?.      BLE      0x8006ae4 ; UART_SetConfig + 516
        0x08006a64:    42a8        .B      CMP      r0,r5
        0x08006a66:    f0008083    ....    BEQ.W    0x8006b70 ; UART_SetConfig + 656
        0x08006a6a:    f2414700    A..G    MOVW     r7,#0x1400
        0x08006a6e:    f2c40701    ....    MOVT     r7,#0x4001
        0x08006a72:    42b8        .B      CMP      r0,r7
        0x08006a74:    f0008087    ....    BEQ.W    0x8006b86 ; UART_SetConfig + 678
        0x08006a78:    f2410700    A...    MOVW     r7,#0x1000
        0x08006a7c:    f2c40701    ....    MOVT     r7,#0x4001
        0x08006a80:    42b8        .B      CMP      r0,r7
        0x08006a82:    f04080b7    @...    BNE.W    0x8006bf4 ; UART_SetConfig + 788
        0x08006a86:    680b        .h      LDR      r3,[r1,#0]
        0x08006a88:    f3c307c2    ....    UBFX     r7,r3,#3,#3
        0x08006a8c:    2f05        ./      CMP      r7,#5
        0x08006a8e:    f20080a8    ....    BHI.W    0x8006be2 ; UART_SetConfig + 770
        0x08006a92:    2301        .#      MOVS     r3,#1
        0x08006a94:    e8dff017    ....    TBH      [pc,r7,LSL #1]
    $d.3
        0x08006a98:    00a300ae    ....    DCD    10682542
        0x08006a9c:    00a900a7    ....    DCD    11075751
        0x08006aa0:    00ad00ab    ....    DCD    11337899
    $t.4
        0x08006aa4:    f64437ff    D..7    MOV      r7,#0x4bff
        0x08006aa8:    f2c40700    ....    MOVT     r7,#0x4000
        0x08006aac:    42b8        .B      CMP      r0,r7
        0x08006aae:    dc33        3.      BGT      0x8006b18 ; UART_SetConfig + 568
        0x08006ab0:    f2444700    D..G    MOVW     r7,#0x4400
        0x08006ab4:    f2c40700    ....    MOVT     r7,#0x4000
        0x08006ab8:    42b8        .B      CMP      r0,r7
        0x08006aba:    f000806f    ..o.    BEQ.W    0x8006b9c ; UART_SetConfig + 700
        0x08006abe:    f6440700    D...    MOVW     r7,#0x4800
        0x08006ac2:    f2c40700    ....    MOVT     r7,#0x4000
        0x08006ac6:    42b8        .B      CMP      r0,r7
        0x08006ac8:    f0408094    @...    BNE.W    0x8006bf4 ; UART_SetConfig + 788
        0x08006acc:    680b        .h      LDR      r3,[r1,#0]
        0x08006ace:    f0030707    ....    AND      r7,r3,#7
        0x08006ad2:    2f05        ./      CMP      r7,#5
        0x08006ad4:    f2008085    ....    BHI.W    0x8006be2 ; UART_SetConfig + 770
        0x08006ad8:    2300        .#      MOVS     r3,#0
        0x08006ada:    e8dff007    ....    TBB      [pc,r7]
    $d.5
        0x08006ade:    808b        ..      DCW    32907
        0x08006ae0:    8a888684    ....    DCD    2324203140
    $t.6
        0x08006ae4:    f6470700    G...    MOVW     r7,#0x7800
        0x08006ae8:    f2c40700    ....    MOVT     r7,#0x4000
        0x08006aec:    42b8        .B      CMP      r0,r7
        0x08006aee:    f0008060    ..`.    BEQ.W    0x8006bb2 ; UART_SetConfig + 722
        0x08006af2:    f6474700    G..G    MOVW     r7,#0x7c00
        0x08006af6:    f2c40700    ....    MOVT     r7,#0x4000
        0x08006afa:    42b8        .B      CMP      r0,r7
        0x08006afc:    f040807a    @.z.    BNE.W    0x8006bf4 ; UART_SetConfig + 788
        0x08006b00:    680b        .h      LDR      r3,[r1,#0]
        0x08006b02:    f0030707    ....    AND      r7,r3,#7
        0x08006b06:    2f05        ./      CMP      r7,#5
        0x08006b08:    f200806b    ..k.    BHI.W    0x8006be2 ; UART_SetConfig + 770
        0x08006b0c:    2300        .#      MOVS     r3,#0
        0x08006b0e:    e8dff007    ....    TBB      [pc,r7]
    $d.7
        0x08006b12:    6671        qf      DCW    26225
        0x08006b14:    706e6c6a    jlnp    DCD    1886284906
    $t.8
        0x08006b18:    f6444700    D..G    MOVW     r7,#0x4c00
        0x08006b1c:    f2c40700    ....    MOVT     r7,#0x4000
        0x08006b20:    42b8        .B      CMP      r0,r7
        0x08006b22:    f0008051    ..Q.    BEQ.W    0x8006bc8 ; UART_SetConfig + 744
        0x08006b26:    f2450700    E...    MOVW     r7,#0x5000
        0x08006b2a:    f2c40700    ....    MOVT     r7,#0x4000
        0x08006b2e:    42b8        .B      CMP      r0,r7
        0x08006b30:    f0408060    @.`.    BNE.W    0x8006bf4 ; UART_SetConfig + 788
        0x08006b34:    680b        .h      LDR      r3,[r1,#0]
        0x08006b36:    f0030707    ....    AND      r7,r3,#7
        0x08006b3a:    2f05        ./      CMP      r7,#5
        0x08006b3c:    f2008051    ..Q.    BHI.W    0x8006be2 ; UART_SetConfig + 770
        0x08006b40:    2300        .#      MOVS     r3,#0
        0x08006b42:    e8dff007    ....    TBB      [pc,r7]
    $d.9
        0x08006b46:    4c57        WL      DCW    19543
        0x08006b48:    56545250    PRTV    DCD    1448366672
    $t.10
        0x08006b4c:    f647608a    G..`    MOV      r0,#0x7e8a
        0x08006b50:    f64031cd    @..1    MOV      r1,#0xbcd
        0x08006b54:    f6c00000    ....    MOVT     r0,#0x800
        0x08006b58:    f000fab6    ....    BL       assert_failed ; 0x80070c8
        0x08006b5c:    e6db        ..      B        0x8006916 ; UART_SetConfig + 54
        0x08006b5e:    f647608a    G..`    MOV      r0,#0x7e8a
        0x08006b62:    f64031d8    @..1    MOV      r1,#0xbd8
        0x08006b66:    f6c00000    ....    MOVT     r0,#0x800
        0x08006b6a:    f000faad    ....    BL       assert_failed ; 0x80070c8
        0x08006b6e:    e707        ..      B        0x8006980 ; UART_SetConfig + 160
        0x08006b70:    684b        Kh      LDR      r3,[r1,#4]
        0x08006b72:    f0030707    ....    AND      r7,r3,#7
        0x08006b76:    2f05        ./      CMP      r7,#5
        0x08006b78:    d833        3.      BHI      0x8006be2 ; UART_SetConfig + 770
        0x08006b7a:    2302        .#      MOVS     r3,#2
        0x08006b7c:    e8dff007    ....    TBB      [pc,r7]
    $d.11
        0x08006b80:    35332f3a    :/35    DCD    892546874
        0x08006b84:    3937        79      DCW    14647
    $t.12
        0x08006b86:    680b        .h      LDR      r3,[r1,#0]
        0x08006b88:    f3c307c2    ....    UBFX     r7,r3,#3,#3
        0x08006b8c:    2f05        ./      CMP      r7,#5
        0x08006b8e:    d828        (.      BHI      0x8006be2 ; UART_SetConfig + 770
        0x08006b90:    2301        .#      MOVS     r3,#1
        0x08006b92:    e8dff007    ....    TBB      [pc,r7]
    $d.13
        0x08006b96:    242f        /$      DCW    9263
        0x08006b98:    2e2c2a28    (*,.    DCD    774646312
    $t.14
        0x08006b9c:    680b        .h      LDR      r3,[r1,#0]
        0x08006b9e:    f0030707    ....    AND      r7,r3,#7
        0x08006ba2:    2f05        ./      CMP      r7,#5
        0x08006ba4:    d81d        ..      BHI      0x8006be2 ; UART_SetConfig + 770
        0x08006ba6:    2300        .#      MOVS     r3,#0
        0x08006ba8:    e8dff007    ....    TBB      [pc,r7]
    $d.15
        0x08006bac:    1f1d1924    $...    DCD    522000676
        0x08006bb0:    2321        !#      DCW    8993
    $t.16
        0x08006bb2:    680b        .h      LDR      r3,[r1,#0]
        0x08006bb4:    f0030707    ....    AND      r7,r3,#7
        0x08006bb8:    2f05        ./      CMP      r7,#5
        0x08006bba:    d812        ..      BHI      0x8006be2 ; UART_SetConfig + 770
        0x08006bbc:    2300        .#      MOVS     r3,#0
        0x08006bbe:    e8dff007    ....    TBB      [pc,r7]
    $d.17
        0x08006bc2:    0e19        ..      DCW    3609
        0x08006bc4:    18161412    ....    DCD    404100114
    $t.18
        0x08006bc8:    680b        .h      LDR      r3,[r1,#0]
        0x08006bca:    f0030707    ....    AND      r7,r3,#7
        0x08006bce:    2f05        ./      CMP      r7,#5
        0x08006bd0:    d807        ..      BHI      0x8006be2 ; UART_SetConfig + 770
        0x08006bd2:    2300        .#      MOVS     r3,#0
        0x08006bd4:    e8dff007    ....    TBB      [pc,r7]
    $d.19
        0x08006bd8:    0907030e    ....    DCD    151454478
        0x08006bdc:    0d0b        ..      DCW    3339
    $t.20
        0x08006bde:    2304        .#      MOVS     r3,#4
        0x08006be0:    e008        ..      B        0x8006bf4 ; UART_SetConfig + 788
        0x08006be2:    2380        .#      MOVS     r3,#0x80
        0x08006be4:    e006        ..      B        0x8006bf4 ; UART_SetConfig + 788
        0x08006be6:    2308        .#      MOVS     r3,#8
        0x08006be8:    e004        ..      B        0x8006bf4 ; UART_SetConfig + 788
        0x08006bea:    2310        .#      MOVS     r3,#0x10
        0x08006bec:    e002        ..      B        0x8006bf4 ; UART_SetConfig + 788
        0x08006bee:    2320         #      MOVS     r3,#0x20
        0x08006bf0:    e000        ..      B        0x8006bf4 ; UART_SetConfig + 788
        0x08006bf2:    2340        @#      MOVS     r3,#0x40
        0x08006bf4:    42a8        .B      CMP      r0,r5
        0x08006bf6:    f6401000    @...    MOVW     r0,#0x900
        0x08006bfa:    f2c0003d    ..=.    MOVT     r0,#0x3d
        0x08006bfe:    f0008052    ..R.    BEQ.W    0x8006ca6 ; UART_SetConfig + 966
        0x08006c02:    f5b24f00    ...O    CMP      r2,#0x8000
        0x08006c06:    f0408078    @.x.    BNE.W    0x8006cfa ; UART_SetConfig + 1050
        0x08006c0a:    2b40        @+      CMP      r3,#0x40
        0x08006c0c:    f200811a    ....    BHI.W    0x8006e44 ; UART_SetConfig + 1380
        0x08006c10:    2500        .%      MOVS     r5,#0
        0x08006c12:    e8dff013    ....    TBH      [pc,r3,LSL #1]
    $d.21
        0x08006c16:    0041        A.      DCW    65
        0x08006c18:    01170112    ....    DCD    18284818
        0x08006c1c:    011b0117    ....    DCD    18546967
        0x08006c20:    01170117    ....    DCD    18284823
        0x08006c24:    011f0117    ....    DCD    18809111
        0x08006c28:    01170117    ....    DCD    18284823
        0x08006c2c:    01170117    ....    DCD    18284823
        0x08006c30:    01170117    ....    DCD    18284823
        0x08006c34:    01260117    ..&.    DCD    19267863
        0x08006c38:    01170117    ....    DCD    18284823
        0x08006c3c:    01170117    ....    DCD    18284823
        0x08006c40:    01170117    ....    DCD    18284823
        0x08006c44:    01170117    ....    DCD    18284823
        0x08006c48:    01170117    ....    DCD    18284823
        0x08006c4c:    01170117    ....    DCD    18284823
        0x08006c50:    01170117    ....    DCD    18284823
        0x08006c54:    01340117    ..4.    DCD    20185367
        0x08006c58:    01170117    ....    DCD    18284823
        0x08006c5c:    01170117    ....    DCD    18284823
        0x08006c60:    01170117    ....    DCD    18284823
        0x08006c64:    01170117    ....    DCD    18284823
        0x08006c68:    01170117    ....    DCD    18284823
        0x08006c6c:    01170117    ....    DCD    18284823
        0x08006c70:    01170117    ....    DCD    18284823
        0x08006c74:    01170117    ....    DCD    18284823
        0x08006c78:    01170117    ....    DCD    18284823
        0x08006c7c:    01170117    ....    DCD    18284823
        0x08006c80:    01170117    ....    DCD    18284823
        0x08006c84:    01170117    ....    DCD    18284823
        0x08006c88:    01170117    ....    DCD    18284823
        0x08006c8c:    01170117    ....    DCD    18284823
        0x08006c90:    01170117    ....    DCD    18284823
        0x08006c94:    01310117    ..1.    DCD    19988759
    $t.22
        0x08006c98:    2500        .%      MOVS     r5,#0
        0x08006c9a:    f7fdf905    ....    BL       HAL_RCC_GetPCLK1Freq ; 0x8003ea8
        0x08006c9e:    2800        .(      CMP      r0,#0
        0x08006ca0:    f04080ef    @...    BNE.W    0x8006e82 ; UART_SetConfig + 1442
        0x08006ca4:    e149        I.      B        0x8006f3a ; UART_SetConfig + 1626
        0x08006ca6:    1e9a        ..      SUBS     r2,r3,#2
        0x08006ca8:    2a1e        .*      CMP      r2,#0x1e
        0x08006caa:    f2008074    ..t.    BHI.W    0x8006d96 ; UART_SetConfig + 1206
        0x08006cae:    2700        .'      MOVS     r7,#0
        0x08006cb0:    e8dff012    ....    TBH      [pc,r2,LSL #1]
    $d.23
        0x08006cb4:    0077001f    ..w.    DCD    7798815
        0x08006cb8:    0077007a    z.w.    DCD    7798906
        0x08006cbc:    00770077    w.w.    DCD    7798903
        0x08006cc0:    0077007e    ~.w.    DCD    7798910
        0x08006cc4:    00770077    w.w.    DCD    7798903
        0x08006cc8:    00770077    w.w.    DCD    7798903
        0x08006ccc:    00770077    w.w.    DCD    7798903
        0x08006cd0:    007700b8    ..w.    DCD    7798968
        0x08006cd4:    00770077    w.w.    DCD    7798903
        0x08006cd8:    00770077    w.w.    DCD    7798903
        0x08006cdc:    00770077    w.w.    DCD    7798903
        0x08006ce0:    00770077    w.w.    DCD    7798903
        0x08006ce4:    00770077    w.w.    DCD    7798903
        0x08006ce8:    00770077    w.w.    DCD    7798903
        0x08006cec:    00770077    w.w.    DCD    7798903
        0x08006cf0:    0083        ..      DCW    131
    $t.24
        0x08006cf2:    2700        .'      MOVS     r7,#0
        0x08006cf4:    f7fbfb5c    ..\.    BL       HAL_RCCEx_GetD3PCLK1Freq ; 0x80023b0
        0x08006cf8:    e05f        _.      B        0x8006dba ; UART_SetConfig + 1242
        0x08006cfa:    2b40        @+      CMP      r3,#0x40
        0x08006cfc:    f20080e6    ....    BHI.W    0x8006ecc ; UART_SetConfig + 1516
        0x08006d00:    2500        .%      MOVS     r5,#0
        0x08006d02:    e8dff013    ....    TBH      [pc,r3,LSL #1]
    $d.25
        0x08006d06:    0041        A.      DCW    65
        0x08006d08:    00e300de    ....    DCD    14876894
        0x08006d0c:    00e700e3    ....    DCD    15139043
        0x08006d10:    00e300e3    ....    DCD    14876899
        0x08006d14:    00eb00e3    ....    DCD    15401187
        0x08006d18:    00e300e3    ....    DCD    14876899
        0x08006d1c:    00e300e3    ....    DCD    14876899
        0x08006d20:    00e300e3    ....    DCD    14876899
        0x08006d24:    00f200e3    ....    DCD    15859939
        0x08006d28:    00e300e3    ....    DCD    14876899
        0x08006d2c:    00e300e3    ....    DCD    14876899
        0x08006d30:    00e300e3    ....    DCD    14876899
        0x08006d34:    00e300e3    ....    DCD    14876899
        0x08006d38:    00e300e3    ....    DCD    14876899
        0x08006d3c:    00e300e3    ....    DCD    14876899
        0x08006d40:    00e300e3    ....    DCD    14876899
        0x08006d44:    010000e3    ....    DCD    16777443
        0x08006d48:    00e300e3    ....    DCD    14876899
        0x08006d4c:    00e300e3    ....    DCD    14876899
        0x08006d50:    00e300e3    ....    DCD    14876899
        0x08006d54:    00e300e3    ....    DCD    14876899
        0x08006d58:    00e300e3    ....    DCD    14876899
        0x08006d5c:    00e300e3    ....    DCD    14876899
        0x08006d60:    00e300e3    ....    DCD    14876899
        0x08006d64:    00e300e3    ....    DCD    14876899
        0x08006d68:    00e300e3    ....    DCD    14876899
        0x08006d6c:    00e300e3    ....    DCD    14876899
        0x08006d70:    00e300e3    ....    DCD    14876899
        0x08006d74:    00e300e3    ....    DCD    14876899
        0x08006d78:    00e300e3    ....    DCD    14876899
        0x08006d7c:    00e300e3    ....    DCD    14876899
        0x08006d80:    00e300e3    ....    DCD    14876899
        0x08006d84:    00fd00e3    ....    DCD    16580835
    $t.26
        0x08006d88:    2500        .%      MOVS     r5,#0
        0x08006d8a:    f7fdf88d    ....    BL       HAL_RCC_GetPCLK1Freq ; 0x8003ea8
        0x08006d8e:    2800        .(      CMP      r0,#0
        0x08006d90:    f04080ba    @...    BNE.W    0x8006f08 ; UART_SetConfig + 1576
        0x08006d94:    e0d1        ..      B        0x8006f3a ; UART_SetConfig + 1626
        0x08006d96:    2b40        @+      CMP      r3,#0x40
        0x08006d98:    d103        ..      BNE      0x8006da2 ; UART_SetConfig + 1218
        0x08006d9a:    f44f4000    O..@    MOV      r0,#0x8000
        0x08006d9e:    2700        .'      MOVS     r7,#0
        0x08006da0:    e00b        ..      B        0x8006dba ; UART_SetConfig + 1242
        0x08006da2:    2000        .       MOVS     r0,#0
        0x08006da4:    2701        .'      MOVS     r7,#1
        0x08006da6:    e008        ..      B        0x8006dba ; UART_SetConfig + 1242
        0x08006da8:    4668        hF      MOV      r0,sp
        0x08006daa:    f7fbfba9    ....    BL       HAL_RCCEx_GetPLL2ClockFreq ; 0x8002500
        0x08006dae:    e002        ..      B        0x8006db6 ; UART_SetConfig + 1238
        0x08006db0:    4668        hF      MOV      r0,sp
        0x08006db2:    f7fbfc39    ..9.    BL       HAL_RCCEx_GetPLL3ClockFreq ; 0x8002628
        0x08006db6:    2700        .'      MOVS     r7,#0
        0x08006db8:    9801        ..      LDR      r0,[sp,#4]
        0x08006dba:    b378        x.      CBZ      r0,0x8006e1c ; UART_SetConfig + 1340
        0x08006dbc:    6a61        aj      LDR      r1,[r4,#0x24]
        0x08006dbe:    f647421e    G..B    MOV      r2,#0x7c1e
        0x08006dc2:    f6c00200    ....    MOVT     r2,#0x800
        0x08006dc6:    6866        fh      LDR      r6,[r4,#4]
        0x08006dc8:    2501        .%      MOVS     r5,#1
        0x08006dca:    f8322011    2..     LDRH     r2,[r2,r1,LSL #1]
        0x08006dce:    eb060346    ..F.    ADD      r3,r6,r6,LSL #1
        0x08006dd2:    fbb0f1f2    ....    UDIV     r1,r0,r2
        0x08006dd6:    4299        .B      CMP      r1,r3
        0x08006dd8:    f0c080af    ....    BCC.W    0x8006f3a ; UART_SetConfig + 1626
        0x08006ddc:    0333        3.      LSLS     r3,r6,#12
        0x08006dde:    4299        .B      CMP      r1,r3
        0x08006de0:    f20080ab    ....    BHI.W    0x8006f3a ; UART_SetConfig + 1626
        0x08006de4:    2100        .!      MOVS     r1,#0
        0x08006de6:    2300        .#      MOVS     r3,#0
        0x08006de8:    f7f9fac7    ....    BL       __aeabi_uldivmod ; 0x800037a
        0x08006dec:    0209        ..      LSLS     r1,r1,#8
        0x08006dee:    2300        .#      MOVS     r3,#0
        0x08006df0:    ea416110    A..a    ORR      r1,r1,r0,LSR #24
        0x08006df4:    4632        2F      MOV      r2,r6
        0x08006df6:    0200        ..      LSLS     r0,r0,#8
        0x08006df8:    eb100056    ..V.    ADDS     r0,r0,r6,LSR #1
        0x08006dfc:    f1410100    A...    ADC      r1,r1,#0
        0x08006e00:    f7f9fabb    ....    BL       __aeabi_uldivmod ; 0x800037a
        0x08006e04:    f64f42ff    O..B    MOV      r2,#0xfcff
        0x08006e08:    f5a07140    ..@q    SUB      r1,r0,#0x300
        0x08006e0c:    f2c0020f    ....    MOVT     r2,#0xf
        0x08006e10:    4291        .B      CMP      r1,r2
        0x08006e12:    d805        ..      BHI      0x8006e20 ; UART_SetConfig + 1344
        0x08006e14:    6821        !h      LDR      r1,[r4,#0]
        0x08006e16:    463d        =F      MOV      r5,r7
        0x08006e18:    60c8        .`      STR      r0,[r1,#0xc]
        0x08006e1a:    e08e        ..      B        0x8006f3a ; UART_SetConfig + 1626
        0x08006e1c:    463d        =F      MOV      r5,r7
        0x08006e1e:    e08c        ..      B        0x8006f3a ; UART_SetConfig + 1626
        0x08006e20:    2501        .%      MOVS     r5,#1
        0x08006e22:    e08a        ..      B        0x8006f3a ; UART_SetConfig + 1626
        0x08006e24:    f8510c54    Q.T.    LDR      r0,[r1,#-0x54]
        0x08006e28:    0680        ..      LSLS     r0,r0,#26
        0x08006e2a:    f2490000    I...    MOVW     r0,#0x9000
        0x08006e2e:    f2c030d0    ...0    MOVT     r0,#0x3d0
        0x08006e32:    f100808b    ....    BMI.W    0x8006f4c ; UART_SetConfig + 1644
        0x08006e36:    2700        .'      MOVS     r7,#0
        0x08006e38:    e7bf        ..      B        0x8006dba ; UART_SetConfig + 1242
        0x08006e3a:    2500        .%      MOVS     r5,#0
        0x08006e3c:    f7fdf848    ..H.    BL       HAL_RCC_GetPCLK2Freq ; 0x8003ed0
        0x08006e40:    b9f8        ..      CBNZ     r0,0x8006e82 ; UART_SetConfig + 1442
        0x08006e42:    e07a        z.      B        0x8006f3a ; UART_SetConfig + 1626
        0x08006e44:    2000        .       MOVS     r0,#0
        0x08006e46:    2501        .%      MOVS     r5,#1
        0x08006e48:    b9d8        ..      CBNZ     r0,0x8006e82 ; UART_SetConfig + 1442
        0x08006e4a:    e076        v.      B        0x8006f3a ; UART_SetConfig + 1626
        0x08006e4c:    4668        hF      MOV      r0,sp
        0x08006e4e:    f7fbfb57    ..W.    BL       HAL_RCCEx_GetPLL2ClockFreq ; 0x8002500
        0x08006e52:    e002        ..      B        0x8006e5a ; UART_SetConfig + 1402
        0x08006e54:    4668        hF      MOV      r0,sp
        0x08006e56:    f7fbfbe7    ....    BL       HAL_RCCEx_GetPLL3ClockFreq ; 0x8002628
        0x08006e5a:    2500        .%      MOVS     r5,#0
        0x08006e5c:    9801        ..      LDR      r0,[sp,#4]
        0x08006e5e:    b980        ..      CBNZ     r0,0x8006e82 ; UART_SetConfig + 1442
        0x08006e60:    e06b        k.      B        0x8006f3a ; UART_SetConfig + 1626
        0x08006e62:    f8510c54    Q.T.    LDR      r0,[r1,#-0x54]
        0x08006e66:    0680        ..      LSLS     r0,r0,#26
        0x08006e68:    f2490000    I...    MOVW     r0,#0x9000
        0x08006e6c:    f2c030d0    ...0    MOVT     r0,#0x3d0
        0x08006e70:    d473        s.      BMI      0x8006f5a ; UART_SetConfig + 1658
        0x08006e72:    2500        .%      MOVS     r5,#0
        0x08006e74:    b928        (.      CBNZ     r0,0x8006e82 ; UART_SetConfig + 1442
        0x08006e76:    e060        `.      B        0x8006f3a ; UART_SetConfig + 1626
        0x08006e78:    f44f4000    O..@    MOV      r0,#0x8000
        0x08006e7c:    2500        .%      MOVS     r5,#0
        0x08006e7e:    2800        .(      CMP      r0,#0
        0x08006e80:    d05b        [.      BEQ      0x8006f3a ; UART_SetConfig + 1626
        0x08006e82:    6a61        aj      LDR      r1,[r4,#0x24]
        0x08006e84:    f647421e    G..B    MOV      r2,#0x7c1e
        0x08006e88:    f6c00200    ....    MOVT     r2,#0x800
        0x08006e8c:    f8321011    2...    LDRH     r1,[r2,r1,LSL #1]
        0x08006e90:    6862        bh      LDR      r2,[r4,#4]
        0x08006e92:    fbb0f0f1    ....    UDIV     r0,r0,r1
        0x08006e96:    0851        Q.      LSRS     r1,r2,#1
        0x08006e98:    eb010040    ..@.    ADD      r0,r1,r0,LSL #1
        0x08006e9c:    fbb0f0f2    ....    UDIV     r0,r0,r2
        0x08006ea0:    f1a00110    ....    SUB      r1,r0,#0x10
        0x08006ea4:    f64f72ef    O..r    MOV      r2,#0xffef
        0x08006ea8:    4291        .B      CMP      r1,r2
        0x08006eaa:    d808        ..      BHI      0x8006ebe ; UART_SetConfig + 1502
        0x08006eac:    f64f71f0    O..q    MOV      r1,#0xfff0
        0x08006eb0:    6822        "h      LDR      r2,[r4,#0]
        0x08006eb2:    4001        .@      ANDS     r1,r1,r0
        0x08006eb4:    f3c00042    ..B.    UBFX     r0,r0,#1,#3
        0x08006eb8:    4408        .D      ADD      r0,r0,r1
        0x08006eba:    60d0        .`      STR      r0,[r2,#0xc]
        0x08006ebc:    e03d        =.      B        0x8006f3a ; UART_SetConfig + 1626
        0x08006ebe:    2501        .%      MOVS     r5,#1
        0x08006ec0:    e03b        ;.      B        0x8006f3a ; UART_SetConfig + 1626
        0x08006ec2:    2500        .%      MOVS     r5,#0
        0x08006ec4:    f7fdf804    ....    BL       HAL_RCC_GetPCLK2Freq ; 0x8003ed0
        0x08006ec8:    b9f0        ..      CBNZ     r0,0x8006f08 ; UART_SetConfig + 1576
        0x08006eca:    e036        6.      B        0x8006f3a ; UART_SetConfig + 1626
        0x08006ecc:    2000        .       MOVS     r0,#0
        0x08006ece:    2501        .%      MOVS     r5,#1
        0x08006ed0:    b9d0        ..      CBNZ     r0,0x8006f08 ; UART_SetConfig + 1576
        0x08006ed2:    e032        2.      B        0x8006f3a ; UART_SetConfig + 1626
        0x08006ed4:    4668        hF      MOV      r0,sp
        0x08006ed6:    f7fbfb13    ....    BL       HAL_RCCEx_GetPLL2ClockFreq ; 0x8002500
        0x08006eda:    e002        ..      B        0x8006ee2 ; UART_SetConfig + 1538
        0x08006edc:    4668        hF      MOV      r0,sp
        0x08006ede:    f7fbfba3    ....    BL       HAL_RCCEx_GetPLL3ClockFreq ; 0x8002628
        0x08006ee2:    2500        .%      MOVS     r5,#0
        0x08006ee4:    9801        ..      LDR      r0,[sp,#4]
        0x08006ee6:    b978        x.      CBNZ     r0,0x8006f08 ; UART_SetConfig + 1576
        0x08006ee8:    e027        '.      B        0x8006f3a ; UART_SetConfig + 1626
        0x08006eea:    f8510c54    Q.T.    LDR      r0,[r1,#-0x54]
        0x08006eee:    0680        ..      LSLS     r0,r0,#26
        0x08006ef0:    f2490000    I...    MOVW     r0,#0x9000
        0x08006ef4:    f2c030d0    ...0    MOVT     r0,#0x3d0
        0x08006ef8:    d439        9.      BMI      0x8006f6e ; UART_SetConfig + 1678
        0x08006efa:    2500        .%      MOVS     r5,#0
        0x08006efc:    b920         .      CBNZ     r0,0x8006f08 ; UART_SetConfig + 1576
        0x08006efe:    e01c        ..      B        0x8006f3a ; UART_SetConfig + 1626
        0x08006f00:    f44f4000    O..@    MOV      r0,#0x8000
        0x08006f04:    2500        .%      MOVS     r5,#0
        0x08006f06:    b1c0        ..      CBZ      r0,0x8006f3a ; UART_SetConfig + 1626
        0x08006f08:    6a61        aj      LDR      r1,[r4,#0x24]
        0x08006f0a:    f647421e    G..B    MOV      r2,#0x7c1e
        0x08006f0e:    f6c00200    ....    MOVT     r2,#0x800
        0x08006f12:    f8321011    2...    LDRH     r1,[r2,r1,LSL #1]
        0x08006f16:    6862        bh      LDR      r2,[r4,#4]
        0x08006f18:    fbb0f0f1    ....    UDIV     r0,r0,r1
        0x08006f1c:    eb000052    ..R.    ADD      r0,r0,r2,LSR #1
        0x08006f20:    fbb0f0f2    ....    UDIV     r0,r0,r2
        0x08006f24:    f1a00110    ....    SUB      r1,r0,#0x10
        0x08006f28:    f64f72ef    O..r    MOV      r2,#0xffef
        0x08006f2c:    4291        .B      CMP      r1,r2
        0x08006f2e:    d803        ..      BHI      0x8006f38 ; UART_SetConfig + 1624
        0x08006f30:    b280        ..      UXTH     r0,r0
        0x08006f32:    6821        !h      LDR      r1,[r4,#0]
        0x08006f34:    60c8        .`      STR      r0,[r1,#0xc]
        0x08006f36:    e000        ..      B        0x8006f3a ; UART_SetConfig + 1626
        0x08006f38:    2501        .%      MOVS     r5,#1
        0x08006f3a:    f04f1001    O...    MOV      r0,#0x10001
        0x08006f3e:    66a0        .f      STR      r0,[r4,#0x68]
        0x08006f40:    2000        .       MOVS     r0,#0
        0x08006f42:    e9c4001d    ....    STRD     r0,r0,[r4,#0x74]
        0x08006f46:    4628        (F      MOV      r0,r5
        0x08006f48:    b003        ..      ADD      sp,sp,#0xc
        0x08006f4a:    bdf0        ..      POP      {r4-r7,pc}
        0x08006f4c:    f8511c54    Q.T.    LDR      r1,[r1,#-0x54]
        0x08006f50:    2700        .'      MOVS     r7,#0
        0x08006f52:    f3c101c1    ....    UBFX     r1,r1,#3,#2
        0x08006f56:    40c8        .@      LSRS     r0,r0,r1
        0x08006f58:    e72f        /.      B        0x8006dba ; UART_SetConfig + 1242
        0x08006f5a:    f8511c54    Q.T.    LDR      r1,[r1,#-0x54]
        0x08006f5e:    2500        .%      MOVS     r5,#0
        0x08006f60:    f3c101c1    ....    UBFX     r1,r1,#3,#2
        0x08006f64:    40c8        .@      LSRS     r0,r0,r1
        0x08006f66:    2800        .(      CMP      r0,#0
        0x08006f68:    f47faf8b    ....    BNE.W    0x8006e82 ; UART_SetConfig + 1442
        0x08006f6c:    e7e5        ..      B        0x8006f3a ; UART_SetConfig + 1626
        0x08006f6e:    f8511c54    Q.T.    LDR      r1,[r1,#-0x54]
        0x08006f72:    2500        .%      MOVS     r5,#0
        0x08006f74:    f3c101c1    ....    UBFX     r1,r1,#3,#2
        0x08006f78:    40c8        .@      LSRS     r0,r0,r1
        0x08006f7a:    2800        .(      CMP      r0,#0
        0x08006f7c:    d1c4        ..      BNE      0x8006f08 ; UART_SetConfig + 1576
        0x08006f7e:    e7dc        ..      B        0x8006f3a ; UART_SetConfig + 1626
    UART_WaitOnFlagUntilTimeout
        0x08006f80:    e92d43f0    -..C    PUSH     {r4-r9,lr}
        0x08006f84:    b081        ..      SUB      sp,sp,#4
        0x08006f86:    4604        .F      MOV      r4,r0
        0x08006f88:    6800        .h      LDR      r0,[r0,#0]
        0x08006f8a:    69c0        .i      LDR      r0,[r0,#0x1c]
        0x08006f8c:    4008        .@      ANDS     r0,r0,r1
        0x08006f8e:    1a40        @.      SUBS     r0,r0,r1
        0x08006f90:    fab0f080    ....    CLZ      r0,r0
        0x08006f94:    0940        @.      LSRS     r0,r0,#5
        0x08006f96:    4290        .B      CMP      r0,r2
        0x08006f98:    d139        9.      BNE      0x800700e ; UART_WaitOnFlagUntilTimeout + 142
        0x08006f9a:    f8dd8020    .. .    LDR      r8,[sp,#0x20]
        0x08006f9e:    460d        .F      MOV      r5,r1
        0x08006fa0:    4616        .F      MOV      r6,r2
        0x08006fa2:    4699        .F      MOV      r9,r3
        0x08006fa4:    f1080701    ....    ADD      r7,r8,#1
        0x08006fa8:    e009        ..      B        0x8006fbe ; UART_WaitOnFlagUntilTimeout + 62
        0x08006faa:    bf00        ..      NOP      
        0x08006fac:    6820         h      LDR      r0,[r4,#0]
        0x08006fae:    69c0        .i      LDR      r0,[r0,#0x1c]
        0x08006fb0:    4028        (@      ANDS     r0,r0,r5
        0x08006fb2:    1b40        @.      SUBS     r0,r0,r5
        0x08006fb4:    fab0f080    ....    CLZ      r0,r0
        0x08006fb8:    0940        @.      LSRS     r0,r0,#5
        0x08006fba:    42b0        .B      CMP      r0,r6
        0x08006fbc:    d12b        +.      BNE      0x8007016 ; UART_WaitOnFlagUntilTimeout + 150
        0x08006fbe:    2f00        ./      CMP      r7,#0
        0x08006fc0:    d0f4        ..      BEQ      0x8006fac ; UART_WaitOnFlagUntilTimeout + 44
        0x08006fc2:    f7fbf8f9    ....    BL       HAL_GetTick ; 0x80021b8
        0x08006fc6:    f1b80f00    ....    CMP      r8,#0
        0x08006fca:    4601        .F      MOV      r1,r0
        0x08006fcc:    f04f0003    O...    MOV      r0,#3
        0x08006fd0:    d022        ".      BEQ      0x8007018 ; UART_WaitOnFlagUntilTimeout + 152
        0x08006fd2:    eba10109    ....    SUB      r1,r1,r9
        0x08006fd6:    4541        AE      CMP      r1,r8
        0x08006fd8:    d81e        ..      BHI      0x8007018 ; UART_WaitOnFlagUntilTimeout + 152
        0x08006fda:    6820         h      LDR      r0,[r4,#0]
        0x08006fdc:    6801        .h      LDR      r1,[r0,#0]
        0x08006fde:    0749        I.      LSLS     r1,r1,#29
        0x08006fe0:    d5e4        ..      BPL      0x8006fac ; UART_WaitOnFlagUntilTimeout + 44
        0x08006fe2:    69c1        .i      LDR      r1,[r0,#0x1c]
        0x08006fe4:    0709        ..      LSLS     r1,r1,#28
        0x08006fe6:    d41a        ..      BMI      0x800701e ; UART_WaitOnFlagUntilTimeout + 158
        0x08006fe8:    69c1        .i      LDR      r1,[r0,#0x1c]
        0x08006fea:    0509        ..      LSLS     r1,r1,#20
        0x08006fec:    d5de        ..      BPL      0x8006fac ; UART_WaitOnFlagUntilTimeout + 44
        0x08006fee:    f44f6100    O..a    MOV      r1,#0x800
        0x08006ff2:    6201        .b      STR      r1,[r0,#0x20]
        0x08006ff4:    4620         F      MOV      r0,r4
        0x08006ff6:    f7fffc43    ..C.    BL       UART_EndRxTransfer ; 0x8006880
        0x08006ffa:    2020                MOVS     r0,#0x20
        0x08006ffc:    f8c40090    ....    STR      r0,[r4,#0x90]
        0x08007000:    2000        .       MOVS     r0,#0
        0x08007002:    f8840084    ....    STRB     r0,[r4,#0x84]
        0x08007006:    2003        .       MOVS     r0,#3
        0x08007008:    b001        ..      ADD      sp,sp,#4
        0x0800700a:    e8bd83f0    ....    POP      {r4-r9,pc}
        0x0800700e:    2000        .       MOVS     r0,#0
        0x08007010:    b001        ..      ADD      sp,sp,#4
        0x08007012:    e8bd83f0    ....    POP      {r4-r9,pc}
        0x08007016:    2000        .       MOVS     r0,#0
        0x08007018:    b001        ..      ADD      sp,sp,#4
        0x0800701a:    e8bd83f0    ....    POP      {r4-r9,pc}
        0x0800701e:    2508        .%      MOVS     r5,#8
        0x08007020:    6205        .b      STR      r5,[r0,#0x20]
        0x08007022:    4620         F      MOV      r0,r4
        0x08007024:    f7fffc2c    ..,.    BL       UART_EndRxTransfer ; 0x8006880
        0x08007028:    f8c45090    ...P    STR      r5,[r4,#0x90]
        0x0800702c:    2000        .       MOVS     r0,#0
        0x0800702e:    f8840084    ....    STRB     r0,[r4,#0x84]
        0x08007032:    2001        .       MOVS     r0,#1
        0x08007034:    b001        ..      ADD      sp,sp,#4
        0x08007036:    e8bd83f0    ....    POP      {r4-r9,pc}
        0x0800703a:    0000        ..      MOVS     r0,r0
        0x0800703c:    0000        ..      MOVS     r0,r0
        0x0800703e:    0000        ..      MOVS     r0,r0
    UsageFault_Handler
        0x08007040:    e7fe        ..      B        UsageFault_Handler ; 0x8007040
        0x08007042:    0000        ..      MOVS     r0,r0
        0x08007044:    0000        ..      MOVS     r0,r0
        0x08007046:    0000        ..      MOVS     r0,r0
    __NVIC_EnableIRQ
        0x08007048:    2800        .(      CMP      r0,#0
        0x0800704a:    bf48        H.      IT       MI
        0x0800704c:    4770        pG      BXMI     lr
        0x0800704e:    f000011f    ....    AND      r1,r0,#0x1f
        0x08007052:    2201        ."      MOVS     r2,#1
        0x08007054:    fa02f101    ....    LSL      r1,r2,r1
        0x08007058:    f24e1200    N...    MOVW     r2,#0xe100
        0x0800705c:    0940        @.      LSRS     r0,r0,#5
        0x0800705e:    f2ce0200    ....    MOVT     r2,#0xe000
        0x08007062:    f8421020    B. .    STR      r1,[r2,r0,LSL #2]
        0x08007066:    4770        pG      BX       lr
    __NVIC_GetPriorityGrouping
        0x08007068:    f64e500c    N..P    MOV      r0,#0xed0c
        0x0800706c:    f2ce0000    ....    MOVT     r0,#0xe000
        0x08007070:    6800        .h      LDR      r0,[r0,#0]
        0x08007072:    f3c02002    ...     UBFX     r0,r0,#8,#3
        0x08007076:    4770        pG      BX       lr
    __NVIC_SetPriority
        0x08007078:    f64e5314    N..S    MOV      r3,#0xed14
        0x0800707c:    f000020f    ....    AND      r2,r0,#0xf
        0x08007080:    f2ce0300    ....    MOVT     r3,#0xe000
        0x08007084:    f1b03fff    ...?    CMP      r0,#0xffffffff
        0x08007088:    441a        .D      ADD      r2,r2,r3
        0x0800708a:    f1004360    ..`C    ADD      r3,r0,#0xe0000000
        0x0800708e:    bfc8        ..      IT       GT
        0x08007090:    f5034264    ..dB    ADDGT    r2,r3,#0xe400
        0x08007094:    0108        ..      LSLS     r0,r1,#4
        0x08007096:    7010        .p      STRB     r0,[r2,#0]
        0x08007098:    4770        pG      BX       lr
        0x0800709a:    0000        ..      MOVS     r0,r0
        0x0800709c:    0000        ..      MOVS     r0,r0
        0x0800709e:    0000        ..      MOVS     r0,r0
    __NVIC_SetPriorityGrouping
        0x080070a0:    f64e510c    N..Q    MOV      r1,#0xed0c
        0x080070a4:    f64f03ff    O...    MOV      r3,#0xf8ff
        0x080070a8:    f2ce0100    ....    MOVT     r1,#0xe000
        0x080070ac:    680a        .h      LDR      r2,[r1,#0]
        0x080070ae:    401a        .@      ANDS     r2,r2,r3
        0x080070b0:    f360220a    `.."    BFI      r2,r0,#8,#3
        0x080070b4:    f0426080    B..`    ORR      r0,r2,#0x4000000
        0x080070b8:    f04070fd    @..p    ORR      r0,r0,#0x1fa0000
        0x080070bc:    6008        .`      STR      r0,[r1,#0]
        0x080070be:    4770        pG      BX       lr
    _sys_exit
        0x080070c0:    4770        pG      BX       lr
        0x080070c2:    0000        ..      MOVS     r0,r0
        0x080070c4:    0000        ..      MOVS     r0,r0
        0x080070c6:    0000        ..      MOVS     r0,r0
    assert_failed
        0x080070c8:    4770        pG      BX       lr
        0x080070ca:    0000        ..      MOVS     r0,r0
        0x080070cc:    0000        ..      MOVS     r0,r0
        0x080070ce:    0000        ..      MOVS     r0,r0
    fputc
        0x080070d0:    b580        ..      PUSH     {r7,lr}
        0x080070d2:    b082        ..      SUB      sp,sp,#8
        0x080070d4:    9001        ..      STR      r0,[sp,#4]
        0x080070d6:    f2401084    @...    MOVW     r0,#0x184
        0x080070da:    f2c24000    ...@    MOVT     r0,#0x2400
        0x080070de:    a901        ..      ADD      r1,sp,#4
        0x080070e0:    2201        ."      MOVS     r2,#1
        0x080070e2:    230a        .#      MOVS     r3,#0xa
        0x080070e4:    f7fefad0    ....    BL       HAL_UART_Transmit ; 0x8005688
        0x080070e8:    9801        ..      LDR      r0,[sp,#4]
        0x080070ea:    b002        ..      ADD      sp,sp,#8
        0x080070ec:    bd80        ..      POP      {r7,pc}
        0x080070ee:    0000        ..      MOVS     r0,r0
    init
        0x080070f0:    b580        ..      PUSH     {r7,lr}
        0x080070f2:    f000fb39    ..9.    BL       key_init ; 0x8007768
        0x080070f6:    f000fa0f    ....    BL       key_demo_init ; 0x8007518
        0x080070fa:    f6400000    @...    MOVW     r0,#0x800
        0x080070fe:    2108        .!      MOVS     r1,#8
        0x08007100:    f6c50002    ....    MOVT     r0,#0x5802
        0x08007104:    2200        ."      MOVS     r2,#0
        0x08007106:    f7fbf82b    ..+.    BL       HAL_GPIO_WritePin ; 0x8002160
        0x0800710a:    f2401038    @.8.    MOVW     r0,#0x138
        0x0800710e:    f2c24000    ...@    MOVT     r0,#0x2400
        0x08007112:    f7fdfe75    ..u.    BL       HAL_TIM_Base_Start_IT ; 0x8004e00
        0x08007116:    f24000d4    @...    MOVW     r0,#0xd4
        0x0800711a:    2100        .!      MOVS     r1,#0
        0x0800711c:    f2c24000    ...@    MOVT     r0,#0x2400
        0x08007120:    f24072ff    @..r    MOV      r2,#0x7ff
        0x08007124:    f7f9fbf0    ....    BL       HAL_ADCEx_Calibration_Start ; 0x8000908
        0x08007128:    a001        ..      ADR      r0,{pc}+8 ; 0x8007130
        0x0800712a:    f7f9f99f    ....    BL       puts ; 0x800046c
        0x0800712e:    bd80        ..      POP      {r7,pc}
    $d.1
        0x08007130:    72617473    star    DCD    1918989427
        0x08007134:    00000074    t...    DCD    116
    $t.2
    key1_bounce
        0x08007138:    b580        ..      PUSH     {r7,lr}
        0x0800713a:    a002        ..      ADR      r0,{pc}+0xa ; 0x8007144
        0x0800713c:    f7f9f996    ....    BL       puts ; 0x800046c
        0x08007140:    bd80        ..      POP      {r7,pc}
        0x08007142:    bf00        ..      NOP      
    $d.3
        0x08007144:    fcbcb4b0    ....    DCD    4240225456
        0x08007148:    c6afb531    1...    DCD    3333403953
        0x0800714c:    000000f0    ....    DCD    240
    $t.4
    key1_click
        0x08007150:    b580        ..      PUSH     {r7,lr}
        0x08007152:    f2404058    @.X@    MOVW     r0,#0x458
        0x08007156:    2100        .!      MOVS     r1,#0
        0x08007158:    f2c24000    ...@    MOVT     r0,#0x2400
        0x0800715c:    f000fbc4    ....    BL       key_onclick_unregister ; 0x80078e8
        0x08007160:    a001        ..      ADR      r0,{pc}+8 ; 0x8007168
        0x08007162:    f7f9f983    ....    BL       puts ; 0x800046c
        0x08007166:    bd80        ..      POP      {r7,pc}
    $d.5
        0x08007168:    fcbcb4b0    ....    DCD    4240225456
        0x0800716c:    bba5b531    1...    DCD    3148199217
        0x08007170:    000000f7    ....    DCD    247
        0x08007174:    00000000    ....    DCD    0
    $t.6
    key1_dbclick
        0x08007178:    b580        ..      PUSH     {r7,lr}
        0x0800717a:    f2404058    @.X@    MOVW     r0,#0x458
        0x0800717e:    f24711d9    G...    MOV      r1,#0x71d9
        0x08007182:    f2c24000    ...@    MOVT     r0,#0x2400
        0x08007186:    f6c00100    ....    MOVT     r1,#0x800
        0x0800718a:    2200        ."      MOVS     r2,#0
        0x0800718c:    2301        .#      MOVS     r3,#1
        0x0800718e:    f000fb9f    ....    BL       key_onclick_register ; 0x80078d0
        0x08007192:    a002        ..      ADR      r0,{pc}+0xa ; 0x800719c
        0x08007194:    f7f9f96a    ..j.    BL       puts ; 0x800046c
        0x08007198:    bd80        ..      POP      {r7,pc}
        0x0800719a:    bf00        ..      NOP      
    $d.7
        0x0800719c:    fcbcb4b0    ....    DCD    4240225456
        0x080071a0:    bbabcb31    1...    DCD    3148598065
        0x080071a4:    000000f7    ....    DCD    247
    $t.9
    key1_lp
        0x080071a8:    b580        ..      PUSH     {r7,lr}
        0x080071aa:    a002        ..      ADR      r0,{pc}+0xa ; 0x80071b4
        0x080071ac:    f7f9f95e    ..^.    BL       puts ; 0x800046c
        0x080071b0:    bd80        ..      POP      {r7,pc}
        0x080071b2:    bf00        ..      NOP      
    $d.10
        0x080071b4:    fcbcb4b0    ....    DCD    4240225456
        0x080071b8:    b0a4b331    1...    DCD    2963583793
        0x080071bc:    000000b4    ....    DCD    180
    $t.0
    key1_press
        0x080071c0:    b580        ..      PUSH     {r7,lr}
        0x080071c2:    a002        ..      ADR      r0,{pc}+0xa ; 0x80071cc
        0x080071c4:    f7f9f952    ..R.    BL       puts ; 0x800046c
        0x080071c8:    bd80        ..      POP      {r7,pc}
        0x080071ca:    bf00        ..      NOP      
    $d.1
        0x080071cc:    fcbcb4b0    ....    DCD    4240225456
        0x080071d0:    cfb4b031    1...    DCD    3484725297
        0x080071d4:    000000c2    ....    DCD    194
    $t.8
    key3_click
        0x080071d8:    b580        ..      PUSH     {r7,lr}
        0x080071da:    f6400000    @...    MOVW     r0,#0x800
        0x080071de:    2108        .!      MOVS     r1,#8
        0x080071e0:    f6c50002    ....    MOVT     r0,#0x5802
        0x080071e4:    2201        ."      MOVS     r2,#1
        0x080071e6:    f7faffbb    ....    BL       HAL_GPIO_WritePin ; 0x8002160
        0x080071ea:    bd80        ..      POP      {r7,pc}
        0x080071ec:    0000        ..      MOVS     r0,r0
        0x080071ee:    0000        ..      MOVS     r0,r0
    key4_click
        0x080071f0:    b580        ..      PUSH     {r7,lr}
        0x080071f2:    f6400000    @...    MOVW     r0,#0x800
        0x080071f6:    2108        .!      MOVS     r1,#8
        0x080071f8:    f6c50002    ....    MOVT     r0,#0x5802
        0x080071fc:    2200        ."      MOVS     r2,#0
        0x080071fe:    f7faffaf    ....    BL       HAL_GPIO_WritePin ; 0x8002160
        0x08007202:    bd80        ..      POP      {r7,pc}
        0x08007204:    0000        ..      MOVS     r0,r0
        0x08007206:    0000        ..      MOVS     r0,r0
    key5_click
        0x08007208:    b580        ..      PUSH     {r7,lr}
        0x0800720a:    f6400000    @...    MOVW     r0,#0x800
        0x0800720e:    2102        .!      MOVS     r1,#2
        0x08007210:    f6c50002    ....    MOVT     r0,#0x5802
        0x08007214:    2201        ."      MOVS     r2,#1
        0x08007216:    f7faffa3    ....    BL       HAL_GPIO_WritePin ; 0x8002160
        0x0800721a:    bd80        ..      POP      {r7,pc}
        0x0800721c:    0000        ..      MOVS     r0,r0
        0x0800721e:    0000        ..      MOVS     r0,r0
    key6_click
        0x08007220:    b580        ..      PUSH     {r7,lr}
        0x08007222:    f6400000    @...    MOVW     r0,#0x800
        0x08007226:    2102        .!      MOVS     r1,#2
        0x08007228:    f6c50002    ....    MOVT     r0,#0x5802
        0x0800722c:    2200        ."      MOVS     r2,#0
        0x0800722e:    f7faff97    ....    BL       HAL_GPIO_WritePin ; 0x8002160
        0x08007232:    bd80        ..      POP      {r7,pc}
        0x08007234:    0000        ..      MOVS     r0,r0
        0x08007236:    0000        ..      MOVS     r0,r0
    key_adc_read
        0x08007238:    f8300011    0...    LDRH     r0,[r0,r1,LSL #1]
        0x0800723c:    2800        .(      CMP      r0,#0
        0x0800723e:    bf18        ..      IT       NE
        0x08007240:    2001        .       MOVNE    r0,#1
        0x08007242:    4770        pG      BX       lr
        0x08007244:    0000        ..      MOVS     r0,r0
        0x08007246:    0000        ..      MOVS     r0,r0
    key_adc_update
        0x08007248:    f6474c46    G.FL    MOV      r12,#0x7c46
        0x0800724c:    2200        ."      MOVS     r2,#0
        0x0800724e:    f6c00c00    ....    MOVT     r12,#0x800
        0x08007252:    e00c        ..      B        0x800726e ; key_adc_update + 38
        0x08007254:    eb0c0382    ....    ADD      r3,r12,r2,LSL #2
        0x08007258:    885b        [.      LDRH     r3,[r3,#2]
        0x0800725a:    428b        .B      CMP      r3,r1
        0x0800725c:    f04f0300    O...    MOV      r3,#0
        0x08007260:    bf38        8.      IT       CC
        0x08007262:    2301        .#      MOVCC    r3,#1
        0x08007264:    f8203012     ..0    STRH     r3,[r0,r2,LSL #1]
        0x08007268:    3201        .2      ADDS     r2,#1
        0x0800726a:    2a04        .*      CMP      r2,#4
        0x0800726c:    d005        ..      BEQ      0x800727a ; key_adc_update + 50
        0x0800726e:    f83c3022    <."0    LDRH     r3,[r12,r2,LSL #2]
        0x08007272:    428b        .B      CMP      r3,r1
        0x08007274:    d8ee        ..      BHI      0x8007254 ; key_adc_update + 12
        0x08007276:    2300        .#      MOVS     r3,#0
        0x08007278:    e7f4        ..      B        0x8007264 ; key_adc_update + 28
        0x0800727a:    f6a1422b    ..+B    SUB      r2,r1,#0xc2b
        0x0800727e:    2a0b        .*      CMP      r2,#0xb
        0x08007280:    d802        ..      BHI      0x8007288 ; key_adc_update + 64
        0x08007282:    f04f1201    O...    MOV      r2,#0x10001
        0x08007286:    6002        .`      STR      r2,[r0,#0]
        0x08007288:    f6a12229    ..)"    SUB      r2,r1,#0xa29
        0x0800728c:    2a0e        .*      CMP      r2,#0xe
        0x0800728e:    d802        ..      BHI      0x8007296 ; key_adc_update + 78
        0x08007290:    2201        ."      MOVS     r2,#1
        0x08007292:    8002        ..      STRH     r2,[r0,#0]
        0x08007294:    8082        ..      STRH     r2,[r0,#4]
        0x08007296:    f2a1721e    ...r    SUB      r2,r1,#0x71e
        0x0800729a:    2a0b        .*      CMP      r2,#0xb
        0x0800729c:    d802        ..      BHI      0x80072a4 ; key_adc_update + 92
        0x0800729e:    2201        ."      MOVS     r2,#1
        0x080072a0:    8002        ..      STRH     r2,[r0,#0]
        0x080072a2:    80c2        ..      STRH     r2,[r0,#6]
        0x080072a4:    f6a112bf    ....    SUB      r2,r1,#0x9bf
        0x080072a8:    2a0a        .*      CMP      r2,#0xa
        0x080072aa:    d803        ..      BHI      0x80072b4 ; key_adc_update + 108
        0x080072ac:    f04f1201    O...    MOV      r2,#0x10001
        0x080072b0:    f8c02002    ...     STR      r2,[r0,#2]
        0x080072b4:    f2a162b1    ...b    SUB      r2,r1,#0x6b1
        0x080072b8:    2a17        .*      CMP      r2,#0x17
        0x080072ba:    d802        ..      BHI      0x80072c2 ; key_adc_update + 122
        0x080072bc:    2201        ."      MOVS     r2,#1
        0x080072be:    8042        B.      STRH     r2,[r0,#2]
        0x080072c0:    80c2        ..      STRH     r2,[r0,#6]
        0x080072c2:    f2a152fb    ...R    SUB      r2,r1,#0x5fb
        0x080072c6:    2a13        .*      CMP      r2,#0x13
        0x080072c8:    d802        ..      BHI      0x80072d0 ; key_adc_update + 136
        0x080072ca:    f04f1201    O...    MOV      r2,#0x10001
        0x080072ce:    6042        B`      STR      r2,[r0,#4]
        0x080072d0:    f6a11271    ..q.    SUB      r2,r1,#0x971
        0x080072d4:    2a13        .*      CMP      r2,#0x13
        0x080072d6:    d804        ..      BHI      0x80072e2 ; key_adc_update + 154
        0x080072d8:    f04f1201    O...    MOV      r2,#0x10001
        0x080072dc:    6002        .`      STR      r2,[r0,#0]
        0x080072de:    2201        ."      MOVS     r2,#1
        0x080072e0:    8082        ..      STRH     r2,[r0,#4]
        0x080072e2:    f2a16261    ..ab    SUB      r2,r1,#0x661
        0x080072e6:    2a16        .*      CMP      r2,#0x16
        0x080072e8:    d804        ..      BHI      0x80072f4 ; key_adc_update + 172
        0x080072ea:    f04f1201    O...    MOV      r2,#0x10001
        0x080072ee:    6002        .`      STR      r2,[r0,#0]
        0x080072f0:    2201        ."      MOVS     r2,#1
        0x080072f2:    80c2        ..      STRH     r2,[r0,#6]
        0x080072f4:    f2a152a1    ...R    SUB      r2,r1,#0x5a1
        0x080072f8:    2a18        .*      CMP      r2,#0x18
        0x080072fa:    d804        ..      BHI      0x8007306 ; key_adc_update + 190
        0x080072fc:    2201        ."      MOVS     r2,#1
        0x080072fe:    8002        ..      STRH     r2,[r0,#0]
        0x08007300:    f04f1201    O...    MOV      r2,#0x10001
        0x08007304:    6042        B`      STR      r2,[r0,#4]
        0x08007306:    f2a1526e    ..nR    SUB      r2,r1,#0x56e
        0x0800730a:    2a10        .*      CMP      r2,#0x10
        0x0800730c:    d805        ..      BHI      0x800731a ; key_adc_update + 210
        0x0800730e:    f04f1201    O...    MOV      r2,#0x10001
        0x08007312:    f8c02002    ...     STR      r2,[r0,#2]
        0x08007316:    2201        ."      MOVS     r2,#1
        0x08007318:    80c2        ..      STRH     r2,[r0,#6]
        0x0800731a:    f2a1513b    ..;Q    SUB      r1,r1,#0x53b
        0x0800731e:    2919        .)      CMP      r1,#0x19
        0x08007320:    bf88        ..      IT       HI
        0x08007322:    4770        pG      BXHI     lr
        0x08007324:    f04f1101    O...    MOV      r1,#0x10001
        0x08007328:    6001        .`      STR      r1,[r0,#0]
        0x0800732a:    6041        A`      STR      r1,[r0,#4]
        0x0800732c:    4770        pG      BX       lr
        0x0800732e:    0000        ..      MOVS     r0,r0
    key_bounce_callback
        0x08007330:    b570        p.      PUSH     {r4-r6,lr}
        0x08007332:    f64015a0    @...    MOVW     r5,#0x9a0
        0x08007336:    4604        .F      MOV      r4,r0
        0x08007338:    2600        .&      MOVS     r6,#0
        0x0800733a:    f2c24500    ...E    MOVT     r5,#0x2400
        0x0800733e:    e006        ..      B        0x800734e ; key_bounce_callback + 30
        0x08007340:    6e01        .n      LDR      r1,[r0,#0x60]
        0x08007342:    4628        (F      MOV      r0,r5
        0x08007344:    f000fb84    ....    BL       queue_insert ; 0x8007a50
        0x08007348:    3601        .6      ADDS     r6,#1
        0x0800734a:    2e06        ..      CMP      r6,#6
        0x0800734c:    d00a        ..      BEQ      0x8007364 ; key_bounce_callback + 52
        0x0800734e:    eb0400c6    ....    ADD      r0,r4,r6,LSL #3
        0x08007352:    f8901064    ..d.    LDRB     r1,[r0,#0x64]
        0x08007356:    2902        .)      CMP      r1,#2
        0x08007358:    d0f2        ..      BEQ      0x8007340 ; key_bounce_callback + 16
        0x0800735a:    2901        .)      CMP      r1,#1
        0x0800735c:    d1f4        ..      BNE      0x8007348 ; key_bounce_callback + 24
        0x0800735e:    6e00        .n      LDR      r0,[r0,#0x60]
        0x08007360:    4780        .G      BLX      r0
        0x08007362:    e7f1        ..      B        0x8007348 ; key_bounce_callback + 24
        0x08007364:    bd70        p.      POP      {r4-r6,pc}
        0x08007366:    0000        ..      MOVS     r0,r0
    key_callback_handle
        0x08007368:    b5f0        ..      PUSH     {r4-r7,lr}
        0x0800736a:    b081        ..      SUB      sp,sp,#4
        0x0800736c:    f64011a0    @...    MOVW     r1,#0x9a0
        0x08007370:    2000        .       MOVS     r0,#0
        0x08007372:    f2c24100    ...A    MOVT     r1,#0x2400
        0x08007376:    9000        ..      STR      r0,[sp,#0]
        0x08007378:    e9d10100    ....    LDRD     r0,r1,[r1,#0]
        0x0800737c:    f000fb80    ....    BL       queue_length ; 0x8007a80
        0x08007380:    b178        x.      CBZ      r0,0x80073a2 ; key_callback_handle + 58
        0x08007382:    f64015a0    @...    MOVW     r5,#0x9a0
        0x08007386:    4604        .F      MOV      r4,r0
        0x08007388:    2700        .'      MOVS     r7,#0
        0x0800738a:    f2c24500    ...E    MOVT     r5,#0x2400
        0x0800738e:    466e        nF      MOV      r6,sp
        0x08007390:    4628        (F      MOV      r0,r5
        0x08007392:    4631        1F      MOV      r1,r6
        0x08007394:    f000fb3c    ..<.    BL       queue_extract ; 0x8007a10
        0x08007398:    9800        ..      LDR      r0,[sp,#0]
        0x0800739a:    4780        .G      BLX      r0
        0x0800739c:    3701        .7      ADDS     r7,#1
        0x0800739e:    42a7        .B      CMP      r7,r4
        0x080073a0:    d3f6        ..      BCC      0x8007390 ; key_callback_handle + 40
        0x080073a2:    b001        ..      ADD      sp,sp,#4
        0x080073a4:    bdf0        ..      POP      {r4-r7,pc}
        0x080073a6:    0000        ..      MOVS     r0,r0
    key_click_callback
        0x080073a8:    b570        p.      PUSH     {r4-r6,lr}
        0x080073aa:    f64015a0    @...    MOVW     r5,#0x9a0
        0x080073ae:    4604        .F      MOV      r4,r0
        0x080073b0:    2600        .&      MOVS     r6,#0
        0x080073b2:    f2c24500    ...E    MOVT     r5,#0x2400
        0x080073b6:    e007        ..      B        0x80073c8 ; key_click_callback + 32
        0x080073b8:    f8d01090    ....    LDR      r1,[r0,#0x90]
        0x080073bc:    4628        (F      MOV      r0,r5
        0x080073be:    f000fb47    ..G.    BL       queue_insert ; 0x8007a50
        0x080073c2:    3601        .6      ADDS     r6,#1
        0x080073c4:    2e06        ..      CMP      r6,#6
        0x080073c6:    d00b        ..      BEQ      0x80073e0 ; key_click_callback + 56
        0x080073c8:    eb0400c6    ....    ADD      r0,r4,r6,LSL #3
        0x080073cc:    f8901094    ....    LDRB     r1,[r0,#0x94]
        0x080073d0:    2902        .)      CMP      r1,#2
        0x080073d2:    d0f1        ..      BEQ      0x80073b8 ; key_click_callback + 16
        0x080073d4:    2901        .)      CMP      r1,#1
        0x080073d6:    d1f4        ..      BNE      0x80073c2 ; key_click_callback + 26
        0x080073d8:    f8d00090    ....    LDR      r0,[r0,#0x90]
        0x080073dc:    4780        .G      BLX      r0
        0x080073de:    e7f0        ..      B        0x80073c2 ; key_click_callback + 26
        0x080073e0:    bd70        p.      POP      {r4-r6,pc}
        0x080073e2:    0000        ..      MOVS     r0,r0
        0x080073e4:    0000        ..      MOVS     r0,r0
        0x080073e6:    0000        ..      MOVS     r0,r0
    key_create
        0x080073e8:    b580        ..      PUSH     {r7,lr}
        0x080073ea:    4684        .F      MOV      r12,r0
        0x080073ec:    8103        ..      STRH     r3,[r0,#8]
        0x080073ee:    e9c01200    ....    STRD     r1,r2,[r0,#0]
        0x080073f2:    9902        ..      LDR      r1,[sp,#8]
        0x080073f4:    f880102e    ....    STRB     r1,[r0,#0x2e]
        0x080073f8:    f44f72c8    O..r    MOV      r2,#0x190
        0x080073fc:    60c2        .`      STR      r2,[r0,#0xc]
        0x080073fe:    2000        .       MOVS     r0,#0
        0x08007400:    f44f7348    O.Hs    MOV      r3,#0x320
        0x08007404:    e9cc3005    ...0    STRD     r3,r0,[r12,#0x14]
        0x08007408:    f89c302d    ..-0    LDRB     r3,[r12,#0x2d]
        0x0800740c:    f8cc2028    ..(     STR      r2,[r12,#0x28]
        0x08007410:    f8cc0010    ....    STR      r0,[r12,#0x10]
        0x08007414:    f00302e0    ....    AND      r2,r3,#0xe0
        0x08007418:    f88c202d    ..-     STRB     r2,[r12,#0x2d]
        0x0800741c:    2200        ."      MOVS     r2,#0
        0x0800741e:    f8cc001c    ....    STR      r0,[r12,#0x1c]
        0x08007422:    f8cc0024    ..$.    STR      r0,[r12,#0x24]
        0x08007426:    f88c002c    ..,.    STRB     r0,[r12,#0x2c]
        0x0800742a:    f88c002f    ../.    STRB     r0,[r12,#0x2f]
        0x0800742e:    bf00        ..      NOP      
        0x08007430:    eb0c0302    ....    ADD      r3,r12,r2
        0x08007434:    3208        .2      ADDS     r2,r2,#8
        0x08007436:    2a30        0*      CMP      r2,#0x30
        0x08007438:    6318        .c      STR      r0,[r3,#0x30]
        0x0800743a:    6618        .f      STR      r0,[r3,#0x60]
        0x0800743c:    f8c30090    ....    STR      r0,[r3,#0x90]
        0x08007440:    f8c300c0    ....    STR      r0,[r3,#0xc0]
        0x08007444:    f8c300f0    ....    STR      r0,[r3,#0xf0]
        0x08007448:    f8830034    ..4.    STRB     r0,[r3,#0x34]
        0x0800744c:    f8830064    ..d.    STRB     r0,[r3,#0x64]
        0x08007450:    f8830094    ....    STRB     r0,[r3,#0x94]
        0x08007454:    f88300c4    ....    STRB     r0,[r3,#0xc4]
        0x08007458:    f88300f4    ....    STRB     r0,[r3,#0xf4]
        0x0800745c:    d1e8        ..      BNE      0x8007430 ; key_create + 72
        0x0800745e:    f64010a8    @...    MOV      r0,#0x9a8
        0x08007462:    4662        bF      MOV      r2,r12
        0x08007464:    f2c24000    ...@    MOVT     r0,#0x2400
        0x08007468:    f000fb7a    ..z.    BL       slink_insert ; 0x8007b60
        0x0800746c:    bd80        ..      POP      {r7,pc}
        0x0800746e:    0000        ..      MOVS     r0,r0
    key_dbclick_callback
        0x08007470:    b570        p.      PUSH     {r4-r6,lr}
        0x08007472:    f64015a0    @...    MOVW     r5,#0x9a0
        0x08007476:    4604        .F      MOV      r4,r0
        0x08007478:    2600        .&      MOVS     r6,#0
        0x0800747a:    f2c24500    ...E    MOVT     r5,#0x2400
        0x0800747e:    e007        ..      B        0x8007490 ; key_dbclick_callback + 32
        0x08007480:    f8d010c0    ....    LDR      r1,[r0,#0xc0]
        0x08007484:    4628        (F      MOV      r0,r5
        0x08007486:    f000fae3    ....    BL       queue_insert ; 0x8007a50
        0x0800748a:    3601        .6      ADDS     r6,#1
        0x0800748c:    2e06        ..      CMP      r6,#6
        0x0800748e:    d00b        ..      BEQ      0x80074a8 ; key_dbclick_callback + 56
        0x08007490:    eb0400c6    ....    ADD      r0,r4,r6,LSL #3
        0x08007494:    f89010c4    ....    LDRB     r1,[r0,#0xc4]
        0x08007498:    2902        .)      CMP      r1,#2
        0x0800749a:    d0f1        ..      BEQ      0x8007480 ; key_dbclick_callback + 16
        0x0800749c:    2901        .)      CMP      r1,#1
        0x0800749e:    d1f4        ..      BNE      0x800748a ; key_dbclick_callback + 26
        0x080074a0:    f8d000c0    ....    LDR      r0,[r0,#0xc0]
        0x080074a4:    4780        .G      BLX      r0
        0x080074a6:    e7f0        ..      B        0x800748a ; key_dbclick_callback + 26
        0x080074a8:    bd70        p.      POP      {r4-r6,pc}
        0x080074aa:    0000        ..      MOVS     r0,r0
        0x080074ac:    0000        ..      MOVS     r0,r0
        0x080074ae:    0000        ..      MOVS     r0,r0
    key_debounce
        0x080074b0:    b510        ..      PUSH     {r4,lr}
        0x080074b2:    4604        .F      MOV      r4,r0
        0x080074b4:    f000fa8c    ....    BL       my_tick_get ; 0x80079d0
        0x080074b8:    8921        !.      LDRH     r1,[r4,#8]
        0x080074ba:    e9d42000    ...     LDRD     r2,r0,[r4,#0]
        0x080074be:    4790        .G      BLX      r2
        0x080074c0:    f894102c    ..,.    LDRB     r1,[r4,#0x2c]
        0x080074c4:    07c3        ..      LSLS     r3,r0,#31
        0x080074c6:    f0010201    ....    AND      r2,r1,#1
        0x080074ca:    f3600182    `...    BFI      r1,r0,#2,#1
        0x080074ce:    f884102c    ..,.    STRB     r1,[r4,#0x2c]
        0x080074d2:    d103        ..      BNE      0x80074dc ; key_debounce + 44
        0x080074d4:    b932        2.      CBNZ     r2,0x80074e4 ; key_debounce + 52
        0x080074d6:    f0410002    A...    ORR      r0,r1,#2
        0x080074da:    e008        ..      B        0x80074ee ; key_debounce + 62
        0x080074dc:    b92a        *.      CBNZ     r2,0x80074ea ; key_debounce + 58
        0x080074de:    f00100fd    ....    AND      r0,r1,#0xfd
        0x080074e2:    e004        ..      B        0x80074ee ; key_debounce + 62
        0x080074e4:    f00100fd    ....    AND      r0,r1,#0xfd
        0x080074e8:    e001        ..      B        0x80074ee ; key_debounce + 62
        0x080074ea:    f0410002    A...    ORR      r0,r1,#2
        0x080074ee:    f3c00140    ..@.    UBFX     r1,r0,#1,#1
        0x080074f2:    f0000202    ....    AND      r2,r0,#2
        0x080074f6:    ea8111d0    ....    EOR      r1,r1,r0,LSR #7
        0x080074fa:    ea010150    ..P.    AND      r1,r1,r0,LSR #1
        0x080074fe:    f0000047    ..G.    AND      r0,r0,#0x47
        0x08007502:    ea401002    @...    ORR      r0,r0,r2,LSL #4
        0x08007506:    ea401082    @...    ORR      r0,r0,r2,LSL #6
        0x0800750a:    ea4000c2    @...    ORR      r0,r0,r2,LSL #3
        0x0800750e:    ea4000c1    @...    ORR      r0,r0,r1,LSL #3
        0x08007512:    f884002c    ..,.    STRB     r0,[r4,#0x2c]
        0x08007516:    bd10        ..      POP      {r4,pc}
    key_demo_init
        0x08007518:    b510        ..      PUSH     {r4,lr}
        0x0800751a:    f2402418    @..$    MOVW     r4,#0x218
        0x0800751e:    f24711c1    G...    MOV      r1,#0x71c1
        0x08007522:    f2c24400    ...D    MOVT     r4,#0x2400
        0x08007526:    f6c00100    ....    MOVT     r1,#0x800
        0x0800752a:    2200        ."      MOVS     r2,#0
        0x0800752c:    2301        .#      MOVS     r3,#1
        0x0800752e:    4620         F      MOV      r0,r4
        0x08007530:    f000f9fe    ....    BL       key_onpress_register ; 0x8007930
        0x08007534:    f2471139    G.9.    MOV      r1,#0x7139
        0x08007538:    2200        ."      MOVS     r2,#0
        0x0800753a:    f6c00100    ....    MOVT     r1,#0x800
        0x0800753e:    2301        .#      MOVS     r3,#1
        0x08007540:    4620         F      MOV      r0,r4
        0x08007542:    f000f9b9    ....    BL       key_onbounce_register ; 0x80078b8
        0x08007546:    f2471151    G.Q.    MOV      r1,#0x7151
        0x0800754a:    2200        ."      MOVS     r2,#0
        0x0800754c:    f6c00100    ....    MOVT     r1,#0x800
        0x08007550:    2301        .#      MOVS     r3,#1
        0x08007552:    4620         F      MOV      r0,r4
        0x08007554:    f000f9bc    ....    BL       key_onclick_register ; 0x80078d0
        0x08007558:    f2471179    G.y.    MOV      r1,#0x7179
        0x0800755c:    2200        ."      MOVS     r2,#0
        0x0800755e:    f6c00100    ....    MOVT     r1,#0x800
        0x08007562:    2301        .#      MOVS     r3,#1
        0x08007564:    4620         F      MOV      r0,r4
        0x08007566:    f000f9cb    ....    BL       key_ondbclick_register ; 0x8007900
        0x0800756a:    f24711a9    G...    MOV      r1,#0x71a9
        0x0800756e:    2200        ."      MOVS     r2,#0
        0x08007570:    f6c00100    ....    MOVT     r1,#0x800
        0x08007574:    2301        .#      MOVS     r3,#1
        0x08007576:    4620         F      MOV      r0,r4
        0x08007578:    f000f9ce    ....    BL       key_onlp_register ; 0x8007918
        0x0800757c:    f2404058    @.X@    MOVW     r0,#0x458
        0x08007580:    f24711d9    G...    MOV      r1,#0x71d9
        0x08007584:    f2c24000    ...@    MOVT     r0,#0x2400
        0x08007588:    f6c00100    ....    MOVT     r1,#0x800
        0x0800758c:    2200        ."      MOVS     r2,#0
        0x0800758e:    2302        .#      MOVS     r3,#2
        0x08007590:    f000f99e    ....    BL       key_onclick_register ; 0x80078d0
        0x08007594:    f2405078    @.xP    MOVW     r0,#0x578
        0x08007598:    f24711f1    G...    MOV      r1,#0x71f1
        0x0800759c:    f2c24000    ...@    MOVT     r0,#0x2400
        0x080075a0:    f6c00100    ....    MOVT     r1,#0x800
        0x080075a4:    2200        ."      MOVS     r2,#0
        0x080075a6:    2302        .#      MOVS     r3,#2
        0x080075a8:    f000f992    ....    BL       key_onclick_register ; 0x80078d0
        0x080075ac:    f2406098    @..`    MOVW     r0,#0x698
        0x080075b0:    f2472109    G..!    MOV      r1,#0x7209
        0x080075b4:    f2c24000    ...@    MOVT     r0,#0x2400
        0x080075b8:    f6c00100    ....    MOVT     r1,#0x800
        0x080075bc:    2200        ."      MOVS     r2,#0
        0x080075be:    2302        .#      MOVS     r3,#2
        0x080075c0:    f000f986    ....    BL       key_onclick_register ; 0x80078d0
        0x080075c4:    f24070b8    @..p    MOVW     r0,#0x7b8
        0x080075c8:    f2472121    G.!!    MOV      r1,#0x7221
        0x080075cc:    f2c24000    ...@    MOVT     r0,#0x2400
        0x080075d0:    f6c00100    ....    MOVT     r1,#0x800
        0x080075d4:    2200        ."      MOVS     r2,#0
        0x080075d6:    2302        .#      MOVS     r3,#2
        0x080075d8:    f000f97a    ..z.    BL       key_onclick_register ; 0x80078d0
        0x080075dc:    bd10        ..      POP      {r4,pc}
        0x080075de:    0000        ..      MOVS     r0,r0
    key_detect
        0x080075e0:    b510        ..      PUSH     {r4,lr}
        0x080075e2:    4604        .F      MOV      r4,r0
        0x080075e4:    f7ffff64    ..d.    BL       key_debounce ; 0x80074b0
        0x080075e8:    f894002c    ..,.    LDRB     r0,[r4,#0x2c]
        0x080075ec:    0681        ..      LSLS     r1,r0,#26
        0x080075ee:    d407        ..      BMI      0x8007600 ; key_detect + 32
        0x080075f0:    f894002d    ..-.    LDRB     r0,[r4,#0x2d]
        0x080075f4:    0781        ..      LSLS     r1,r0,#30
        0x080075f6:    d41b        ..      BMI      0x8007630 ; key_detect + 80
        0x080075f8:    2000        .       MOVS     r0,#0
        0x080075fa:    f884002f    ../.    STRB     r0,[r4,#0x2f]
        0x080075fe:    bd10        ..      POP      {r4,pc}
        0x08007600:    0701        ..      LSLS     r1,r0,#28
        0x08007602:    d431        1.      BMI      0x8007668 ; key_detect + 136
        0x08007604:    06c0        ..      LSLS     r0,r0,#27
        0x08007606:    d547        G.      BPL      0x8007698 ; key_detect + 184
        0x08007608:    6a20         j      LDR      r0,[r4,#0x20]
        0x0800760a:    6260        `b      STR      r0,[r4,#0x24]
        0x0800760c:    f000f9d8    ....    BL       my_tick_elaps ; 0x80079c0
        0x08007610:    6aa1        .j      LDR      r1,[r4,#0x28]
        0x08007612:    4288        .B      CMP      r0,r1
        0x08007614:    d340        @.      BCC      0x8007698 ; key_detect + 184
        0x08007616:    f894002d    ..-.    LDRB     r0,[r4,#0x2d]
        0x0800761a:    2101        .!      MOVS     r1,#1
        0x0800761c:    f884102f    ../.    STRB     r1,[r4,#0x2f]
        0x08007620:    f00000fb    ....    AND      r0,r0,#0xfb
        0x08007624:    f884002d    ..-.    STRB     r0,[r4,#0x2d]
        0x08007628:    f000f9d2    ....    BL       my_tick_get ; 0x80079d0
        0x0800762c:    6220         b      STR      r0,[r4,#0x20]
        0x0800762e:    e030        0.      B        0x8007692 ; key_detect + 178
        0x08007630:    f00000fd    ....    AND      r0,r0,#0xfd
        0x08007634:    f884002d    ..-.    STRB     r0,[r4,#0x2d]
        0x08007638:    4620         F      MOV      r0,r4
        0x0800763a:    2102        .!      MOVS     r1,#2
        0x0800763c:    f884102f    ../.    STRB     r1,[r4,#0x2f]
        0x08007640:    f7fffe76    ..v.    BL       key_bounce_callback ; 0x8007330
        0x08007644:    f894002d    ..-.    LDRB     r0,[r4,#0x2d]
        0x08007648:    0741        A.      LSLS     r1,r0,#29
        0x0800764a:    d525        %.      BPL      0x8007698 ; key_detect + 184
        0x0800764c:    f00000fb    ....    AND      r0,r0,#0xfb
        0x08007650:    f884002d    ..-.    STRB     r0,[r4,#0x2d]
        0x08007654:    4620         F      MOV      r0,r4
        0x08007656:    2103        .!      MOVS     r1,#3
        0x08007658:    f884102f    ../.    STRB     r1,[r4,#0x2f]
        0x0800765c:    f7fffea4    ....    BL       key_click_callback ; 0x80073a8
        0x08007660:    4620         F      MOV      r0,r4
        0x08007662:    f000f855    ..U.    BL       key_doube_click ; 0x8007710
        0x08007666:    e017        ..      B        0x8007698 ; key_detect + 184
        0x08007668:    f894002d    ..-.    LDRB     r0,[r4,#0x2d]
        0x0800766c:    2101        .!      MOVS     r1,#1
        0x0800766e:    f884102f    ../.    STRB     r1,[r4,#0x2f]
        0x08007672:    f0400006    @...    ORR      r0,r0,#6
        0x08007676:    f884002d    ..-.    STRB     r0,[r4,#0x2d]
        0x0800767a:    f000f9a9    ....    BL       my_tick_get ; 0x80079d0
        0x0800767e:    f894102d    ..-.    LDRB     r1,[r4,#0x2d]
        0x08007682:    6220         b      STR      r0,[r4,#0x20]
        0x08007684:    f0410010    A...    ORR      r0,r1,#0x10
        0x08007688:    f884002d    ..-.    STRB     r0,[r4,#0x2d]
        0x0800768c:    f000f9a0    ....    BL       my_tick_get ; 0x80079d0
        0x08007690:    61a0        .a      STR      r0,[r4,#0x18]
        0x08007692:    4620         F      MOV      r0,r4
        0x08007694:    f000f958    ..X.    BL       key_press_callback ; 0x8007948
        0x08007698:    f994002c    ..,.    LDRSB    r0,[r4,#0x2c]
        0x0800769c:    f1b03fff    ...?    CMP      r0,#0xffffffff
        0x080076a0:    dd00        ..      BLE      0x80076a4 ; key_detect + 196
        0x080076a2:    bd10        ..      POP      {r4,pc}
        0x080076a4:    f894002d    ..-.    LDRB     r0,[r4,#0x2d]
        0x080076a8:    06c0        ..      LSLS     r0,r0,#27
        0x080076aa:    d5fa        ..      BPL      0x80076a2 ; key_detect + 194
        0x080076ac:    69a0        .i      LDR      r0,[r4,#0x18]
        0x080076ae:    61e0        .a      STR      r0,[r4,#0x1c]
        0x080076b0:    f000f986    ....    BL       my_tick_elaps ; 0x80079c0
        0x080076b4:    6961        ai      LDR      r1,[r4,#0x14]
        0x080076b6:    4288        .B      CMP      r0,r1
        0x080076b8:    bf38        8.      IT       CC
        0x080076ba:    bd10        ..      POPCC    {r4,pc}
        0x080076bc:    f894002d    ..-.    LDRB     r0,[r4,#0x2d]
        0x080076c0:    2104        .!      MOVS     r1,#4
        0x080076c2:    f884102f    ../.    STRB     r1,[r4,#0x2f]
        0x080076c6:    f00000eb    ....    AND      r0,r0,#0xeb
        0x080076ca:    f884002d    ..-.    STRB     r0,[r4,#0x2d]
        0x080076ce:    4620         F      MOV      r0,r4
        0x080076d0:    f000f8d2    ....    BL       key_lp_callback ; 0x8007878
        0x080076d4:    bd10        ..      POP      {r4,pc}
        0x080076d6:    0000        ..      MOVS     r0,r0
    key_detect_scan
        0x080076d8:    b5f0        ..      PUSH     {r4-r7,lr}
        0x080076da:    b081        ..      SUB      sp,sp,#4
        0x080076dc:    f64010a8    @...    MOV      r0,#0x9a8
        0x080076e0:    f2c24000    ...@    MOVT     r0,#0x2400
        0x080076e4:    f000fa6c    ..l.    BL       slink_length ; 0x8007bc0
        0x080076e8:    b180        ..      CBZ      r0,0x800770c ; key_detect_scan + 52
        0x080076ea:    f64015a8    @...    MOV      r5,#0x9a8
        0x080076ee:    4604        .F      MOV      r4,r0
        0x080076f0:    2700        .'      MOVS     r7,#0
        0x080076f2:    f2c24500    ...E    MOVT     r5,#0x2400
        0x080076f6:    bf00        ..      NOP      
        0x080076f8:    3701        .7      ADDS     r7,#1
        0x080076fa:    4628        (F      MOV      r0,r5
        0x080076fc:    b2be        ..      UXTH     r6,r7
        0x080076fe:    4631        1F      MOV      r1,r6
        0x08007700:    f000fa02    ....    BL       slink_getData ; 0x8007b08
        0x08007704:    f7ffff6c    ..l.    BL       key_detect ; 0x80075e0
        0x08007708:    42a6        .B      CMP      r6,r4
        0x0800770a:    d3f5        ..      BCC      0x80076f8 ; key_detect_scan + 32
        0x0800770c:    b001        ..      ADD      sp,sp,#4
        0x0800770e:    bdf0        ..      POP      {r4-r7,pc}
    key_doube_click
        0x08007710:    b510        ..      PUSH     {r4,lr}
        0x08007712:    4604        .F      MOV      r4,r0
        0x08007714:    f890002d    ..-.    LDRB     r0,[r0,#0x2d]
        0x08007718:    0700        ..      LSLS     r0,r0,#28
        0x0800771a:    d409        ..      BMI      0x8007730 ; key_doube_click + 32
        0x0800771c:    f000f958    ..X.    BL       my_tick_get ; 0x80079d0
        0x08007720:    f894102d    ..-.    LDRB     r1,[r4,#0x2d]
        0x08007724:    6120         a      STR      r0,[r4,#0x10]
        0x08007726:    f0410008    A...    ORR      r0,r1,#8
        0x0800772a:    f884002d    ..-.    STRB     r0,[r4,#0x2d]
        0x0800772e:    bd10        ..      POP      {r4,pc}
        0x08007730:    6920         i      LDR      r0,[r4,#0x10]
        0x08007732:    f000f945    ..E.    BL       my_tick_elaps ; 0x80079c0
        0x08007736:    68e1        .h      LDR      r1,[r4,#0xc]
        0x08007738:    6120         a      STR      r0,[r4,#0x10]
        0x0800773a:    4288        .B      CMP      r0,r1
        0x0800773c:    d20c        ..      BCS      0x8007758 ; key_doube_click + 72
        0x0800773e:    f894002d    ..-.    LDRB     r0,[r4,#0x2d]
        0x08007742:    2105        .!      MOVS     r1,#5
        0x08007744:    f884102f    ../.    STRB     r1,[r4,#0x2f]
        0x08007748:    f00000f7    ....    AND      r0,r0,#0xf7
        0x0800774c:    f884002d    ..-.    STRB     r0,[r4,#0x2d]
        0x08007750:    4620         F      MOV      r0,r4
        0x08007752:    f7fffe8d    ....    BL       key_dbclick_callback ; 0x8007470
        0x08007756:    bd10        ..      POP      {r4,pc}
        0x08007758:    f000f93a    ..:.    BL       my_tick_get ; 0x80079d0
        0x0800775c:    6120         a      STR      r0,[r4,#0x10]
        0x0800775e:    bd10        ..      POP      {r4,pc}
    key_get_event
        0x08007760:    f890002f    ../.    LDRB     r0,[r0,#0x2f]
        0x08007764:    4770        pG      BX       lr
        0x08007766:    0000        ..      MOVS     r0,r0
    key_init
        0x08007768:    e92d43f0    -..C    PUSH     {r4-r9,lr}
        0x0800776c:    b081        ..      SUB      sp,sp,#4
        0x0800776e:    f64010a8    @...    MOV      r0,#0x9a8
        0x08007772:    f64011b0    @...    MOVW     r1,#0x9b0
        0x08007776:    f2c24000    ...@    MOVT     r0,#0x2400
        0x0800777a:    f2c24100    ...A    MOVT     r1,#0x2400
        0x0800777e:    2208        ."      MOVS     r2,#8
        0x08007780:    f000f9d6    ....    BL       slink_init ; 0x8007b30
        0x08007784:    f64010a0    @...    MOVW     r0,#0x9a0
        0x08007788:    f64001d8    @...    MOV      r1,#0x8d8
        0x0800778c:    f2c24000    ...@    MOVT     r0,#0x2400
        0x08007790:    f2c24100    ...A    MOVT     r1,#0x2400
        0x08007794:    2232        2"      MOVS     r2,#0x32
        0x08007796:    f000f953    ..S.    BL       queue_init ; 0x8007a40
        0x0800779a:    f6470471    G.q.    MOV      r4,#0x7871
        0x0800779e:    2500        .%      MOVS     r5,#0
        0x080077a0:    f2402018    @..     MOVW     r0,#0x218
        0x080077a4:    f6c00400    ....    MOVT     r4,#0x800
        0x080077a8:    f6c50502    ....    MOVT     r5,#0x5802
        0x080077ac:    f2c24000    ...@    MOVT     r0,#0x2400
        0x080077b0:    2301        .#      MOVS     r3,#1
        0x080077b2:    2101        .!      MOVS     r1,#1
        0x080077b4:    9100        ..      STR      r1,[sp,#0]
        0x080077b6:    4621        !F      MOV      r1,r4
        0x080077b8:    462a        *F      MOV      r2,r5
        0x080077ba:    f7fffe15    ....    BL       key_create ; 0x80073e8
        0x080077be:    f2403038    @.80    MOVW     r0,#0x338
        0x080077c2:    2102        .!      MOVS     r1,#2
        0x080077c4:    f2c24000    ...@    MOVT     r0,#0x2400
        0x080077c8:    2304        .#      MOVS     r3,#4
        0x080077ca:    9100        ..      STR      r1,[sp,#0]
        0x080077cc:    4621        !F      MOV      r1,r4
        0x080077ce:    462a        *F      MOV      r2,r5
        0x080077d0:    2704        .'      MOVS     r7,#4
        0x080077d2:    f7fffe09    ....    BL       key_create ; 0x80073e8
        0x080077d6:    f2404858    @.XH    MOVW     r8,#0x458
        0x080077da:    f2472539    G.9%    MOV      r5,#0x7239
        0x080077de:    f2400670    @.p.    MOVW     r6,#0x70
        0x080077e2:    f2c24800    ...H    MOVT     r8,#0x2400
        0x080077e6:    f6c00500    ....    MOVT     r5,#0x800
        0x080077ea:    f2c24600    ...F    MOVT     r6,#0x2400
        0x080077ee:    2300        .#      MOVS     r3,#0
        0x080077f0:    2003        .       MOVS     r0,#3
        0x080077f2:    9000        ..      STR      r0,[sp,#0]
        0x080077f4:    4640        @F      MOV      r0,r8
        0x080077f6:    4629        )F      MOV      r1,r5
        0x080077f8:    4632        2F      MOV      r2,r6
        0x080077fa:    f7fffdf5    ....    BL       key_create ; 0x80073e8
        0x080077fe:    f2405978    @.xY    MOVW     r9,#0x578
        0x08007802:    2301        .#      MOVS     r3,#1
        0x08007804:    f2c24900    ...I    MOVT     r9,#0x2400
        0x08007808:    4629        )F      MOV      r1,r5
        0x0800780a:    4648        HF      MOV      r0,r9
        0x0800780c:    4632        2F      MOV      r2,r6
        0x0800780e:    9700        ..      STR      r7,[sp,#0]
        0x08007810:    f7fffdea    ....    BL       key_create ; 0x80073e8
        0x08007814:    f2406498    @..d    MOVW     r4,#0x698
        0x08007818:    2302        .#      MOVS     r3,#2
        0x0800781a:    f2c24400    ...D    MOVT     r4,#0x2400
        0x0800781e:    2005        .       MOVS     r0,#5
        0x08007820:    9000        ..      STR      r0,[sp,#0]
        0x08007822:    4620         F      MOV      r0,r4
        0x08007824:    4629        )F      MOV      r1,r5
        0x08007826:    4632        2F      MOV      r2,r6
        0x08007828:    f7fffdde    ....    BL       key_create ; 0x80073e8
        0x0800782c:    f24077b8    @..w    MOVW     r7,#0x7b8
        0x08007830:    2303        .#      MOVS     r3,#3
        0x08007832:    f2c24700    ...G    MOVT     r7,#0x2400
        0x08007836:    2006        .       MOVS     r0,#6
        0x08007838:    9000        ..      STR      r0,[sp,#0]
        0x0800783a:    4638        8F      MOV      r0,r7
        0x0800783c:    4629        )F      MOV      r1,r5
        0x0800783e:    4632        2F      MOV      r2,r6
        0x08007840:    f7fffdd2    ....    BL       key_create ; 0x80073e8
        0x08007844:    2101        .!      MOVS     r1,#1
        0x08007846:    4640        @F      MOV      r0,r8
        0x08007848:    f000f89a    ....    BL       key_set_level ; 0x8007980
        0x0800784c:    2101        .!      MOVS     r1,#1
        0x0800784e:    4648        HF      MOV      r0,r9
        0x08007850:    f000f896    ....    BL       key_set_level ; 0x8007980
        0x08007854:    2101        .!      MOVS     r1,#1
        0x08007856:    4620         F      MOV      r0,r4
        0x08007858:    f000f892    ....    BL       key_set_level ; 0x8007980
        0x0800785c:    2101        .!      MOVS     r1,#1
        0x0800785e:    4638        8F      MOV      r0,r7
        0x08007860:    f000f88e    ....    BL       key_set_level ; 0x8007980
        0x08007864:    b001        ..      ADD      sp,sp,#4
        0x08007866:    e8bd83f0    ....    POP      {r4-r9,pc}
        0x0800786a:    0000        ..      MOVS     r0,r0
        0x0800786c:    0000        ..      MOVS     r0,r0
        0x0800786e:    0000        ..      MOVS     r0,r0
    key_level_read
        0x08007870:    b580        ..      PUSH     {r7,lr}
        0x08007872:    f7fafc61    ..a.    BL       HAL_GPIO_ReadPin ; 0x8002138
        0x08007876:    bd80        ..      POP      {r7,pc}
    key_lp_callback
        0x08007878:    b570        p.      PUSH     {r4-r6,lr}
        0x0800787a:    f64015a0    @...    MOVW     r5,#0x9a0
        0x0800787e:    4604        .F      MOV      r4,r0
        0x08007880:    2600        .&      MOVS     r6,#0
        0x08007882:    f2c24500    ...E    MOVT     r5,#0x2400
        0x08007886:    e007        ..      B        0x8007898 ; key_lp_callback + 32
        0x08007888:    f8d010f0    ....    LDR      r1,[r0,#0xf0]
        0x0800788c:    4628        (F      MOV      r0,r5
        0x0800788e:    f000f8df    ....    BL       queue_insert ; 0x8007a50
        0x08007892:    3601        .6      ADDS     r6,#1
        0x08007894:    2e06        ..      CMP      r6,#6
        0x08007896:    d00b        ..      BEQ      0x80078b0 ; key_lp_callback + 56
        0x08007898:    eb0400c6    ....    ADD      r0,r4,r6,LSL #3
        0x0800789c:    f89010f4    ....    LDRB     r1,[r0,#0xf4]
        0x080078a0:    2902        .)      CMP      r1,#2
        0x080078a2:    d0f1        ..      BEQ      0x8007888 ; key_lp_callback + 16
        0x080078a4:    2901        .)      CMP      r1,#1
        0x080078a6:    d1f4        ..      BNE      0x8007892 ; key_lp_callback + 26
        0x080078a8:    f8d000f0    ....    LDR      r0,[r0,#0xf0]
        0x080078ac:    4780        .G      BLX      r0
        0x080078ae:    e7f0        ..      B        0x8007892 ; key_lp_callback + 26
        0x080078b0:    bd70        p.      POP      {r4-r6,pc}
        0x080078b2:    0000        ..      MOVS     r0,r0
        0x080078b4:    0000        ..      MOVS     r0,r0
        0x080078b6:    0000        ..      MOVS     r0,r0
    key_onbounce_register
        0x080078b8:    b139        9.      CBZ      r1,0x80078ca ; key_onbounce_register + 18
        0x080078ba:    2a05        .*      CMP      r2,#5
        0x080078bc:    bf88        ..      IT       HI
        0x080078be:    4770        pG      BXHI     lr
        0x080078c0:    eb0000c2    ....    ADD      r0,r0,r2,LSL #3
        0x080078c4:    6601        .f      STR      r1,[r0,#0x60]
        0x080078c6:    f8803064    ..d0    STRB     r3,[r0,#0x64]
        0x080078ca:    4770        pG      BX       lr
        0x080078cc:    0000        ..      MOVS     r0,r0
        0x080078ce:    0000        ..      MOVS     r0,r0
    key_onclick_register
        0x080078d0:    b141        A.      CBZ      r1,0x80078e4 ; key_onclick_register + 20
        0x080078d2:    2a05        .*      CMP      r2,#5
        0x080078d4:    bf88        ..      IT       HI
        0x080078d6:    4770        pG      BXHI     lr
        0x080078d8:    eb0000c2    ....    ADD      r0,r0,r2,LSL #3
        0x080078dc:    f8c01090    ....    STR      r1,[r0,#0x90]
        0x080078e0:    f8803094    ...0    STRB     r3,[r0,#0x94]
        0x080078e4:    4770        pG      BX       lr
        0x080078e6:    0000        ..      MOVS     r0,r0
    key_onclick_unregister
        0x080078e8:    2905        .)      CMP      r1,#5
        0x080078ea:    bf88        ..      IT       HI
        0x080078ec:    4770        pG      BXHI     lr
        0x080078ee:    eb0000c1    ....    ADD      r0,r0,r1,LSL #3
        0x080078f2:    2100        .!      MOVS     r1,#0
        0x080078f4:    f8c01090    ....    STR      r1,[r0,#0x90]
        0x080078f8:    f8801094    ....    STRB     r1,[r0,#0x94]
        0x080078fc:    4770        pG      BX       lr
        0x080078fe:    0000        ..      MOVS     r0,r0
    key_ondbclick_register
        0x08007900:    b141        A.      CBZ      r1,0x8007914 ; key_ondbclick_register + 20
        0x08007902:    2a05        .*      CMP      r2,#5
        0x08007904:    bf88        ..      IT       HI
        0x08007906:    4770        pG      BXHI     lr
        0x08007908:    eb0000c2    ....    ADD      r0,r0,r2,LSL #3
        0x0800790c:    f8c010c0    ....    STR      r1,[r0,#0xc0]
        0x08007910:    f88030c4    ...0    STRB     r3,[r0,#0xc4]
        0x08007914:    4770        pG      BX       lr
        0x08007916:    0000        ..      MOVS     r0,r0
    key_onlp_register
        0x08007918:    b141        A.      CBZ      r1,0x800792c ; key_onlp_register + 20
        0x0800791a:    2a05        .*      CMP      r2,#5
        0x0800791c:    bf88        ..      IT       HI
        0x0800791e:    4770        pG      BXHI     lr
        0x08007920:    eb0000c2    ....    ADD      r0,r0,r2,LSL #3
        0x08007924:    f8c010f0    ....    STR      r1,[r0,#0xf0]
        0x08007928:    f88030f4    ...0    STRB     r3,[r0,#0xf4]
        0x0800792c:    4770        pG      BX       lr
        0x0800792e:    0000        ..      MOVS     r0,r0
    key_onpress_register
        0x08007930:    b139        9.      CBZ      r1,0x8007942 ; key_onpress_register + 18
        0x08007932:    2a05        .*      CMP      r2,#5
        0x08007934:    bf88        ..      IT       HI
        0x08007936:    4770        pG      BXHI     lr
        0x08007938:    eb0000c2    ....    ADD      r0,r0,r2,LSL #3
        0x0800793c:    6301        .c      STR      r1,[r0,#0x30]
        0x0800793e:    f8803034    ..40    STRB     r3,[r0,#0x34]
        0x08007942:    4770        pG      BX       lr
        0x08007944:    0000        ..      MOVS     r0,r0
        0x08007946:    0000        ..      MOVS     r0,r0
    key_press_callback
        0x08007948:    b570        p.      PUSH     {r4-r6,lr}
        0x0800794a:    f64015a0    @...    MOVW     r5,#0x9a0
        0x0800794e:    4604        .F      MOV      r4,r0
        0x08007950:    2600        .&      MOVS     r6,#0
        0x08007952:    f2c24500    ...E    MOVT     r5,#0x2400
        0x08007956:    e006        ..      B        0x8007966 ; key_press_callback + 30
        0x08007958:    6b01        .k      LDR      r1,[r0,#0x30]
        0x0800795a:    4628        (F      MOV      r0,r5
        0x0800795c:    f000f878    ..x.    BL       queue_insert ; 0x8007a50
        0x08007960:    3601        .6      ADDS     r6,#1
        0x08007962:    2e06        ..      CMP      r6,#6
        0x08007964:    d00a        ..      BEQ      0x800797c ; key_press_callback + 52
        0x08007966:    eb0400c6    ....    ADD      r0,r4,r6,LSL #3
        0x0800796a:    f8901034    ..4.    LDRB     r1,[r0,#0x34]
        0x0800796e:    2902        .)      CMP      r1,#2
        0x08007970:    d0f2        ..      BEQ      0x8007958 ; key_press_callback + 16
        0x08007972:    2901        .)      CMP      r1,#1
        0x08007974:    d1f4        ..      BNE      0x8007960 ; key_press_callback + 24
        0x08007976:    6b00        .k      LDR      r0,[r0,#0x30]
        0x08007978:    4780        .G      BLX      r0
        0x0800797a:    e7f1        ..      B        0x8007960 ; key_press_callback + 24
        0x0800797c:    bd70        p.      POP      {r4-r6,pc}
        0x0800797e:    0000        ..      MOVS     r0,r0
    key_set_level
        0x08007980:    f890202c    ..,     LDRB     r2,[r0,#0x2c]
        0x08007984:    f0010101    ....    AND      r1,r1,#1
        0x08007988:    f00202fe    ....    AND      r2,r2,#0xfe
        0x0800798c:    4411        .D      ADD      r1,r1,r2
        0x0800798e:    f880102c    ..,.    STRB     r1,[r0,#0x2c]
        0x08007992:    4770        pG      BX       lr
        0x08007994:    0000        ..      MOVS     r0,r0
        0x08007996:    0000        ..      MOVS     r0,r0
    main
        0x08007998:    f7fafc26    ..&.    BL       HAL_Init ; 0x80021e8
        0x0800799c:    f7fefc08    ....    BL       SystemClock_Config ; 0x80061b0
        0x080079a0:    f7fef9e6    ....    BL       PeriphCommonClock_Config ; 0x8005d70
        0x080079a4:    f7fef864    ..d.    BL       MX_GPIO_Init ; 0x8005a70
        0x080079a8:    f7fef952    ..R.    BL       MX_TIM6_Init ; 0x8005c50
        0x080079ac:    f7fef97c    ..|.    BL       MX_USART1_UART_Init ; 0x8005ca8
        0x080079b0:    f7fef802    ....    BL       MX_ADC1_Init ; 0x80059b8
        0x080079b4:    f7fffb9c    ....    BL       init ; 0x80070f0
        0x080079b8:    f000f86e    ..n.    BL       run ; 0x8007a98
        0x080079bc:    e7fc        ..      B        0x80079b8 ; main + 32
        0x080079be:    0000        ..      MOVS     r0,r0
    my_tick_elaps
        0x080079c0:    b510        ..      PUSH     {r4,lr}
        0x080079c2:    4604        .F      MOV      r4,r0
        0x080079c4:    f000f804    ....    BL       my_tick_get ; 0x80079d0
        0x080079c8:    1b00        ..      SUBS     r0,r0,r4
        0x080079ca:    bd10        ..      POP      {r4,pc}
        0x080079cc:    0000        ..      MOVS     r0,r0
        0x080079ce:    0000        ..      MOVS     r0,r0
    my_tick_get
        0x080079d0:    f64010f0    @...    MOVW     r0,#0x9f0
        0x080079d4:    f64011f4    @...    MOV      r1,#0x9f4
        0x080079d8:    f2c24000    ...@    MOVT     r0,#0x2400
        0x080079dc:    f2c24100    ...A    MOVT     r1,#0x2400
        0x080079e0:    2201        ."      MOVS     r2,#1
        0x080079e2:    6800        .h      LDR      r0,[r0,#0]
        0x080079e4:    700a        .p      STRB     r2,[r1,#0]
        0x080079e6:    780b        .x      LDRB     r3,[r1,#0]
        0x080079e8:    2b00        .+      CMP      r3,#0
        0x080079ea:    d0fb        ..      BEQ      0x80079e4 ; my_tick_get + 20
        0x080079ec:    4770        pG      BX       lr
        0x080079ee:    0000        ..      MOVS     r0,r0
    my_tick_inc
        0x080079f0:    f64011f4    @...    MOV      r1,#0x9f4
        0x080079f4:    2200        ."      MOVS     r2,#0
        0x080079f6:    f2c24100    ...A    MOVT     r1,#0x2400
        0x080079fa:    700a        .p      STRB     r2,[r1,#0]
        0x080079fc:    f64011f0    @...    MOVW     r1,#0x9f0
        0x08007a00:    f2c24100    ...A    MOVT     r1,#0x2400
        0x08007a04:    680a        .h      LDR      r2,[r1,#0]
        0x08007a06:    4410        .D      ADD      r0,r0,r2
        0x08007a08:    6008        .`      STR      r0,[r1,#0]
        0x08007a0a:    4770        pG      BX       lr
        0x08007a0c:    0000        ..      MOVS     r0,r0
        0x08007a0e:    0000        ..      MOVS     r0,r0
    queue_extract
        0x08007a10:    b580        ..      PUSH     {r7,lr}
        0x08007a12:    7802        .x      LDRB     r2,[r0,#0]
        0x08007a14:    7843        Cx      LDRB     r3,[r0,#1]
        0x08007a16:    429a        .B      CMP      r2,r3
        0x08007a18:    d102        ..      BNE      0x8007a20 ; queue_extract + 16
        0x08007a1a:    20ff        .       MOVS     r0,#0xff
        0x08007a1c:    b240        @.      SXTB     r0,r0
        0x08007a1e:    bd80        ..      POP      {r7,pc}
        0x08007a20:    f8d0c004    ....    LDR      r12,[r0,#4]
        0x08007a24:    78c3        .x      LDRB     r3,[r0,#3]
        0x08007a26:    f85cc022    \.".    LDR      r12,[r12,r2,LSL #2]
        0x08007a2a:    3201        .2      ADDS     r2,#1
        0x08007a2c:    fbb2fef3    ....    UDIV     lr,r2,r3
        0x08007a30:    f8c1c000    ....    STR      r12,[r1,#0]
        0x08007a34:    fb0e2113    ...!    MLS      r1,lr,r3,r2
        0x08007a38:    7001        .p      STRB     r1,[r0,#0]
        0x08007a3a:    2000        .       MOVS     r0,#0
        0x08007a3c:    b240        @.      SXTB     r0,r0
        0x08007a3e:    bd80        ..      POP      {r7,pc}
    queue_init
        0x08007a40:    4603        .F      MOV      r3,r0
        0x08007a42:    2000        .       MOVS     r0,#0
        0x08007a44:    8018        ..      STRH     r0,[r3,#0]
        0x08007a46:    2000        .       MOVS     r0,#0
        0x08007a48:    6059        Y`      STR      r1,[r3,#4]
        0x08007a4a:    70da        .p      STRB     r2,[r3,#3]
        0x08007a4c:    4770        pG      BX       lr
        0x08007a4e:    0000        ..      MOVS     r0,r0
    queue_insert
        0x08007a50:    b580        ..      PUSH     {r7,lr}
        0x08007a52:    f890c001    ....    LDRB     r12,[r0,#1]
        0x08007a56:    f890e003    ....    LDRB     lr,[r0,#3]
        0x08007a5a:    f10c0201    ....    ADD      r2,r12,#1
        0x08007a5e:    fbb2f3fe    ....    UDIV     r3,r2,lr
        0x08007a62:    fb03231e    ...#    MLS      r3,r3,lr,r2
        0x08007a66:    7802        .x      LDRB     r2,[r0,#0]
        0x08007a68:    4293        .B      CMP      r3,r2
        0x08007a6a:    d102        ..      BNE      0x8007a72 ; queue_insert + 34
        0x08007a6c:    20ff        .       MOVS     r0,#0xff
        0x08007a6e:    b240        @.      SXTB     r0,r0
        0x08007a70:    bd80        ..      POP      {r7,pc}
        0x08007a72:    6842        Bh      LDR      r2,[r0,#4]
        0x08007a74:    7043        Cp      STRB     r3,[r0,#1]
        0x08007a76:    2000        .       MOVS     r0,#0
        0x08007a78:    b240        @.      SXTB     r0,r0
        0x08007a7a:    f842102c    B.,.    STR      r1,[r2,r12,LSL #2]
        0x08007a7e:    bd80        ..      POP      {r7,pc}
    queue_length
        0x08007a80:    b2c2        ..      UXTB     r2,r0
        0x08007a82:    0e01        ..      LSRS     r1,r0,#24
        0x08007a84:    ebc26210    ...b    RSB      r2,r2,r0,LSR #24
        0x08007a88:    fa52f090    R...    UXTAB    r0,r2,r0,ROR #8
        0x08007a8c:    fb90f2f1    ....    SDIV     r2,r0,r1
        0x08007a90:    fb020011    ....    MLS      r0,r2,r1,r0
        0x08007a94:    b2c0        ..      UXTB     r0,r0
        0x08007a96:    4770        pG      BX       lr
    run
        0x08007a98:    b510        ..      PUSH     {r4,lr}
        0x08007a9a:    f2403038    @.80    MOVW     r0,#0x338
        0x08007a9e:    f2c24000    ...@    MOVT     r0,#0x2400
        0x08007aa2:    f7fffe5d    ..].    BL       key_get_event ; 0x8007760
        0x08007aa6:    2803        .(      CMP      r0,#3
        0x08007aa8:    d10d        ..      BNE      0x8007ac6 ; run + 46
        0x08007aaa:    f6400400    @...    MOVW     r4,#0x800
        0x08007aae:    2108        .!      MOVS     r1,#8
        0x08007ab0:    f6c50402    ....    MOVT     r4,#0x5802
        0x08007ab4:    2201        ."      MOVS     r2,#1
        0x08007ab6:    4620         F      MOV      r0,r4
        0x08007ab8:    f7fafb52    ..R.    BL       HAL_GPIO_WritePin ; 0x8002160
        0x08007abc:    2102        .!      MOVS     r1,#2
        0x08007abe:    2201        ."      MOVS     r2,#1
        0x08007ac0:    4620         F      MOV      r0,r4
        0x08007ac2:    f7fafb4d    ..M.    BL       HAL_GPIO_WritePin ; 0x8002160
        0x08007ac6:    f2403038    @.80    MOVW     r0,#0x338
        0x08007aca:    f2c24000    ...@    MOVT     r0,#0x2400
        0x08007ace:    f7fffe47    ..G.    BL       key_get_event ; 0x8007760
        0x08007ad2:    2804        .(      CMP      r0,#4
        0x08007ad4:    d116        ..      BNE      0x8007b04 ; run + 108
        0x08007ad6:    f2404058    @.X@    MOVW     r0,#0x458
        0x08007ada:    f2c24000    ...@    MOVT     r0,#0x2400
        0x08007ade:    f7fffe3f    ..?.    BL       key_get_event ; 0x8007760
        0x08007ae2:    2804        .(      CMP      r0,#4
        0x08007ae4:    bf18        ..      IT       NE
        0x08007ae6:    bd10        ..      POPNE    {r4,pc}
        0x08007ae8:    f6400400    @...    MOVW     r4,#0x800
        0x08007aec:    2108        .!      MOVS     r1,#8
        0x08007aee:    f6c50402    ....    MOVT     r4,#0x5802
        0x08007af2:    2200        ."      MOVS     r2,#0
        0x08007af4:    4620         F      MOV      r0,r4
        0x08007af6:    f7fafb33    ..3.    BL       HAL_GPIO_WritePin ; 0x8002160
        0x08007afa:    2102        .!      MOVS     r1,#2
        0x08007afc:    2200        ."      MOVS     r2,#0
        0x08007afe:    4620         F      MOV      r0,r4
        0x08007b00:    f7fafb2e    ....    BL       HAL_GPIO_WritePin ; 0x8002160
        0x08007b04:    bd10        ..      POP      {r4,pc}
        0x08007b06:    0000        ..      MOVS     r0,r0
    slink_getData
        0x08007b08:    8882        ..      LDRH     r2,[r0,#4]
        0x08007b0a:    f1a20201    ....    SUB      r2,r2,#1
        0x08007b0e:    b151        Q.      CBZ      r1,0x8007b26 ; slink_getData + 30
        0x08007b10:    f8d0c000    ....    LDR      r12,[r0,#0]
        0x08007b14:    2300        .#      MOVS     r3,#0
        0x08007b16:    bf00        ..      NOP      
        0x08007b18:    b292        ..      UXTH     r2,r2
        0x08007b1a:    3301        .3      ADDS     r3,#1
        0x08007b1c:    428b        .B      CMP      r3,r1
        0x08007b1e:    eb0c02c2    ....    ADD      r2,r12,r2,LSL #3
        0x08007b22:    8892        ..      LDRH     r2,[r2,#4]
        0x08007b24:    d3f8        ..      BCC      0x8007b18 ; slink_getData + 16
        0x08007b26:    b291        ..      UXTH     r1,r2
        0x08007b28:    6800        .h      LDR      r0,[r0,#0]
        0x08007b2a:    f8500031    P.1.    LDR      r0,[r0,r1,LSL #3]
        0x08007b2e:    4770        pG      BX       lr
    slink_init
        0x08007b30:    2a02        .*      CMP      r2,#2
        0x08007b32:    f1a20c01    ....    SUB      r12,r2,#1
        0x08007b36:    8082        ..      STRH     r2,[r0,#4]
        0x08007b38:    6001        .`      STR      r1,[r0,#0]
        0x08007b3a:    d308        ..      BCC      0x8007b4e ; slink_init + 30
        0x08007b3c:    2200        ."      MOVS     r2,#0
        0x08007b3e:    2300        .#      MOVS     r3,#0
        0x08007b40:    3301        .3      ADDS     r3,#1
        0x08007b42:    eb0100c2    ....    ADD      r0,r1,r2,LSL #3
        0x08007b46:    b29a        ..      UXTH     r2,r3
        0x08007b48:    4594        .E      CMP      r12,r2
        0x08007b4a:    8083        ..      STRH     r3,[r0,#4]
        0x08007b4c:    dcf8        ..      BGT      0x8007b40 ; slink_init + 16
        0x08007b4e:    eb0101cc    ....    ADD      r1,r1,r12,LSL #3
        0x08007b52:    2001        .       MOVS     r0,#1
        0x08007b54:    2200        ."      MOVS     r2,#0
        0x08007b56:    808a        ..      STRH     r2,[r1,#4]
        0x08007b58:    4770        pG      BX       lr
        0x08007b5a:    0000        ..      MOVS     r0,r0
        0x08007b5c:    0000        ..      MOVS     r0,r0
        0x08007b5e:    0000        ..      MOVS     r0,r0
    slink_insert
        0x08007b60:    b5f0        ..      PUSH     {r4-r7,lr}
        0x08007b62:    b081        ..      SUB      sp,sp,#4
        0x08007b64:    b349        I.      CBZ      r1,0x8007bba ; slink_insert + 90
        0x08007b66:    8887        ..      LDRH     r7,[r0,#4]
        0x08007b68:    460d        .F      MOV      r5,r1
        0x08007b6a:    4616        .F      MOV      r6,r2
        0x08007b6c:    4604        .F      MOV      r4,r0
        0x08007b6e:    f000f827    ..'.    BL       slink_length ; 0x8007bc0
        0x08007b72:    3001        .0      ADDS     r0,#1
        0x08007b74:    42a8        .B      CMP      r0,r5
        0x08007b76:    d320         .      BCC      0x8007bba ; slink_insert + 90
        0x08007b78:    4620         F      MOV      r0,r4
        0x08007b7a:    f000f831    ..1.    BL       slink_malloc ; 0x8007be0
        0x08007b7e:    b1e0        ..      CBZ      r0,0x8007bba ; slink_insert + 90
        0x08007b80:    6822        "h      LDR      r2,[r4,#0]
        0x08007b82:    2d02        .-      CMP      r5,#2
        0x08007b84:    f1a70101    ....    SUB      r1,r7,#1
        0x08007b88:    f8426030    B.0`    STR      r6,[r2,r0,LSL #3]
        0x08007b8c:    d309        ..      BCC      0x8007ba2 ; slink_insert + 66
        0x08007b8e:    6822        "h      LDR      r2,[r4,#0]
        0x08007b90:    2301        .#      MOVS     r3,#1
        0x08007b92:    bf00        ..      NOP      
        0x08007b94:    b289        ..      UXTH     r1,r1
        0x08007b96:    3301        .3      ADDS     r3,#1
        0x08007b98:    42ab        .B      CMP      r3,r5
        0x08007b9a:    eb0201c1    ....    ADD      r1,r2,r1,LSL #3
        0x08007b9e:    8889        ..      LDRH     r1,[r1,#4]
        0x08007ba0:    d3f8        ..      BCC      0x8007b94 ; slink_insert + 52
        0x08007ba2:    b289        ..      UXTH     r1,r1
        0x08007ba4:    6822        "h      LDR      r2,[r4,#0]
        0x08007ba6:    eb0201c1    ....    ADD      r1,r2,r1,LSL #3
        0x08007baa:    eb0202c0    ....    ADD      r2,r2,r0,LSL #3
        0x08007bae:    888b        ..      LDRH     r3,[r1,#4]
        0x08007bb0:    8093        ..      STRH     r3,[r2,#4]
        0x08007bb2:    8088        ..      STRH     r0,[r1,#4]
        0x08007bb4:    2001        .       MOVS     r0,#1
        0x08007bb6:    b001        ..      ADD      sp,sp,#4
        0x08007bb8:    bdf0        ..      POP      {r4-r7,pc}
        0x08007bba:    2000        .       MOVS     r0,#0
        0x08007bbc:    b001        ..      ADD      sp,sp,#4
        0x08007bbe:    bdf0        ..      POP      {r4-r7,pc}
    slink_length
        0x08007bc0:    8881        ..      LDRH     r1,[r0,#4]
        0x08007bc2:    6800        .h      LDR      r0,[r0,#0]
        0x08007bc4:    2200        ."      MOVS     r2,#0
        0x08007bc6:    3901        .9      SUBS     r1,#1
        0x08007bc8:    eb0001c1    ....    ADD      r1,r0,r1,LSL #3
        0x08007bcc:    4613        .F      MOV      r3,r2
        0x08007bce:    3201        .2      ADDS     r2,#1
        0x08007bd0:    8889        ..      LDRH     r1,[r1,#4]
        0x08007bd2:    2900        .)      CMP      r1,#0
        0x08007bd4:    d1f8        ..      BNE      0x8007bc8 ; slink_length + 8
        0x08007bd6:    b298        ..      UXTH     r0,r3
        0x08007bd8:    4770        pG      BX       lr
        0x08007bda:    0000        ..      MOVS     r0,r0
        0x08007bdc:    0000        ..      MOVS     r0,r0
        0x08007bde:    0000        ..      MOVS     r0,r0
    slink_malloc
        0x08007be0:    6801        .h      LDR      r1,[r0,#0]
        0x08007be2:    8888        ..      LDRH     r0,[r1,#4]
        0x08007be4:    2800        .(      CMP      r0,#0
        0x08007be6:    bf08        ..      IT       EQ
        0x08007be8:    4770        pG      BXEQ     lr
        0x08007bea:    eb0102c0    ....    ADD      r2,r1,r0,LSL #3
        0x08007bee:    8892        ..      LDRH     r2,[r2,#4]
        0x08007bf0:    808a        ..      STRH     r2,[r1,#4]
        0x08007bf2:    4770        pG      BX       lr
    $t
    x$fpl$fpinit
    $v0
    _fp_init
        0x08007bf4:    eef10a10    ....    VMRS     r0,FPSCR
        0x08007bf8:    f64f71ff    O..q    MOV      r1,#0xffff
        0x08007bfc:    f2c031c0    ...1    MOVT     r1,#0x3c0
        0x08007c00:    ea200001     ...    BIC      r0,r0,r1
        0x08007c04:    f0407040    @.@p    ORR      r0,r0,#0x3000000
        0x08007c08:    eee10a10    ....    VMSR     FPSCR,r0
    __fplib_config_fpu_vfp
    __fplib_config_pureend_doubles
        0x08007c0c:    4770        pG      BX       lr
    $d.realdata
    D1CorePrescTable
        0x08007c0e:    0000        ..      DCW    0
        0x08007c10:    02010000    ....    DCD    33619968
        0x08007c14:    02010403    ....    DCD    33620995
        0x08007c18:    07060403    ....    DCD    117834755
        0x08007c1c:    0908        ..      DCW    2312
    UARTPrescTable
        0x08007c1e:    0001        ..      DCW    1
        0x08007c20:    00040002    ....    DCD    262146
        0x08007c24:    00080006    ....    DCD    524294
        0x08007c28:    000c000a    ....    DCD    786442
        0x08007c2c:    00200010    .. .    DCD    2097168
        0x08007c30:    00800040    @...    DCD    8388672
        0x08007c34:    0100        ..      DCW    256
    UARTEx_SetNbDataToProcess.numerator
        0x08007c36:    0101        ..      DCW    257
        0x08007c38:    01070301    ....    DCD    17236737
        0x08007c3c:    0000        ..      DCW    0
    UARTEx_SetNbDataToProcess.denominator
        0x08007c3e:    0408        ..      DCW    1032
        0x08007c40:    01080402    ....    DCD    17302530
        0x08007c44:    0101        ..      DCW    257
    key_adcRange
        0x08007c46:    0dbe        ..      DCW    3518
        0x08007c48:    0cca0daa    ....    DCD    214568362
        0x08007c4c:    0ae50cbb    ....    DCD    182783163
        0x08007c50:    07cf0ad5    ....    DCD    131009237
        0x08007c54:    0c3707c0    ..7.    DCD    204933056
        0x08007c58:    0a380c2a    *.8.    DCD    171445290
        0x08007c5c:    072a0a28    (.*.    DCD    120195624
        0x08007c60:    09ca071d    ....    DCD    164235037
        0x08007c64:    06c909be    ....    DCD    113838526
        0x08007c68:    060f06b0    ....    DCD    101648048
        0x08007c6c:    098505fa    ....    DCD    159712762
        0x08007c70:    06780970    p.x.    DCD    108530032
        0x08007c74:    05ba0660    `...    DCD    96077408
        0x08007c78:    057f05a0    ....    DCD    92210592
        0x08007c7c:    0555056d    m.U.    DCD    89458029
        0x08007c80:    053a        :.      DCW    1338
    .L.str
        0x08007c82:    2e2e        ..      DCW    11822
        0x08007c84:    6972442f    /Dri    DCD    1769096239
        0x08007c88:    73726576    vers    DCD    1936876918
        0x08007c8c:    4d54532f    /STM    DCD    1297371951
        0x08007c90:    37483233    32H7    DCD    927478323
        0x08007c94:    485f7878    xx_H    DCD    1214216312
        0x08007c98:    445f4c41    AL_D    DCD    1147096129
        0x08007c9c:    65766972    rive    DCD    1702259058
        0x08007ca0:    72532f72    r/Sr    DCD    1918054258
        0x08007ca4:    74732f63    c/st    DCD    1953705827
        0x08007ca8:    6832336d    m32h    DCD    1748120429
        0x08007cac:    5f787837    7xx_    DCD    1601730615
        0x08007cb0:    5f6c6168    hal_    DCD    1600938344
        0x08007cb4:    2e636461    adc.    DCD    778265697
        0x08007cb8:    0063        c.      DCW    99
    .L.str
        0x08007cba:    2e2e        ..      DCW    11822
        0x08007cbc:    6972442f    /Dri    DCD    1769096239
        0x08007cc0:    73726576    vers    DCD    1936876918
        0x08007cc4:    4d54532f    /STM    DCD    1297371951
        0x08007cc8:    37483233    32H7    DCD    927478323
        0x08007ccc:    485f7878    xx_H    DCD    1214216312
        0x08007cd0:    445f4c41    AL_D    DCD    1147096129
        0x08007cd4:    65766972    rive    DCD    1702259058
        0x08007cd8:    72532f72    r/Sr    DCD    1918054258
        0x08007cdc:    74732f63    c/st    DCD    1953705827
        0x08007ce0:    6832336d    m32h    DCD    1748120429
        0x08007ce4:    5f787837    7xx_    DCD    1601730615
        0x08007ce8:    5f6c6168    hal_    DCD    1600938344
        0x08007cec:    5f636461    adc_    DCD    1600349281
        0x08007cf0:    632e7865    ex.c    DCD    1663989861
        0x08007cf4:    00          .       DCB    0
    .L.str
        0x08007cf5:    2e2e2f      ../     DCB    46,46,47
        0x08007cf8:    76697244    Driv    DCD    1986622020
        0x08007cfc:    2f737265    ers/    DCD    796095077
        0x08007d00:    334d5453    STM3    DCD    860705875
        0x08007d04:    78374832    2H7x    DCD    2016888882
        0x08007d08:    41485f78    x_HA    DCD    1095262072
        0x08007d0c:    72445f4c    L_Dr    DCD    1917083468
        0x08007d10:    72657669    iver    DCD    1919252073
        0x08007d14:    6372532f    /Src    DCD    1668436783
        0x08007d18:    6d74732f    /stm    DCD    1836348207
        0x08007d1c:    37683233    32h7    DCD    929575475
        0x08007d20:    685f7878    xx_h    DCD    1751087224
        0x08007d24:    725f6c61    al_r    DCD    1918856289
        0x08007d28:    632e6363    cc.c    DCD    1663984483
        0x08007d2c:    00          .       DCB    0
    .L.str
        0x08007d2d:    2e2e2f      ../     DCB    46,46,47
        0x08007d30:    76697244    Driv    DCD    1986622020
        0x08007d34:    2f737265    ers/    DCD    796095077
        0x08007d38:    334d5453    STM3    DCD    860705875
        0x08007d3c:    78374832    2H7x    DCD    2016888882
        0x08007d40:    41485f78    x_HA    DCD    1095262072
        0x08007d44:    72445f4c    L_Dr    DCD    1917083468
        0x08007d48:    72657669    iver    DCD    1919252073
        0x08007d4c:    6372532f    /Src    DCD    1668436783
        0x08007d50:    6d74732f    /stm    DCD    1836348207
        0x08007d54:    37683233    32h7    DCD    929575475
        0x08007d58:    685f7878    xx_h    DCD    1751087224
        0x08007d5c:    725f6c61    al_r    DCD    1918856289
        0x08007d60:    655f6363    cc_e    DCD    1700750179
        0x08007d64:    00632e78    x.c.    DCD    6499960
    .L.str
        0x08007d68:    442f2e2e    ../D    DCD    1143942702
        0x08007d6c:    65766972    rive    DCD    1702259058
        0x08007d70:    532f7372    rs/S    DCD    1395618674
        0x08007d74:    32334d54    TM32    DCD    842222932
        0x08007d78:    78783748    H7xx    DCD    2021144392
        0x08007d7c:    4c41485f    _HAL    DCD    1279346783
        0x08007d80:    6972445f    _Dri    DCD    1769096287
        0x08007d84:    2f726576    ver/    DCD    796026230
        0x08007d88:    2f637253    Src/    DCD    795046483
        0x08007d8c:    336d7473    stm3    DCD    862811251
        0x08007d90:    78376832    2h7x    DCD    2016897074
        0x08007d94:    61685f78    x_ha    DCD    1634230136
        0x08007d98:    70675f6c    l_gp    DCD    1885822828
        0x08007d9c:    632e6f69    io.c    DCD    1663987561
        0x08007da0:    00          .       DCB    0
    .L.str
        0x08007da1:    2e2e2f      ../     DCB    46,46,47
        0x08007da4:    76697244    Driv    DCD    1986622020
        0x08007da8:    2f737265    ers/    DCD    796095077
        0x08007dac:    334d5453    STM3    DCD    860705875
        0x08007db0:    78374832    2H7x    DCD    2016888882
        0x08007db4:    41485f78    x_HA    DCD    1095262072
        0x08007db8:    72445f4c    L_Dr    DCD    1917083468
        0x08007dbc:    72657669    iver    DCD    1919252073
        0x08007dc0:    6372532f    /Src    DCD    1668436783
        0x08007dc4:    6d74732f    /stm    DCD    1836348207
        0x08007dc8:    37683233    32h7    DCD    929575475
        0x08007dcc:    685f7878    xx_h    DCD    1751087224
        0x08007dd0:    705f6c61    al_p    DCD    1885301857
        0x08007dd4:    655f7277    wr_e    DCD    1700754039
        0x08007dd8:    00632e78    x.c.    DCD    6499960
    .L.str
        0x08007ddc:    442f2e2e    ../D    DCD    1143942702
        0x08007de0:    65766972    rive    DCD    1702259058
        0x08007de4:    532f7372    rs/S    DCD    1395618674
        0x08007de8:    32334d54    TM32    DCD    842222932
        0x08007dec:    78783748    H7xx    DCD    2021144392
        0x08007df0:    4c41485f    _HAL    DCD    1279346783
        0x08007df4:    6972445f    _Dri    DCD    1769096287
        0x08007df8:    2f726576    ver/    DCD    796026230
        0x08007dfc:    2f637253    Src/    DCD    795046483
        0x08007e00:    336d7473    stm3    DCD    862811251
        0x08007e04:    78376832    2h7x    DCD    2016897074
        0x08007e08:    61685f78    x_ha    DCD    1634230136
        0x08007e0c:    6f635f6c    l_co    DCD    1868783468
        0x08007e10:    78657472    rtex    DCD    2019914866
        0x08007e14:    632e        .c      DCW    25390
        0x08007e16:    00          .       DCB    0
    .L.str
        0x08007e17:    2e          .       DCB    46
        0x08007e18:    72442f2e    ./Dr    DCD    1917071150
        0x08007e1c:    72657669    iver    DCD    1919252073
        0x08007e20:    54532f73    s/ST    DCD    1414737779
        0x08007e24:    4832334d    M32H    DCD    1211249485
        0x08007e28:    5f787837    7xx_    DCD    1601730615
        0x08007e2c:    5f4c4148    HAL_    DCD    1598832968
        0x08007e30:    76697244    Driv    DCD    1986622020
        0x08007e34:    532f7265    er/S    DCD    1395618405
        0x08007e38:    732f6372    rc/s    DCD    1932485490
        0x08007e3c:    32336d74    tm32    DCD    842231156
        0x08007e40:    78783768    h7xx    DCD    2021144424
        0x08007e44:    6c61685f    _hal    DCD    1818323039
        0x08007e48:    6d69745f    _tim    DCD    1835627615
        0x08007e4c:    632e        .c      DCW    25390
        0x08007e4e:    00          .       DCB    0
    .L.str
        0x08007e4f:    2e          .       DCB    46
        0x08007e50:    72442f2e    ./Dr    DCD    1917071150
        0x08007e54:    72657669    iver    DCD    1919252073
        0x08007e58:    54532f73    s/ST    DCD    1414737779
        0x08007e5c:    4832334d    M32H    DCD    1211249485
        0x08007e60:    5f787837    7xx_    DCD    1601730615
        0x08007e64:    5f4c4148    HAL_    DCD    1598832968
        0x08007e68:    76697244    Driv    DCD    1986622020
        0x08007e6c:    532f7265    er/S    DCD    1395618405
        0x08007e70:    732f6372    rc/s    DCD    1932485490
        0x08007e74:    32336d74    tm32    DCD    842231156
        0x08007e78:    78783768    h7xx    DCD    2021144424
        0x08007e7c:    6c61685f    _hal    DCD    1818323039
        0x08007e80:    6d69745f    _tim    DCD    1835627615
        0x08007e84:    2e78655f    _ex.    DCD    779642207
        0x08007e88:    0063        c.      DCW    99
    .L.str
        0x08007e8a:    2e2e        ..      DCW    11822
        0x08007e8c:    6972442f    /Dri    DCD    1769096239
        0x08007e90:    73726576    vers    DCD    1936876918
        0x08007e94:    4d54532f    /STM    DCD    1297371951
        0x08007e98:    37483233    32H7    DCD    927478323
        0x08007e9c:    485f7878    xx_H    DCD    1214216312
        0x08007ea0:    445f4c41    AL_D    DCD    1147096129
        0x08007ea4:    65766972    rive    DCD    1702259058
        0x08007ea8:    72532f72    r/Sr    DCD    1918054258
        0x08007eac:    74732f63    c/st    DCD    1953705827
        0x08007eb0:    6832336d    m32h    DCD    1748120429
        0x08007eb4:    5f787837    7xx_    DCD    1601730615
        0x08007eb8:    5f6c6168    hal_    DCD    1600938344
        0x08007ebc:    74726175    uart    DCD    1953653109
        0x08007ec0:    632e        .c      DCW    25390
        0x08007ec2:    00          .       DCB    0
    .L.str
        0x08007ec3:    2e          .       DCB    46
        0x08007ec4:    72442f2e    ./Dr    DCD    1917071150
        0x08007ec8:    72657669    iver    DCD    1919252073
        0x08007ecc:    54532f73    s/ST    DCD    1414737779
        0x08007ed0:    4832334d    M32H    DCD    1211249485
        0x08007ed4:    5f787837    7xx_    DCD    1601730615
        0x08007ed8:    5f4c4148    HAL_    DCD    1598832968
        0x08007edc:    76697244    Driv    DCD    1986622020
        0x08007ee0:    532f7265    er/S    DCD    1395618405
        0x08007ee4:    732f6372    rc/s    DCD    1932485490
        0x08007ee8:    32336d74    tm32    DCD    842231156
        0x08007eec:    78783768    h7xx    DCD    2021144424
        0x08007ef0:    6c61685f    _hal    DCD    1818323039
        0x08007ef4:    7261755f    _uar    DCD    1918989663
        0x08007ef8:    78655f74    t_ex    DCD    2019909492
        0x08007efc:    0000632e    .c..    DCD    25390
    Region$$Table$$Base
        0x08007f00:    08007f20     ...    DCD    134250272
        0x08007f04:    24000000    ...$    DCD    603979776
        0x08007f08:    00000010    ....    DCD    16
        0x08007f0c:    080002d4    ....    DCD    134218452
        0x08007f10:    08007f30    0...    DCD    134250288
        0x08007f14:    24000010    ...$    DCD    603979792
        0x08007f18:    00004df0    .M..    DCD    19952
        0x08007f1c:    080002f0    ....    DCD    134218480
    Region$$Table$$Limit

** Section #2 'RW_IRAM2' (SHT_PROGBITS) [SHF_ALLOC + SHF_WRITE]
    Size   : 16 bytes (alignment 8)
    Address: 0x24000000


** Section #3 'RW_IRAM2' (SHT_NOBITS) [SHF_ALLOC + SHF_WRITE]
    Size   : 19952 bytes (alignment 8)
    Address: 0x24000010


** Section #4 '.debug_abbrev' (SHT_PROGBITS)
    Size   : 8884 bytes


** Section #5 '.debug_frame' (SHT_PROGBITS)
    Size   : 15556 bytes


** Section #6 '.debug_info' (SHT_PROGBITS)
    Size   : 95067 bytes


** Section #7 '.debug_line' (SHT_PROGBITS)
    Size   : 83126 bytes


** Section #8 '.debug_loc' (SHT_PROGBITS)
    Size   : 52298 bytes


** Section #9 '.debug_str' (SHT_PROGBITS)
    Size   : 70967 bytes


** Section #10 '.debug_ranges' (SHT_PROGBITS)
    Size   : 5504 bytes


** Section #11 '.symtab' (SHT_SYMTAB)
    Size   : 11296 bytes (alignment 4)
    String table #12 '.strtab'
    Last local symbol no. 335


** Section #12 '.strtab' (SHT_STRTAB)
    Size   : 11284 bytes


** Section #13 '.note' (SHT_NOTE)
    Size   : 28 bytes (alignment 4)


** Section #14 '.comment' (SHT_PROGBITS)
    Size   : 1880 bytes


** Section #15 '.shstrtab' (SHT_STRTAB)
    Size   : 156 bytes


address     size       variable name                            type
0x08007c0e  0x10       D1CorePrescTable                         array[16] of const uint8_t

address     size       variable name                            type
0x24000000  0x4        SystemCoreClock                          uint32_t

address     size       variable name                            type
0x24000004  0x4        SystemD2Clock                            uint32_t

address     size       variable name                            type
0x08007c1e  0x18       UARTPrescTable                           array[12] of const uint16_t

address     size       variable name                            type
0x240009f8  0x4        uwTick                                   volatile uint32_t

address     size       variable name                            type
0x24000008  0x1        uwTickFreq                               HAL_TickFreqTypeDef

address     size       variable name                            type
0x2400000c  0x4        uwTickPrio                               uint32_t

address     size       variable name                            type
0x24000184  0x94       huart1                                   UART_HandleTypeDef
0x24000184  0x4        huart1.Instance                          pointer to USART_TypeDef
0x24000188  0x24       huart1.Init                              UART_InitTypeDef
0x24000188  0x4        huart1.Init.BaudRate                     uint32_t
0x2400018c  0x4        huart1.Init.WordLength                   uint32_t
0x24000190  0x4        huart1.Init.StopBits                     uint32_t
0x24000194  0x4        huart1.Init.Parity                       uint32_t
0x24000198  0x4        huart1.Init.Mode                         uint32_t
0x2400019c  0x4        huart1.Init.HwFlowCtl                    uint32_t
0x240001a0  0x4        huart1.Init.OverSampling                 uint32_t
0x240001a4  0x4        huart1.Init.OneBitSampling               uint32_t
0x240001a8  0x4        huart1.Init.ClockPrescaler               uint32_t
0x240001ac  0x28       huart1.AdvancedInit                      UART_AdvFeatureInitTypeDef
0x240001ac  0x4        huart1.AdvancedInit.AdvFeatureInit       uint32_t
0x240001b0  0x4        huart1.AdvancedInit.TxPinLevelInvert     uint32_t
0x240001b4  0x4        huart1.AdvancedInit.RxPinLevelInvert     uint32_t
0x240001b8  0x4        huart1.AdvancedInit.DataInvert           uint32_t
0x240001bc  0x4        huart1.AdvancedInit.Swap                 uint32_t
0x240001c0  0x4        huart1.AdvancedInit.OverrunDisable       uint32_t
0x240001c4  0x4        huart1.AdvancedInit.DMADisableonRxError  uint32_t
0x240001c8  0x4        huart1.AdvancedInit.AutoBaudRateEnable   uint32_t
0x240001cc  0x4        huart1.AdvancedInit.AutoBaudRateMode     uint32_t
0x240001d0  0x4        huart1.AdvancedInit.MSBFirst             uint32_t
0x240001d4  0x4        huart1.pTxBuffPtr                        pointer to const uint8_t
0x240001d8  0x2        huart1.TxXferSize                        uint16_t
0x240001da  0x2        huart1.TxXferCount                       volatile uint16_t
0x240001dc  0x4        huart1.pRxBuffPtr                        pointer to uint8_t
0x240001e0  0x2        huart1.RxXferSize                        uint16_t
0x240001e2  0x2        huart1.RxXferCount                       volatile uint16_t
0x240001e4  0x2      * huart1.Mask                              uint16_t
0x240001e8  0x4        huart1.FifoMode                          uint32_t
0x240001ec  0x2        huart1.NbRxDataToProcess                 uint16_t
0x240001ee  0x2        huart1.NbTxDataToProcess                 uint16_t
0x240001f0  0x4        huart1.ReceptionType                     volatile HAL_UART_RxTypeTypeDef
0x240001f4  0x4        huart1.RxEventType                       volatile HAL_UART_RxEventTypeTypeDef
0x240001f8  0x4        huart1.RxISR                             pointer to function 
0x240001fc  0x4        huart1.TxISR                             pointer to function 
0x24000200  0x4        huart1.hdmatx                            pointer to DMA_HandleTypeDef
0x24000204  0x4        huart1.hdmarx                            pointer to DMA_HandleTypeDef
0x24000208  0x1      * huart1.Lock                              HAL_LockTypeDef
0x2400020c  0x4        huart1.gState                            volatile HAL_UART_StateTypeDef
0x24000210  0x4        huart1.RxState                           volatile HAL_UART_StateTypeDef
0x24000214  0x4        huart1.ErrorCode                         volatile uint32_t

address     size       variable name                            type
0x24000138  0x4c       htim6                                    TIM_HandleTypeDef
0x24000138  0x4        htim6.Instance                           pointer to TIM_TypeDef
0x2400013c  0x18       htim6.Init                               TIM_Base_InitTypeDef
0x2400013c  0x4        htim6.Init.Prescaler                     uint32_t
0x24000140  0x4        htim6.Init.CounterMode                   uint32_t
0x24000144  0x4        htim6.Init.Period                        uint32_t
0x24000148  0x4        htim6.Init.ClockDivision                 uint32_t
0x2400014c  0x4        htim6.Init.RepetitionCounter             uint32_t
0x24000150  0x4        htim6.Init.AutoReloadPreload             uint32_t
0x24000154  0x1      * htim6.Channel                            HAL_TIM_ActiveChannel
0x24000158  0x1c       htim6.hdma                               array[7] of pointer to DMA_HandleTypeDef
0x24000174  0x1        htim6.Lock                               HAL_LockTypeDef
0x24000175  0x1        htim6.State                              volatile HAL_TIM_StateTypeDef
0x24000176  0x6        htim6.ChannelState                       array[6] of volatile HAL_TIM_ChannelStateTypeDef
0x2400017c  0x4        htim6.ChannelNState                      array[4] of volatile HAL_TIM_ChannelStateTypeDef
0x24000180  0x1        htim6.DMABurstState                      volatile HAL_TIM_DMABurstStateTypeDef

address     size       variable name                            type
0x240000d4  0x64       hadc1                                    ADC_HandleTypeDef
0x240000d4  0x4        hadc1.Instance                           pointer to ADC_TypeDef
0x240000d8  0x48       hadc1.Init                               ADC_InitTypeDef
0x240000d8  0x4        hadc1.Init.ClockPrescaler                uint32_t
0x240000dc  0x4        hadc1.Init.Resolution                    uint32_t
0x240000e0  0x4        hadc1.Init.ScanConvMode                  uint32_t
0x240000e4  0x4        hadc1.Init.EOCSelection                  uint32_t
0x240000e8  0x1        hadc1.Init.LowPowerAutoWait              FunctionalState
0x240000e9  0x1      * hadc1.Init.ContinuousConvMode            FunctionalState
0x240000ec  0x4        hadc1.Init.NbrOfConversion               uint32_t
0x240000f0  0x1      * hadc1.Init.DiscontinuousConvMode         FunctionalState
0x240000f4  0x4        hadc1.Init.NbrOfDiscConversion           uint32_t
0x240000f8  0x4        hadc1.Init.ExternalTrigConv              uint32_t
0x240000fc  0x4        hadc1.Init.ExternalTrigConvEdge          uint32_t
0x24000100  0x4        hadc1.Init.ConversionDataManagement      uint32_t
0x24000104  0x4        hadc1.Init.Overrun                       uint32_t
0x24000108  0x4        hadc1.Init.LeftBitShift                  uint32_t
0x2400010c  0x1      * hadc1.Init.OversamplingMode              FunctionalState
0x24000110  0x10       hadc1.Init.Oversampling                  ADC_OversamplingTypeDef
0x24000110  0x4        hadc1.Init.Oversampling.Ratio            uint32_t
0x24000114  0x4        hadc1.Init.Oversampling.RightBitShift    uint32_t
0x24000118  0x4        hadc1.Init.Oversampling.TriggeredMode    uint32_t
0x2400011c  0x4        hadc1.Init.Oversampling.OversamplingStopReset uint32_t
0x24000120  0x4        hadc1.DMA_Handle                         pointer to DMA_HandleTypeDef
0x24000124  0x1      * hadc1.Lock                               HAL_LockTypeDef
0x24000128  0x4        hadc1.State                              volatile uint32_t
0x2400012c  0x4        hadc1.ErrorCode                          volatile uint32_t
0x24000130  0x8        hadc1.InjectionConfig                    ADC_InjectionConfigTypeDef
0x24000130  0x4        hadc1.InjectionConfig.ContextQueue       uint32_t
0x24000134  0x4        hadc1.InjectionConfig.ChannelCount       uint32_t

address     size       variable name                            type
0x24000070  0x8        KeyADCPort                               key_adc_port_t
0x24000070  0x8        KeyADCPort.pin                           array[4] of uint16_t

address     size       variable name                            type
0x24000218  0x120      key1                                     key_t
0x24000218  0x4        key1.read                                pointer to function 
0x2400021c  0x4        key1.gpiox                               pointer to unknown Type 
0x24000220  0x2      * key1.gpio_pin                            uint16_t
0x24000224  0x4        key1.dblclick_target                     uint32_t
0x24000228  0x4        key1.dblclick_timestamp                  uint32_t
0x2400022c  0x4        key1.lp_target                           uint32_t
0x24000230  0x4        key1.lp_timestamp                        uint32_t
0x24000234  0x4        key1.lp_interval                         uint32_t
0x24000238  0x4        key1.pcnt_timestamp                      uint32_t
0x2400023c  0x4        key1.pcnt_interval                       uint32_t
0x24000240  0x4        key1.pcnt_target                         uint32_t
0x24000244  0x1(7:1)   key1.level                               uint8_t
0x24000244  0x1(6:1)   key1.temp                                uint8_t
0x24000244  0x1(5:1)   key1.state                               uint8_t
0x24000244  0x1(4:1)   key1.press_state                         uint8_t
0x24000244  0x1(3:1)   key1.pcnt_state                          uint8_t
0x24000244  0x1(2:1)   key1.bounce_state                        uint8_t
0x24000244  0x1(1:1)   key1.dbclick_state                       uint8_t
0x24000244  0x1(0:1)   key1.lp_state                            uint8_t
0x24000245  0x1(7:1)   key1.pcnt_flag                           uint8_t
0x24000245  0x1(6:1)   key1.bounce_flag                         uint8_t
0x24000245  0x1(5:1)   key1.click_flag                          uint8_t
0x24000245  0x1(4:1)   key1.dblclick_flag                       uint8_t
0x24000245  0x1(3:1)   key1.lp_flag                             uint8_t
0x24000246  0x1        key1.id                                  uint8_t
0x24000247  0x1        key1.event                               key_event_e
0x24000248  0x30       key1.press_cb                            array[6] of key_cb_t
0x24000278  0x30       key1.bounce_cb                           array[6] of key_cb_t
0x240002a8  0x30       key1.click_cb                            array[6] of key_cb_t
0x240002d8  0x30       key1.dbclick_cb                          array[6] of key_cb_t
0x24000308  0x30       key1.lp_cb                               array[6] of key_cb_t

address     size       variable name                            type
0x24000338  0x120      key2                                     key_t
0x24000338  0x4        key2.read                                pointer to function 
0x2400033c  0x4        key2.gpiox                               pointer to unknown Type 
0x24000340  0x2      * key2.gpio_pin                            uint16_t
0x24000344  0x4        key2.dblclick_target                     uint32_t
0x24000348  0x4        key2.dblclick_timestamp                  uint32_t
0x2400034c  0x4        key2.lp_target                           uint32_t
0x24000350  0x4        key2.lp_timestamp                        uint32_t
0x24000354  0x4        key2.lp_interval                         uint32_t
0x24000358  0x4        key2.pcnt_timestamp                      uint32_t
0x2400035c  0x4        key2.pcnt_interval                       uint32_t
0x24000360  0x4        key2.pcnt_target                         uint32_t
0x24000364  0x1(7:1)   key2.level                               uint8_t
0x24000364  0x1(6:1)   key2.temp                                uint8_t
0x24000364  0x1(5:1)   key2.state                               uint8_t
0x24000364  0x1(4:1)   key2.press_state                         uint8_t
0x24000364  0x1(3:1)   key2.pcnt_state                          uint8_t
0x24000364  0x1(2:1)   key2.bounce_state                        uint8_t
0x24000364  0x1(1:1)   key2.dbclick_state                       uint8_t
0x24000364  0x1(0:1)   key2.lp_state                            uint8_t
0x24000365  0x1(7:1)   key2.pcnt_flag                           uint8_t
0x24000365  0x1(6:1)   key2.bounce_flag                         uint8_t
0x24000365  0x1(5:1)   key2.click_flag                          uint8_t
0x24000365  0x1(4:1)   key2.dblclick_flag                       uint8_t
0x24000365  0x1(3:1)   key2.lp_flag                             uint8_t
0x24000366  0x1        key2.id                                  uint8_t
0x24000367  0x1        key2.event                               key_event_e
0x24000368  0x30       key2.press_cb                            array[6] of key_cb_t
0x24000398  0x30       key2.bounce_cb                           array[6] of key_cb_t
0x240003c8  0x30       key2.click_cb                            array[6] of key_cb_t
0x240003f8  0x30       key2.dbclick_cb                          array[6] of key_cb_t
0x24000428  0x30       key2.lp_cb                               array[6] of key_cb_t

address     size       variable name                            type
0x24000458  0x120      key3                                     key_t
0x24000458  0x4        key3.read                                pointer to function 
0x2400045c  0x4        key3.gpiox                               pointer to unknown Type 
0x24000460  0x2      * key3.gpio_pin                            uint16_t
0x24000464  0x4        key3.dblclick_target                     uint32_t
0x24000468  0x4        key3.dblclick_timestamp                  uint32_t
0x2400046c  0x4        key3.lp_target                           uint32_t
0x24000470  0x4        key3.lp_timestamp                        uint32_t
0x24000474  0x4        key3.lp_interval                         uint32_t
0x24000478  0x4        key3.pcnt_timestamp                      uint32_t
0x2400047c  0x4        key3.pcnt_interval                       uint32_t
0x24000480  0x4        key3.pcnt_target                         uint32_t
0x24000484  0x1(7:1)   key3.level                               uint8_t
0x24000484  0x1(6:1)   key3.temp                                uint8_t
0x24000484  0x1(5:1)   key3.state                               uint8_t
0x24000484  0x1(4:1)   key3.press_state                         uint8_t
0x24000484  0x1(3:1)   key3.pcnt_state                          uint8_t
0x24000484  0x1(2:1)   key3.bounce_state                        uint8_t
0x24000484  0x1(1:1)   key3.dbclick_state                       uint8_t
0x24000484  0x1(0:1)   key3.lp_state                            uint8_t
0x24000485  0x1(7:1)   key3.pcnt_flag                           uint8_t
0x24000485  0x1(6:1)   key3.bounce_flag                         uint8_t
0x24000485  0x1(5:1)   key3.click_flag                          uint8_t
0x24000485  0x1(4:1)   key3.dblclick_flag                       uint8_t
0x24000485  0x1(3:1)   key3.lp_flag                             uint8_t
0x24000486  0x1        key3.id                                  uint8_t
0x24000487  0x1        key3.event                               key_event_e
0x24000488  0x30       key3.press_cb                            array[6] of key_cb_t
0x240004b8  0x30       key3.bounce_cb                           array[6] of key_cb_t
0x240004e8  0x30       key3.click_cb                            array[6] of key_cb_t
0x24000518  0x30       key3.dbclick_cb                          array[6] of key_cb_t
0x24000548  0x30       key3.lp_cb                               array[6] of key_cb_t

address     size       variable name                            type
0x24000578  0x120      key4                                     key_t
0x24000578  0x4        key4.read                                pointer to function 
0x2400057c  0x4        key4.gpiox                               pointer to unknown Type 
0x24000580  0x2      * key4.gpio_pin                            uint16_t
0x24000584  0x4        key4.dblclick_target                     uint32_t
0x24000588  0x4        key4.dblclick_timestamp                  uint32_t
0x2400058c  0x4        key4.lp_target                           uint32_t
0x24000590  0x4        key4.lp_timestamp                        uint32_t
0x24000594  0x4        key4.lp_interval                         uint32_t
0x24000598  0x4        key4.pcnt_timestamp                      uint32_t
0x2400059c  0x4        key4.pcnt_interval                       uint32_t
0x240005a0  0x4        key4.pcnt_target                         uint32_t
0x240005a4  0x1(7:1)   key4.level                               uint8_t
0x240005a4  0x1(6:1)   key4.temp                                uint8_t
0x240005a4  0x1(5:1)   key4.state                               uint8_t
0x240005a4  0x1(4:1)   key4.press_state                         uint8_t
0x240005a4  0x1(3:1)   key4.pcnt_state                          uint8_t
0x240005a4  0x1(2:1)   key4.bounce_state                        uint8_t
0x240005a4  0x1(1:1)   key4.dbclick_state                       uint8_t
0x240005a4  0x1(0:1)   key4.lp_state                            uint8_t
0x240005a5  0x1(7:1)   key4.pcnt_flag                           uint8_t
0x240005a5  0x1(6:1)   key4.bounce_flag                         uint8_t
0x240005a5  0x1(5:1)   key4.click_flag                          uint8_t
0x240005a5  0x1(4:1)   key4.dblclick_flag                       uint8_t
0x240005a5  0x1(3:1)   key4.lp_flag                             uint8_t
0x240005a6  0x1        key4.id                                  uint8_t
0x240005a7  0x1        key4.event                               key_event_e
0x240005a8  0x30       key4.press_cb                            array[6] of key_cb_t
0x240005d8  0x30       key4.bounce_cb                           array[6] of key_cb_t
0x24000608  0x30       key4.click_cb                            array[6] of key_cb_t
0x24000638  0x30       key4.dbclick_cb                          array[6] of key_cb_t
0x24000668  0x30       key4.lp_cb                               array[6] of key_cb_t

address     size       variable name                            type
0x24000698  0x120      key5                                     key_t
0x24000698  0x4        key5.read                                pointer to function 
0x2400069c  0x4        key5.gpiox                               pointer to unknown Type 
0x240006a0  0x2      * key5.gpio_pin                            uint16_t
0x240006a4  0x4        key5.dblclick_target                     uint32_t
0x240006a8  0x4        key5.dblclick_timestamp                  uint32_t
0x240006ac  0x4        key5.lp_target                           uint32_t
0x240006b0  0x4        key5.lp_timestamp                        uint32_t
0x240006b4  0x4        key5.lp_interval                         uint32_t
0x240006b8  0x4        key5.pcnt_timestamp                      uint32_t
0x240006bc  0x4        key5.pcnt_interval                       uint32_t
0x240006c0  0x4        key5.pcnt_target                         uint32_t
0x240006c4  0x1(7:1)   key5.level                               uint8_t
0x240006c4  0x1(6:1)   key5.temp                                uint8_t
0x240006c4  0x1(5:1)   key5.state                               uint8_t
0x240006c4  0x1(4:1)   key5.press_state                         uint8_t
0x240006c4  0x1(3:1)   key5.pcnt_state                          uint8_t
0x240006c4  0x1(2:1)   key5.bounce_state                        uint8_t
0x240006c4  0x1(1:1)   key5.dbclick_state                       uint8_t
0x240006c4  0x1(0:1)   key5.lp_state                            uint8_t
0x240006c5  0x1(7:1)   key5.pcnt_flag                           uint8_t
0x240006c5  0x1(6:1)   key5.bounce_flag                         uint8_t
0x240006c5  0x1(5:1)   key5.click_flag                          uint8_t
0x240006c5  0x1(4:1)   key5.dblclick_flag                       uint8_t
0x240006c5  0x1(3:1)   key5.lp_flag                             uint8_t
0x240006c6  0x1        key5.id                                  uint8_t
0x240006c7  0x1        key5.event                               key_event_e
0x240006c8  0x30       key5.press_cb                            array[6] of key_cb_t
0x240006f8  0x30       key5.bounce_cb                           array[6] of key_cb_t
0x24000728  0x30       key5.click_cb                            array[6] of key_cb_t
0x24000758  0x30       key5.dbclick_cb                          array[6] of key_cb_t
0x24000788  0x30       key5.lp_cb                               array[6] of key_cb_t

address     size       variable name                            type
0x240007b8  0x120      key6                                     key_t
0x240007b8  0x4        key6.read                                pointer to function 
0x240007bc  0x4        key6.gpiox                               pointer to unknown Type 
0x240007c0  0x2      * key6.gpio_pin                            uint16_t
0x240007c4  0x4        key6.dblclick_target                     uint32_t
0x240007c8  0x4        key6.dblclick_timestamp                  uint32_t
0x240007cc  0x4        key6.lp_target                           uint32_t
0x240007d0  0x4        key6.lp_timestamp                        uint32_t
0x240007d4  0x4        key6.lp_interval                         uint32_t
0x240007d8  0x4        key6.pcnt_timestamp                      uint32_t
0x240007dc  0x4        key6.pcnt_interval                       uint32_t
0x240007e0  0x4        key6.pcnt_target                         uint32_t
0x240007e4  0x1(7:1)   key6.level                               uint8_t
0x240007e4  0x1(6:1)   key6.temp                                uint8_t
0x240007e4  0x1(5:1)   key6.state                               uint8_t
0x240007e4  0x1(4:1)   key6.press_state                         uint8_t
0x240007e4  0x1(3:1)   key6.pcnt_state                          uint8_t
0x240007e4  0x1(2:1)   key6.bounce_state                        uint8_t
0x240007e4  0x1(1:1)   key6.dbclick_state                       uint8_t
0x240007e4  0x1(0:1)   key6.lp_state                            uint8_t
0x240007e5  0x1(7:1)   key6.pcnt_flag                           uint8_t
0x240007e5  0x1(6:1)   key6.bounce_flag                         uint8_t
0x240007e5  0x1(5:1)   key6.click_flag                          uint8_t
0x240007e5  0x1(4:1)   key6.dblclick_flag                       uint8_t
0x240007e5  0x1(3:1)   key6.lp_flag                             uint8_t
0x240007e6  0x1        key6.id                                  uint8_t
0x240007e7  0x1        key6.event                               key_event_e
0x240007e8  0x30       key6.press_cb                            array[6] of key_cb_t
0x24000818  0x30       key6.bounce_cb                           array[6] of key_cb_t
0x24000848  0x30       key6.click_cb                            array[6] of key_cb_t
0x24000878  0x30       key6.dbclick_cb                          array[6] of key_cb_t
0x240008a8  0x30       key6.lp_cb                               array[6] of key_cb_t

address     size       variable name                            type
0x08007c46  0x4        key_adcRange                             array[2] of const uint16_t

address     size       variable name                            type
0x240008d8  0xc8       key_cb_array                             array[50] of QElemType

address     size       variable name                            type
0x240009a0  0x8        key_cb_queue                             Queue_t
0x240009a0  0x1        key_cb_queue.front                       uint8_t
0x240009a1  0x1        key_cb_queue.rear                        uint8_t
0x240009a2  0x1        key_cb_queue.count                       uint8_t
0x240009a3  0x1        key_cb_queue.size                        uint8_t
0x240009a4  0x4        key_cb_queue.data                        pointer to QElemType

address     size       variable name                            type
0x240009a8  0x8        key_link                                 staticll_t
0x240009a8  0x4        key_link.sll                             pointer to sLink_t
0x240009ac  0x2        key_link.max_size                        uint16_t

address     size       variable name                            type
0x240009b0  0x40       key_sll                                  array[8] of sLink_t

address     size       variable name                            type
0x24000078  0x54       __stdout                                 FILE
0x24000078  0x54       __stdout.__FILE_opaque                   anonymous
0x24000078  0x4        __stdout.__FILE_opaque.__FILE_alignment  long int
0x24000078  0x54       __stdout.__FILE_opaque.__FILE_size       array[84] of char

address     size       variable name                            type
0x240009f0  0x4        my_sys_time                              uint32_t

address     size       variable name                            type
0x240009f4  0x1        my_tick_irq_flag                         volatile uint8_t

address     size       variable name                            type
0x240000cc  0x4        adcValue                                 uint32_t

address     size       variable name                            type
0x240000d0  0x2        cont1                                    uint16_t

